
NixieSensors_v1.elf:     file format elf32-avr

Sections:
Idx Name          Size      VMA       LMA       File off  Algn
  0 .data         0000061a  00800100  000058b0  00005944  2**0
                  CONTENTS, ALLOC, LOAD, DATA
  1 .text         000058b0  00000000  00000000  00000094  2**1
                  CONTENTS, ALLOC, LOAD, READONLY, CODE
  2 .bss          000002c5  0080071a  0080071a  00005f5e  2**0
                  ALLOC
  3 .stab         00008250  00000000  00000000  00005f60  2**2
                  CONTENTS, READONLY, DEBUGGING
  4 .stabstr      00002afc  00000000  00000000  0000e1b0  2**0
                  CONTENTS, READONLY, DEBUGGING
  5 .debug_aranges 000000e0  00000000  00000000  00010cac  2**0
                  CONTENTS, READONLY, DEBUGGING
  6 .debug_pubnames 00000128  00000000  00000000  00010d8c  2**0
                  CONTENTS, READONLY, DEBUGGING
  7 .debug_info   000012ad  00000000  00000000  00010eb4  2**0
                  CONTENTS, READONLY, DEBUGGING
  8 .debug_abbrev 00000af1  00000000  00000000  00012161  2**0
                  CONTENTS, READONLY, DEBUGGING
  9 .debug_line   00000998  00000000  00000000  00012c52  2**0
                  CONTENTS, READONLY, DEBUGGING
 10 .debug_frame  000000e0  00000000  00000000  000135ec  2**2
                  CONTENTS, READONLY, DEBUGGING
 11 .debug_str    00000255  00000000  00000000  000136cc  2**0
                  CONTENTS, READONLY, DEBUGGING
 12 .debug_loc    00000416  00000000  00000000  00013921  2**0
                  CONTENTS, READONLY, DEBUGGING

Disassembly of section .text:

00000000 <__vectors>:
       0:	0c 94 e1 01 	jmp	0x3c2	; 0x3c2 <__ctors_end>
       4:	0c 94 fe 01 	jmp	0x3fc	; 0x3fc <__bad_interrupt>
       8:	0c 94 3f 1a 	jmp	0x347e	; 0x347e <__vector_2>
       c:	0c 94 fe 01 	jmp	0x3fc	; 0x3fc <__bad_interrupt>
      10:	0c 94 fe 01 	jmp	0x3fc	; 0x3fc <__bad_interrupt>
      14:	0c 94 fe 01 	jmp	0x3fc	; 0x3fc <__bad_interrupt>
      18:	0c 94 df 19 	jmp	0x33be	; 0x33be <__vector_6>
      1c:	0c 94 f7 19 	jmp	0x33ee	; 0x33ee <__vector_7>
      20:	0c 94 3a 1b 	jmp	0x3674	; 0x3674 <__vector_8>
      24:	0c 94 fe 01 	jmp	0x3fc	; 0x3fc <__bad_interrupt>
      28:	0c 94 74 1a 	jmp	0x34e8	; 0x34e8 <__vector_10>
      2c:	0c 94 fe 01 	jmp	0x3fc	; 0x3fc <__bad_interrupt>
      30:	0c 94 fe 01 	jmp	0x3fc	; 0x3fc <__bad_interrupt>
      34:	0c 94 fe 01 	jmp	0x3fc	; 0x3fc <__bad_interrupt>
      38:	0c 94 fe 01 	jmp	0x3fc	; 0x3fc <__bad_interrupt>
      3c:	0c 94 fe 01 	jmp	0x3fc	; 0x3fc <__bad_interrupt>
      40:	0c 94 fe 01 	jmp	0x3fc	; 0x3fc <__bad_interrupt>
      44:	0c 94 fe 01 	jmp	0x3fc	; 0x3fc <__bad_interrupt>
      48:	0c 94 bc 1a 	jmp	0x3578	; 0x3578 <__vector_18>
      4c:	0c 94 fe 01 	jmp	0x3fc	; 0x3fc <__bad_interrupt>
      50:	0c 94 fe 01 	jmp	0x3fc	; 0x3fc <__bad_interrupt>
      54:	0c 94 fe 01 	jmp	0x3fc	; 0x3fc <__bad_interrupt>
      58:	0c 94 fe 01 	jmp	0x3fc	; 0x3fc <__bad_interrupt>
      5c:	0c 94 fe 01 	jmp	0x3fc	; 0x3fc <__bad_interrupt>
      60:	0c 94 fe 01 	jmp	0x3fc	; 0x3fc <__bad_interrupt>
      64:	0c 94 fe 01 	jmp	0x3fc	; 0x3fc <__bad_interrupt>
      68:	0c 94 fe 01 	jmp	0x3fc	; 0x3fc <__bad_interrupt>
      6c:	0c 94 fe 01 	jmp	0x3fc	; 0x3fc <__bad_interrupt>
      70:	0c 94 fe 01 	jmp	0x3fc	; 0x3fc <__bad_interrupt>
      74:	0c 94 fe 01 	jmp	0x3fc	; 0x3fc <__bad_interrupt>
      78:	0c 94 fd 1a 	jmp	0x35fa	; 0x35fa <__vector_30>
      7c:	0c 94 fe 01 	jmp	0x3fc	; 0x3fc <__bad_interrupt>
      80:	0c 94 d0 19 	jmp	0x33a0	; 0x33a0 <__vector_32>
      84:	0c 94 fe 01 	jmp	0x3fc	; 0x3fc <__bad_interrupt>
      88:	0c 94 fe 01 	jmp	0x3fc	; 0x3fc <__bad_interrupt>

0000008c <pwmtable>:
	...
      a0:	01 00 01 00 01 00 01 00 01 00 01 00 01 00 01 00     ................
      b0:	01 00 01 00 01 00 01 00 01 00 01 00 01 00 02 00     ................
      c0:	02 00 02 00 02 00 02 00 02 00 02 00 02 00 02 00     ................
      d0:	03 00 03 00 03 00 03 00 03 00 03 00 04 00 04 00     ................
      e0:	04 00 04 00 04 00 05 00 05 00 05 00 05 00 06 00     ................
      f0:	06 00 06 00 07 00 07 00 07 00 08 00 08 00 08 00     ................
     100:	09 00 09 00 0a 00 0a 00 0b 00 0b 00 0c 00 0c 00     ................
     110:	0d 00 0d 00 0e 00 0f 00 0f 00 10 00 11 00 11 00     ................
     120:	12 00 13 00 14 00 15 00 16 00 17 00 18 00 19 00     ................
     130:	1a 00 1b 00 1c 00 1d 00 1f 00 20 00 21 00 23 00     .......... .!.#.
     140:	24 00 26 00 27 00 29 00 2b 00 2c 00 2e 00 30 00     $.&.'.).+.,...0.
     150:	32 00 34 00 36 00 38 00 3a 00 3c 00 3e 00 40 00     2.4.6.8.:.<.>.@.
     160:	43 00 45 00 47 00 4a 00 4c 00 4f 00 51 00 54 00     C.E.G.J.L.O.Q.T.
     170:	57 00 59 00 5c 00 5f 00 62 00 64 00 67 00 6a 00     W.Y.\._.b.d.g.j.
     180:	6d 00 70 00 73 00 76 00 79 00 7c 00 7f 00 82 00     m.p.s.v.y.|.....
     190:	85 00 88 00 8b 00 8e 00 91 00 94 00 97 00 9a 00     ................
     1a0:	9c 00 9f 00 a2 00 a5 00 a7 00 aa 00 ad 00 af 00     ................
     1b0:	b2 00 b4 00 b7 00 b9 00 bb 00 be 00 c0 00 c2 00     ................
     1c0:	c4 00 c6 00 c8 00 ca 00 cc 00 ce 00 d0 00 d2 00     ................
     1d0:	d3 00 d5 00 d7 00 d8 00 da 00 db 00 dd 00 de 00     ................
     1e0:	df 00 e1 00 e2 00 e3 00 e4 00 e5 00 e6 00 e7 00     ................
     1f0:	e8 00 e9 00 ea 00 eb 00 ec 00 ed 00 ed 00 ee 00     ................
     200:	ef 00 ef 00 f0 00 f1 00 f1 00 f2 00 f2 00 f3 00     ................
     210:	f3 00 f4 00 f4 00 f5 00 f5 00 f6 00 f6 00 f6 00     ................
     220:	f7 00 f7 00 f7 00 f8 00 f8 00 f8 00 f9 00 f9 00     ................
     230:	f9 00 f9 00 fa 00 fa 00 fa 00 fa 00 fa 00 fb 00     ................
     240:	fb 00 fb 00 fb 00 fb 00 fb 00 fc 00 fc 00 fc 00     ................
     250:	fc 00 fc 00 fc 00 fc 00 fc 00 fc 00 fd 00 fd 00     ................
     260:	fd 00 fd 00 fd 00 fd 00 fd 00 fd 00 fd 00 fd 00     ................
     270:	fd 00 fd 00 fd 00 fd 00 fd 00 fe 00 fe 00 fe 00     ................
     280:	fe 00 fe 00 fe 00 fe 00 ff 00 ff 00                 ............

0000028c <pstr_inf>:
     28c:	49 4e 46                                            INF

0000028f <pstr_inity>:
     28f:	49 4e 49 54 59                                      INITY

00000294 <pstr_nan>:
     294:	4e 41 4e                                            NAN

00000297 <pwr_m10>:
     297:	cd cc cc 3d 0a d7 23 3c 17 b7 d1 38 77 cc 2b 32     ...=..#<...8w.+2
     2a7:	95 95 e6 24 1f b1 4f 0a                             ...$..O.

000002af <pwr_p10>:
     2af:	00 00 20 41 00 00 c8 42 00 40 1c 46 20 bc be 4c     .. A...B.@.F ..L
     2bf:	ca 1b 0e 5a ae c5 9d 74 00 40 7a 10 f3 5a 00 a0     ...Z...t.@z..Z..
     2cf:	72 4e 18 09 00 10 a5 d4 e8 00 00 e8 76 48 17 00     rN..........vH..
     2df:	00 e4 0b 54 02 00 00 ca 9a 3b 00 00 00 e1 f5 05     ...T.....;......
     2ef:	00 00 80 96 98 00 00 00 40 42 0f 00 00 00 a0 86     ........@B......
     2ff:	01 00 00 00 10 27 00 00 00 00 e8 03 00 00 00 00     .....'..........
     30f:	64 00 00 00 00 00 0a 00 00 00 00 00 01 00 00 00     d...............
     31f:	00 00 2c 76 d8 88 dc 67 4f 08 23 df c1 df ae 59     ..,v...gO.#....Y
     32f:	e1 b1 b7 96 e5 e3 e4 53 c6 3a e6 51 99 76 96 e8     .......S.:.Q.v..
     33f:	e6 c2 84 26 eb 89 8c 9b 62 ed 40 7c 6f fc ef bc     ...&....b.@|o...
     34f:	9c 9f 40 f2 ba a5 6f a5 f4 90 05 5a 2a f7 5c 93     ..@...o....Z*.\.
     35f:	6b 6c f9 67 6d c1 1b fc e0 e4 0d 47 fe f5 20 e6     kl.gm......G.. .
     36f:	b5 00 d0 ed 90 2e 03 00 94 35 77 05 00 80 84 1e     .........5w.....
     37f:	08 00 00 20 4e 0a 00 00 00 c8 0c 33 33 33 33 0f     ... N......3333.
     38f:	98 6e 12 83 11 41 ef 8d 21 14 89 3b e6 55 16 cf     .n...A..!..;.U..
     39f:	fe e6 db 18 d1 84 4b 38 1b f7 7c 1d 90 1d a4 bb     ......K8..|.....
     3af:	e4 24 20 32 84 72 5e 22 81 00 c9 f1 24 ec a1 e5     .$ 2.r^"....$...
     3bf:	3d 27 00                                            ='.

000003c2 <__ctors_end>:
     3c2:	11 24       	eor	r1, r1
     3c4:	1f be       	out	0x3f, r1	; 63
     3c6:	cf ef       	ldi	r28, 0xFF	; 255
     3c8:	d0 e1       	ldi	r29, 0x10	; 16
     3ca:	de bf       	out	0x3e, r29	; 62
     3cc:	cd bf       	out	0x3d, r28	; 61

000003ce <__do_copy_data>:
     3ce:	17 e0       	ldi	r17, 0x07	; 7
     3d0:	a0 e0       	ldi	r26, 0x00	; 0
     3d2:	b1 e0       	ldi	r27, 0x01	; 1
     3d4:	e0 eb       	ldi	r30, 0xB0	; 176
     3d6:	f8 e5       	ldi	r31, 0x58	; 88
     3d8:	02 c0       	rjmp	.+4      	; 0x3de <.do_copy_data_start>

000003da <.do_copy_data_loop>:
     3da:	05 90       	lpm	r0, Z+
     3dc:	0d 92       	st	X+, r0

000003de <.do_copy_data_start>:
     3de:	aa 31       	cpi	r26, 0x1A	; 26
     3e0:	b1 07       	cpc	r27, r17
     3e2:	d9 f7       	brne	.-10     	; 0x3da <.do_copy_data_loop>

000003e4 <__do_clear_bss>:
     3e4:	19 e0       	ldi	r17, 0x09	; 9
     3e6:	aa e1       	ldi	r26, 0x1A	; 26
     3e8:	b7 e0       	ldi	r27, 0x07	; 7
     3ea:	01 c0       	rjmp	.+2      	; 0x3ee <.do_clear_bss_start>

000003ec <.do_clear_bss_loop>:
     3ec:	1d 92       	st	X+, r1

000003ee <.do_clear_bss_start>:
     3ee:	af 3d       	cpi	r26, 0xDF	; 223
     3f0:	b1 07       	cpc	r27, r17
     3f2:	e1 f7       	brne	.-8      	; 0x3ec <.do_clear_bss_loop>
     3f4:	0e 94 6d 1b 	call	0x36da	; 0x36da <main>
     3f8:	0c 94 56 2c 	jmp	0x58ac	; 0x58ac <_exit>

000003fc <__bad_interrupt>:
     3fc:	0c 94 0f 1a 	jmp	0x341e	; 0x341e <__vector_default>

00000400 <__divsf3>:
     400:	a8 e1       	ldi	r26, 0x18	; 24
     402:	b0 e0       	ldi	r27, 0x00	; 0
     404:	e6 e0       	ldi	r30, 0x06	; 6
     406:	f2 e0       	ldi	r31, 0x02	; 2
     408:	0c 94 73 22 	jmp	0x44e6	; 0x44e6 <__prologue_saves__+0x10>
     40c:	69 83       	std	Y+1, r22	; 0x01
     40e:	7a 83       	std	Y+2, r23	; 0x02
     410:	8b 83       	std	Y+3, r24	; 0x03
     412:	9c 83       	std	Y+4, r25	; 0x04
     414:	2d 83       	std	Y+5, r18	; 0x05
     416:	3e 83       	std	Y+6, r19	; 0x06
     418:	4f 83       	std	Y+7, r20	; 0x07
     41a:	58 87       	std	Y+8, r21	; 0x08
     41c:	b9 e0       	ldi	r27, 0x09	; 9
     41e:	eb 2e       	mov	r14, r27
     420:	f1 2c       	mov	r15, r1
     422:	ec 0e       	add	r14, r28
     424:	fd 1e       	adc	r15, r29
     426:	ce 01       	movw	r24, r28
     428:	01 96       	adiw	r24, 0x01	; 1
     42a:	b7 01       	movw	r22, r14
     42c:	0e 94 79 04 	call	0x8f2	; 0x8f2 <__unpack_f>
     430:	8e 01       	movw	r16, r28
     432:	0f 5e       	subi	r16, 0xEF	; 239
     434:	1f 4f       	sbci	r17, 0xFF	; 255
     436:	ce 01       	movw	r24, r28
     438:	05 96       	adiw	r24, 0x05	; 5
     43a:	b8 01       	movw	r22, r16
     43c:	0e 94 79 04 	call	0x8f2	; 0x8f2 <__unpack_f>
     440:	29 85       	ldd	r18, Y+9	; 0x09
     442:	22 30       	cpi	r18, 0x02	; 2
     444:	08 f4       	brcc	.+2      	; 0x448 <__divsf3+0x48>
     446:	7e c0       	rjmp	.+252    	; 0x544 <__divsf3+0x144>
     448:	39 89       	ldd	r19, Y+17	; 0x11
     44a:	32 30       	cpi	r19, 0x02	; 2
     44c:	10 f4       	brcc	.+4      	; 0x452 <__divsf3+0x52>
     44e:	b8 01       	movw	r22, r16
     450:	7c c0       	rjmp	.+248    	; 0x54a <__divsf3+0x14a>
     452:	8a 85       	ldd	r24, Y+10	; 0x0a
     454:	9a 89       	ldd	r25, Y+18	; 0x12
     456:	89 27       	eor	r24, r25
     458:	8a 87       	std	Y+10, r24	; 0x0a
     45a:	24 30       	cpi	r18, 0x04	; 4
     45c:	11 f0       	breq	.+4      	; 0x462 <__divsf3+0x62>
     45e:	22 30       	cpi	r18, 0x02	; 2
     460:	31 f4       	brne	.+12     	; 0x46e <__divsf3+0x6e>
     462:	23 17       	cp	r18, r19
     464:	09 f0       	breq	.+2      	; 0x468 <__divsf3+0x68>
     466:	6e c0       	rjmp	.+220    	; 0x544 <__divsf3+0x144>
     468:	68 ef       	ldi	r22, 0xF8	; 248
     46a:	75 e0       	ldi	r23, 0x05	; 5
     46c:	6e c0       	rjmp	.+220    	; 0x54a <__divsf3+0x14a>
     46e:	34 30       	cpi	r19, 0x04	; 4
     470:	39 f4       	brne	.+14     	; 0x480 <__divsf3+0x80>
     472:	1d 86       	std	Y+13, r1	; 0x0d
     474:	1e 86       	std	Y+14, r1	; 0x0e
     476:	1f 86       	std	Y+15, r1	; 0x0f
     478:	18 8a       	std	Y+16, r1	; 0x10
     47a:	1c 86       	std	Y+12, r1	; 0x0c
     47c:	1b 86       	std	Y+11, r1	; 0x0b
     47e:	04 c0       	rjmp	.+8      	; 0x488 <__divsf3+0x88>
     480:	32 30       	cpi	r19, 0x02	; 2
     482:	21 f4       	brne	.+8      	; 0x48c <__divsf3+0x8c>
     484:	84 e0       	ldi	r24, 0x04	; 4
     486:	89 87       	std	Y+9, r24	; 0x09
     488:	b7 01       	movw	r22, r14
     48a:	5f c0       	rjmp	.+190    	; 0x54a <__divsf3+0x14a>
     48c:	2b 85       	ldd	r18, Y+11	; 0x0b
     48e:	3c 85       	ldd	r19, Y+12	; 0x0c
     490:	8b 89       	ldd	r24, Y+19	; 0x13
     492:	9c 89       	ldd	r25, Y+20	; 0x14
     494:	28 1b       	sub	r18, r24
     496:	39 0b       	sbc	r19, r25
     498:	3c 87       	std	Y+12, r19	; 0x0c
     49a:	2b 87       	std	Y+11, r18	; 0x0b
     49c:	ed 84       	ldd	r14, Y+13	; 0x0d
     49e:	fe 84       	ldd	r15, Y+14	; 0x0e
     4a0:	0f 85       	ldd	r16, Y+15	; 0x0f
     4a2:	18 89       	ldd	r17, Y+16	; 0x10
     4a4:	ad 88       	ldd	r10, Y+21	; 0x15
     4a6:	be 88       	ldd	r11, Y+22	; 0x16
     4a8:	cf 88       	ldd	r12, Y+23	; 0x17
     4aa:	d8 8c       	ldd	r13, Y+24	; 0x18
     4ac:	ea 14       	cp	r14, r10
     4ae:	fb 04       	cpc	r15, r11
     4b0:	0c 05       	cpc	r16, r12
     4b2:	1d 05       	cpc	r17, r13
     4b4:	40 f4       	brcc	.+16     	; 0x4c6 <__divsf3+0xc6>
     4b6:	ee 0c       	add	r14, r14
     4b8:	ff 1c       	adc	r15, r15
     4ba:	00 1f       	adc	r16, r16
     4bc:	11 1f       	adc	r17, r17
     4be:	21 50       	subi	r18, 0x01	; 1
     4c0:	30 40       	sbci	r19, 0x00	; 0
     4c2:	3c 87       	std	Y+12, r19	; 0x0c
     4c4:	2b 87       	std	Y+11, r18	; 0x0b
     4c6:	20 e0       	ldi	r18, 0x00	; 0
     4c8:	30 e0       	ldi	r19, 0x00	; 0
     4ca:	40 e0       	ldi	r20, 0x00	; 0
     4cc:	50 e0       	ldi	r21, 0x00	; 0
     4ce:	80 e0       	ldi	r24, 0x00	; 0
     4d0:	90 e0       	ldi	r25, 0x00	; 0
     4d2:	a0 e0       	ldi	r26, 0x00	; 0
     4d4:	b0 e4       	ldi	r27, 0x40	; 64
     4d6:	60 e0       	ldi	r22, 0x00	; 0
     4d8:	70 e0       	ldi	r23, 0x00	; 0
     4da:	ea 14       	cp	r14, r10
     4dc:	fb 04       	cpc	r15, r11
     4de:	0c 05       	cpc	r16, r12
     4e0:	1d 05       	cpc	r17, r13
     4e2:	40 f0       	brcs	.+16     	; 0x4f4 <__divsf3+0xf4>
     4e4:	28 2b       	or	r18, r24
     4e6:	39 2b       	or	r19, r25
     4e8:	4a 2b       	or	r20, r26
     4ea:	5b 2b       	or	r21, r27
     4ec:	ea 18       	sub	r14, r10
     4ee:	fb 08       	sbc	r15, r11
     4f0:	0c 09       	sbc	r16, r12
     4f2:	1d 09       	sbc	r17, r13
     4f4:	b6 95       	lsr	r27
     4f6:	a7 95       	ror	r26
     4f8:	97 95       	ror	r25
     4fa:	87 95       	ror	r24
     4fc:	ee 0c       	add	r14, r14
     4fe:	ff 1c       	adc	r15, r15
     500:	00 1f       	adc	r16, r16
     502:	11 1f       	adc	r17, r17
     504:	6f 5f       	subi	r22, 0xFF	; 255
     506:	7f 4f       	sbci	r23, 0xFF	; 255
     508:	6f 31       	cpi	r22, 0x1F	; 31
     50a:	71 05       	cpc	r23, r1
     50c:	31 f7       	brne	.-52     	; 0x4da <__divsf3+0xda>
     50e:	da 01       	movw	r26, r20
     510:	c9 01       	movw	r24, r18
     512:	8f 77       	andi	r24, 0x7F	; 127
     514:	90 70       	andi	r25, 0x00	; 0
     516:	a0 70       	andi	r26, 0x00	; 0
     518:	b0 70       	andi	r27, 0x00	; 0
     51a:	80 34       	cpi	r24, 0x40	; 64
     51c:	91 05       	cpc	r25, r1
     51e:	a1 05       	cpc	r26, r1
     520:	b1 05       	cpc	r27, r1
     522:	61 f4       	brne	.+24     	; 0x53c <__divsf3+0x13c>
     524:	27 fd       	sbrc	r18, 7
     526:	0a c0       	rjmp	.+20     	; 0x53c <__divsf3+0x13c>
     528:	e1 14       	cp	r14, r1
     52a:	f1 04       	cpc	r15, r1
     52c:	01 05       	cpc	r16, r1
     52e:	11 05       	cpc	r17, r1
     530:	29 f0       	breq	.+10     	; 0x53c <__divsf3+0x13c>
     532:	20 5c       	subi	r18, 0xC0	; 192
     534:	3f 4f       	sbci	r19, 0xFF	; 255
     536:	4f 4f       	sbci	r20, 0xFF	; 255
     538:	5f 4f       	sbci	r21, 0xFF	; 255
     53a:	20 78       	andi	r18, 0x80	; 128
     53c:	2d 87       	std	Y+13, r18	; 0x0d
     53e:	3e 87       	std	Y+14, r19	; 0x0e
     540:	4f 87       	std	Y+15, r20	; 0x0f
     542:	58 8b       	std	Y+16, r21	; 0x10
     544:	be 01       	movw	r22, r28
     546:	67 5f       	subi	r22, 0xF7	; 247
     548:	7f 4f       	sbci	r23, 0xFF	; 255
     54a:	cb 01       	movw	r24, r22
     54c:	0e 94 a4 03 	call	0x748	; 0x748 <__pack_f>
     550:	68 96       	adiw	r28, 0x18	; 24
     552:	ea e0       	ldi	r30, 0x0A	; 10
     554:	0c 94 8f 22 	jmp	0x451e	; 0x451e <__epilogue_restores__+0x10>

00000558 <__gtsf2>:
     558:	a8 e1       	ldi	r26, 0x18	; 24
     55a:	b0 e0       	ldi	r27, 0x00	; 0
     55c:	e2 eb       	ldi	r30, 0xB2	; 178
     55e:	f2 e0       	ldi	r31, 0x02	; 2
     560:	0c 94 77 22 	jmp	0x44ee	; 0x44ee <__prologue_saves__+0x18>
     564:	69 83       	std	Y+1, r22	; 0x01
     566:	7a 83       	std	Y+2, r23	; 0x02
     568:	8b 83       	std	Y+3, r24	; 0x03
     56a:	9c 83       	std	Y+4, r25	; 0x04
     56c:	2d 83       	std	Y+5, r18	; 0x05
     56e:	3e 83       	std	Y+6, r19	; 0x06
     570:	4f 83       	std	Y+7, r20	; 0x07
     572:	58 87       	std	Y+8, r21	; 0x08
     574:	89 e0       	ldi	r24, 0x09	; 9
     576:	e8 2e       	mov	r14, r24
     578:	f1 2c       	mov	r15, r1
     57a:	ec 0e       	add	r14, r28
     57c:	fd 1e       	adc	r15, r29
     57e:	ce 01       	movw	r24, r28
     580:	01 96       	adiw	r24, 0x01	; 1
     582:	b7 01       	movw	r22, r14
     584:	0e 94 79 04 	call	0x8f2	; 0x8f2 <__unpack_f>
     588:	8e 01       	movw	r16, r28
     58a:	0f 5e       	subi	r16, 0xEF	; 239
     58c:	1f 4f       	sbci	r17, 0xFF	; 255
     58e:	ce 01       	movw	r24, r28
     590:	05 96       	adiw	r24, 0x05	; 5
     592:	b8 01       	movw	r22, r16
     594:	0e 94 79 04 	call	0x8f2	; 0x8f2 <__unpack_f>
     598:	89 85       	ldd	r24, Y+9	; 0x09
     59a:	82 30       	cpi	r24, 0x02	; 2
     59c:	40 f0       	brcs	.+16     	; 0x5ae <__gtsf2+0x56>
     59e:	89 89       	ldd	r24, Y+17	; 0x11
     5a0:	82 30       	cpi	r24, 0x02	; 2
     5a2:	28 f0       	brcs	.+10     	; 0x5ae <__gtsf2+0x56>
     5a4:	c7 01       	movw	r24, r14
     5a6:	b8 01       	movw	r22, r16
     5a8:	0e 94 f1 04 	call	0x9e2	; 0x9e2 <__fpcmp_parts_f>
     5ac:	01 c0       	rjmp	.+2      	; 0x5b0 <__gtsf2+0x58>
     5ae:	8f ef       	ldi	r24, 0xFF	; 255
     5b0:	68 96       	adiw	r28, 0x18	; 24
     5b2:	e6 e0       	ldi	r30, 0x06	; 6
     5b4:	0c 94 93 22 	jmp	0x4526	; 0x4526 <__epilogue_restores__+0x18>

000005b8 <__floatunsisf>:
     5b8:	a8 e0       	ldi	r26, 0x08	; 8
     5ba:	b0 e0       	ldi	r27, 0x00	; 0
     5bc:	e2 ee       	ldi	r30, 0xE2	; 226
     5be:	f2 e0       	ldi	r31, 0x02	; 2
     5c0:	0c 94 73 22 	jmp	0x44e6	; 0x44e6 <__prologue_saves__+0x10>
     5c4:	7b 01       	movw	r14, r22
     5c6:	8c 01       	movw	r16, r24
     5c8:	61 15       	cp	r22, r1
     5ca:	71 05       	cpc	r23, r1
     5cc:	81 05       	cpc	r24, r1
     5ce:	91 05       	cpc	r25, r1
     5d0:	19 f4       	brne	.+6      	; 0x5d8 <__floatunsisf+0x20>
     5d2:	82 e0       	ldi	r24, 0x02	; 2
     5d4:	89 83       	std	Y+1, r24	; 0x01
     5d6:	60 c0       	rjmp	.+192    	; 0x698 <__floatunsisf+0xe0>
     5d8:	83 e0       	ldi	r24, 0x03	; 3
     5da:	89 83       	std	Y+1, r24	; 0x01
     5dc:	8e e1       	ldi	r24, 0x1E	; 30
     5de:	c8 2e       	mov	r12, r24
     5e0:	d1 2c       	mov	r13, r1
     5e2:	dc 82       	std	Y+4, r13	; 0x04
     5e4:	cb 82       	std	Y+3, r12	; 0x03
     5e6:	ed 82       	std	Y+5, r14	; 0x05
     5e8:	fe 82       	std	Y+6, r15	; 0x06
     5ea:	0f 83       	std	Y+7, r16	; 0x07
     5ec:	18 87       	std	Y+8, r17	; 0x08
     5ee:	c8 01       	movw	r24, r16
     5f0:	b7 01       	movw	r22, r14
     5f2:	0e 94 55 03 	call	0x6aa	; 0x6aa <__clzsi2>
     5f6:	fc 01       	movw	r30, r24
     5f8:	31 97       	sbiw	r30, 0x01	; 1
     5fa:	f7 ff       	sbrs	r31, 7
     5fc:	3b c0       	rjmp	.+118    	; 0x674 <__floatunsisf+0xbc>
     5fe:	22 27       	eor	r18, r18
     600:	33 27       	eor	r19, r19
     602:	2e 1b       	sub	r18, r30
     604:	3f 0b       	sbc	r19, r31
     606:	57 01       	movw	r10, r14
     608:	68 01       	movw	r12, r16
     60a:	02 2e       	mov	r0, r18
     60c:	04 c0       	rjmp	.+8      	; 0x616 <__floatunsisf+0x5e>
     60e:	d6 94       	lsr	r13
     610:	c7 94       	ror	r12
     612:	b7 94       	ror	r11
     614:	a7 94       	ror	r10
     616:	0a 94       	dec	r0
     618:	d2 f7       	brpl	.-12     	; 0x60e <__floatunsisf+0x56>
     61a:	40 e0       	ldi	r20, 0x00	; 0
     61c:	50 e0       	ldi	r21, 0x00	; 0
     61e:	60 e0       	ldi	r22, 0x00	; 0
     620:	70 e0       	ldi	r23, 0x00	; 0
     622:	81 e0       	ldi	r24, 0x01	; 1
     624:	90 e0       	ldi	r25, 0x00	; 0
     626:	a0 e0       	ldi	r26, 0x00	; 0
     628:	b0 e0       	ldi	r27, 0x00	; 0
     62a:	04 c0       	rjmp	.+8      	; 0x634 <__floatunsisf+0x7c>
     62c:	88 0f       	add	r24, r24
     62e:	99 1f       	adc	r25, r25
     630:	aa 1f       	adc	r26, r26
     632:	bb 1f       	adc	r27, r27
     634:	2a 95       	dec	r18
     636:	d2 f7       	brpl	.-12     	; 0x62c <__floatunsisf+0x74>
     638:	01 97       	sbiw	r24, 0x01	; 1
     63a:	a1 09       	sbc	r26, r1
     63c:	b1 09       	sbc	r27, r1
     63e:	8e 21       	and	r24, r14
     640:	9f 21       	and	r25, r15
     642:	a0 23       	and	r26, r16
     644:	b1 23       	and	r27, r17
     646:	00 97       	sbiw	r24, 0x00	; 0
     648:	a1 05       	cpc	r26, r1
     64a:	b1 05       	cpc	r27, r1
     64c:	21 f0       	breq	.+8      	; 0x656 <__floatunsisf+0x9e>
     64e:	41 e0       	ldi	r20, 0x01	; 1
     650:	50 e0       	ldi	r21, 0x00	; 0
     652:	60 e0       	ldi	r22, 0x00	; 0
     654:	70 e0       	ldi	r23, 0x00	; 0
     656:	4a 29       	or	r20, r10
     658:	5b 29       	or	r21, r11
     65a:	6c 29       	or	r22, r12
     65c:	7d 29       	or	r23, r13
     65e:	4d 83       	std	Y+5, r20	; 0x05
     660:	5e 83       	std	Y+6, r21	; 0x06
     662:	6f 83       	std	Y+7, r22	; 0x07
     664:	78 87       	std	Y+8, r23	; 0x08
     666:	8e e1       	ldi	r24, 0x1E	; 30
     668:	90 e0       	ldi	r25, 0x00	; 0
     66a:	8e 1b       	sub	r24, r30
     66c:	9f 0b       	sbc	r25, r31
     66e:	9c 83       	std	Y+4, r25	; 0x04
     670:	8b 83       	std	Y+3, r24	; 0x03
     672:	12 c0       	rjmp	.+36     	; 0x698 <__floatunsisf+0xe0>
     674:	30 97       	sbiw	r30, 0x00	; 0
     676:	81 f0       	breq	.+32     	; 0x698 <__floatunsisf+0xe0>
     678:	0e 2e       	mov	r0, r30
     67a:	04 c0       	rjmp	.+8      	; 0x684 <__floatunsisf+0xcc>
     67c:	ee 0c       	add	r14, r14
     67e:	ff 1c       	adc	r15, r15
     680:	00 1f       	adc	r16, r16
     682:	11 1f       	adc	r17, r17
     684:	0a 94       	dec	r0
     686:	d2 f7       	brpl	.-12     	; 0x67c <__floatunsisf+0xc4>
     688:	ed 82       	std	Y+5, r14	; 0x05
     68a:	fe 82       	std	Y+6, r15	; 0x06
     68c:	0f 83       	std	Y+7, r16	; 0x07
     68e:	18 87       	std	Y+8, r17	; 0x08
     690:	ce 1a       	sub	r12, r30
     692:	df 0a       	sbc	r13, r31
     694:	dc 82       	std	Y+4, r13	; 0x04
     696:	cb 82       	std	Y+3, r12	; 0x03
     698:	1a 82       	std	Y+2, r1	; 0x02
     69a:	ce 01       	movw	r24, r28
     69c:	01 96       	adiw	r24, 0x01	; 1
     69e:	0e 94 a4 03 	call	0x748	; 0x748 <__pack_f>
     6a2:	28 96       	adiw	r28, 0x08	; 8
     6a4:	ea e0       	ldi	r30, 0x0A	; 10
     6a6:	0c 94 8f 22 	jmp	0x451e	; 0x451e <__epilogue_restores__+0x10>

000006aa <__clzsi2>:
     6aa:	ef 92       	push	r14
     6ac:	ff 92       	push	r15
     6ae:	0f 93       	push	r16
     6b0:	1f 93       	push	r17
     6b2:	7b 01       	movw	r14, r22
     6b4:	8c 01       	movw	r16, r24
     6b6:	80 e0       	ldi	r24, 0x00	; 0
     6b8:	e8 16       	cp	r14, r24
     6ba:	80 e0       	ldi	r24, 0x00	; 0
     6bc:	f8 06       	cpc	r15, r24
     6be:	81 e0       	ldi	r24, 0x01	; 1
     6c0:	08 07       	cpc	r16, r24
     6c2:	80 e0       	ldi	r24, 0x00	; 0
     6c4:	18 07       	cpc	r17, r24
     6c6:	88 f4       	brcc	.+34     	; 0x6ea <__clzsi2+0x40>
     6c8:	8f ef       	ldi	r24, 0xFF	; 255
     6ca:	e8 16       	cp	r14, r24
     6cc:	f1 04       	cpc	r15, r1
     6ce:	01 05       	cpc	r16, r1
     6d0:	11 05       	cpc	r17, r1
     6d2:	31 f0       	breq	.+12     	; 0x6e0 <__clzsi2+0x36>
     6d4:	28 f0       	brcs	.+10     	; 0x6e0 <__clzsi2+0x36>
     6d6:	88 e0       	ldi	r24, 0x08	; 8
     6d8:	90 e0       	ldi	r25, 0x00	; 0
     6da:	a0 e0       	ldi	r26, 0x00	; 0
     6dc:	b0 e0       	ldi	r27, 0x00	; 0
     6de:	17 c0       	rjmp	.+46     	; 0x70e <__clzsi2+0x64>
     6e0:	80 e0       	ldi	r24, 0x00	; 0
     6e2:	90 e0       	ldi	r25, 0x00	; 0
     6e4:	a0 e0       	ldi	r26, 0x00	; 0
     6e6:	b0 e0       	ldi	r27, 0x00	; 0
     6e8:	12 c0       	rjmp	.+36     	; 0x70e <__clzsi2+0x64>
     6ea:	80 e0       	ldi	r24, 0x00	; 0
     6ec:	e8 16       	cp	r14, r24
     6ee:	80 e0       	ldi	r24, 0x00	; 0
     6f0:	f8 06       	cpc	r15, r24
     6f2:	80 e0       	ldi	r24, 0x00	; 0
     6f4:	08 07       	cpc	r16, r24
     6f6:	81 e0       	ldi	r24, 0x01	; 1
     6f8:	18 07       	cpc	r17, r24
     6fa:	28 f0       	brcs	.+10     	; 0x706 <__clzsi2+0x5c>
     6fc:	88 e1       	ldi	r24, 0x18	; 24
     6fe:	90 e0       	ldi	r25, 0x00	; 0
     700:	a0 e0       	ldi	r26, 0x00	; 0
     702:	b0 e0       	ldi	r27, 0x00	; 0
     704:	04 c0       	rjmp	.+8      	; 0x70e <__clzsi2+0x64>
     706:	80 e1       	ldi	r24, 0x10	; 16
     708:	90 e0       	ldi	r25, 0x00	; 0
     70a:	a0 e0       	ldi	r26, 0x00	; 0
     70c:	b0 e0       	ldi	r27, 0x00	; 0
     70e:	20 e2       	ldi	r18, 0x20	; 32
     710:	30 e0       	ldi	r19, 0x00	; 0
     712:	40 e0       	ldi	r20, 0x00	; 0
     714:	50 e0       	ldi	r21, 0x00	; 0
     716:	28 1b       	sub	r18, r24
     718:	39 0b       	sbc	r19, r25
     71a:	4a 0b       	sbc	r20, r26
     71c:	5b 0b       	sbc	r21, r27
     71e:	04 c0       	rjmp	.+8      	; 0x728 <__clzsi2+0x7e>
     720:	16 95       	lsr	r17
     722:	07 95       	ror	r16
     724:	f7 94       	ror	r15
     726:	e7 94       	ror	r14
     728:	8a 95       	dec	r24
     72a:	d2 f7       	brpl	.-12     	; 0x720 <__clzsi2+0x76>
     72c:	f7 01       	movw	r30, r14
     72e:	e0 50       	subi	r30, 0x00	; 0
     730:	fa 4f       	sbci	r31, 0xFA	; 250
     732:	80 81       	ld	r24, Z
     734:	28 1b       	sub	r18, r24
     736:	31 09       	sbc	r19, r1
     738:	41 09       	sbc	r20, r1
     73a:	51 09       	sbc	r21, r1
     73c:	c9 01       	movw	r24, r18
     73e:	1f 91       	pop	r17
     740:	0f 91       	pop	r16
     742:	ff 90       	pop	r15
     744:	ef 90       	pop	r14
     746:	08 95       	ret

00000748 <__pack_f>:
     748:	df 92       	push	r13
     74a:	ef 92       	push	r14
     74c:	ff 92       	push	r15
     74e:	0f 93       	push	r16
     750:	1f 93       	push	r17
     752:	fc 01       	movw	r30, r24
     754:	e4 80       	ldd	r14, Z+4	; 0x04
     756:	f5 80       	ldd	r15, Z+5	; 0x05
     758:	06 81       	ldd	r16, Z+6	; 0x06
     75a:	17 81       	ldd	r17, Z+7	; 0x07
     75c:	d1 80       	ldd	r13, Z+1	; 0x01
     75e:	80 81       	ld	r24, Z
     760:	82 30       	cpi	r24, 0x02	; 2
     762:	48 f4       	brcc	.+18     	; 0x776 <__pack_f+0x2e>
     764:	80 e0       	ldi	r24, 0x00	; 0
     766:	90 e0       	ldi	r25, 0x00	; 0
     768:	a0 e1       	ldi	r26, 0x10	; 16
     76a:	b0 e0       	ldi	r27, 0x00	; 0
     76c:	e8 2a       	or	r14, r24
     76e:	f9 2a       	or	r15, r25
     770:	0a 2b       	or	r16, r26
     772:	1b 2b       	or	r17, r27
     774:	a5 c0       	rjmp	.+330    	; 0x8c0 <__pack_f+0x178>
     776:	84 30       	cpi	r24, 0x04	; 4
     778:	09 f4       	brne	.+2      	; 0x77c <__pack_f+0x34>
     77a:	9f c0       	rjmp	.+318    	; 0x8ba <__pack_f+0x172>
     77c:	82 30       	cpi	r24, 0x02	; 2
     77e:	21 f4       	brne	.+8      	; 0x788 <__pack_f+0x40>
     780:	ee 24       	eor	r14, r14
     782:	ff 24       	eor	r15, r15
     784:	87 01       	movw	r16, r14
     786:	05 c0       	rjmp	.+10     	; 0x792 <__pack_f+0x4a>
     788:	e1 14       	cp	r14, r1
     78a:	f1 04       	cpc	r15, r1
     78c:	01 05       	cpc	r16, r1
     78e:	11 05       	cpc	r17, r1
     790:	19 f4       	brne	.+6      	; 0x798 <__pack_f+0x50>
     792:	e0 e0       	ldi	r30, 0x00	; 0
     794:	f0 e0       	ldi	r31, 0x00	; 0
     796:	96 c0       	rjmp	.+300    	; 0x8c4 <__pack_f+0x17c>
     798:	62 81       	ldd	r22, Z+2	; 0x02
     79a:	73 81       	ldd	r23, Z+3	; 0x03
     79c:	9f ef       	ldi	r25, 0xFF	; 255
     79e:	62 38       	cpi	r22, 0x82	; 130
     7a0:	79 07       	cpc	r23, r25
     7a2:	0c f0       	brlt	.+2      	; 0x7a6 <__pack_f+0x5e>
     7a4:	5b c0       	rjmp	.+182    	; 0x85c <__pack_f+0x114>
     7a6:	22 e8       	ldi	r18, 0x82	; 130
     7a8:	3f ef       	ldi	r19, 0xFF	; 255
     7aa:	26 1b       	sub	r18, r22
     7ac:	37 0b       	sbc	r19, r23
     7ae:	2a 31       	cpi	r18, 0x1A	; 26
     7b0:	31 05       	cpc	r19, r1
     7b2:	2c f0       	brlt	.+10     	; 0x7be <__pack_f+0x76>
     7b4:	20 e0       	ldi	r18, 0x00	; 0
     7b6:	30 e0       	ldi	r19, 0x00	; 0
     7b8:	40 e0       	ldi	r20, 0x00	; 0
     7ba:	50 e0       	ldi	r21, 0x00	; 0
     7bc:	2a c0       	rjmp	.+84     	; 0x812 <__pack_f+0xca>
     7be:	b8 01       	movw	r22, r16
     7c0:	a7 01       	movw	r20, r14
     7c2:	02 2e       	mov	r0, r18
     7c4:	04 c0       	rjmp	.+8      	; 0x7ce <__pack_f+0x86>
     7c6:	76 95       	lsr	r23
     7c8:	67 95       	ror	r22
     7ca:	57 95       	ror	r21
     7cc:	47 95       	ror	r20
     7ce:	0a 94       	dec	r0
     7d0:	d2 f7       	brpl	.-12     	; 0x7c6 <__pack_f+0x7e>
     7d2:	81 e0       	ldi	r24, 0x01	; 1
     7d4:	90 e0       	ldi	r25, 0x00	; 0
     7d6:	a0 e0       	ldi	r26, 0x00	; 0
     7d8:	b0 e0       	ldi	r27, 0x00	; 0
     7da:	04 c0       	rjmp	.+8      	; 0x7e4 <__pack_f+0x9c>
     7dc:	88 0f       	add	r24, r24
     7de:	99 1f       	adc	r25, r25
     7e0:	aa 1f       	adc	r26, r26
     7e2:	bb 1f       	adc	r27, r27
     7e4:	2a 95       	dec	r18
     7e6:	d2 f7       	brpl	.-12     	; 0x7dc <__pack_f+0x94>
     7e8:	01 97       	sbiw	r24, 0x01	; 1
     7ea:	a1 09       	sbc	r26, r1
     7ec:	b1 09       	sbc	r27, r1
     7ee:	8e 21       	and	r24, r14
     7f0:	9f 21       	and	r25, r15
     7f2:	a0 23       	and	r26, r16
     7f4:	b1 23       	and	r27, r17
     7f6:	00 97       	sbiw	r24, 0x00	; 0
     7f8:	a1 05       	cpc	r26, r1
     7fa:	b1 05       	cpc	r27, r1
     7fc:	21 f0       	breq	.+8      	; 0x806 <__pack_f+0xbe>
     7fe:	81 e0       	ldi	r24, 0x01	; 1
     800:	90 e0       	ldi	r25, 0x00	; 0
     802:	a0 e0       	ldi	r26, 0x00	; 0
     804:	b0 e0       	ldi	r27, 0x00	; 0
     806:	9a 01       	movw	r18, r20
     808:	ab 01       	movw	r20, r22
     80a:	28 2b       	or	r18, r24
     80c:	39 2b       	or	r19, r25
     80e:	4a 2b       	or	r20, r26
     810:	5b 2b       	or	r21, r27
     812:	da 01       	movw	r26, r20
     814:	c9 01       	movw	r24, r18
     816:	8f 77       	andi	r24, 0x7F	; 127
     818:	90 70       	andi	r25, 0x00	; 0
     81a:	a0 70       	andi	r26, 0x00	; 0
     81c:	b0 70       	andi	r27, 0x00	; 0
     81e:	80 34       	cpi	r24, 0x40	; 64
     820:	91 05       	cpc	r25, r1
     822:	a1 05       	cpc	r26, r1
     824:	b1 05       	cpc	r27, r1
     826:	39 f4       	brne	.+14     	; 0x836 <__pack_f+0xee>
     828:	27 ff       	sbrs	r18, 7
     82a:	09 c0       	rjmp	.+18     	; 0x83e <__pack_f+0xf6>
     82c:	20 5c       	subi	r18, 0xC0	; 192
     82e:	3f 4f       	sbci	r19, 0xFF	; 255
     830:	4f 4f       	sbci	r20, 0xFF	; 255
     832:	5f 4f       	sbci	r21, 0xFF	; 255
     834:	04 c0       	rjmp	.+8      	; 0x83e <__pack_f+0xf6>
     836:	21 5c       	subi	r18, 0xC1	; 193
     838:	3f 4f       	sbci	r19, 0xFF	; 255
     83a:	4f 4f       	sbci	r20, 0xFF	; 255
     83c:	5f 4f       	sbci	r21, 0xFF	; 255
     83e:	e0 e0       	ldi	r30, 0x00	; 0
     840:	f0 e0       	ldi	r31, 0x00	; 0
     842:	20 30       	cpi	r18, 0x00	; 0
     844:	a0 e0       	ldi	r26, 0x00	; 0
     846:	3a 07       	cpc	r19, r26
     848:	a0 e0       	ldi	r26, 0x00	; 0
     84a:	4a 07       	cpc	r20, r26
     84c:	a0 e4       	ldi	r26, 0x40	; 64
     84e:	5a 07       	cpc	r21, r26
     850:	10 f0       	brcs	.+4      	; 0x856 <__pack_f+0x10e>
     852:	e1 e0       	ldi	r30, 0x01	; 1
     854:	f0 e0       	ldi	r31, 0x00	; 0
     856:	79 01       	movw	r14, r18
     858:	8a 01       	movw	r16, r20
     85a:	27 c0       	rjmp	.+78     	; 0x8aa <__pack_f+0x162>
     85c:	60 38       	cpi	r22, 0x80	; 128
     85e:	71 05       	cpc	r23, r1
     860:	64 f5       	brge	.+88     	; 0x8ba <__pack_f+0x172>
     862:	fb 01       	movw	r30, r22
     864:	e1 58       	subi	r30, 0x81	; 129
     866:	ff 4f       	sbci	r31, 0xFF	; 255
     868:	d8 01       	movw	r26, r16
     86a:	c7 01       	movw	r24, r14
     86c:	8f 77       	andi	r24, 0x7F	; 127
     86e:	90 70       	andi	r25, 0x00	; 0
     870:	a0 70       	andi	r26, 0x00	; 0
     872:	b0 70       	andi	r27, 0x00	; 0
     874:	80 34       	cpi	r24, 0x40	; 64
     876:	91 05       	cpc	r25, r1
     878:	a1 05       	cpc	r26, r1
     87a:	b1 05       	cpc	r27, r1
     87c:	39 f4       	brne	.+14     	; 0x88c <__pack_f+0x144>
     87e:	e7 fe       	sbrs	r14, 7
     880:	0d c0       	rjmp	.+26     	; 0x89c <__pack_f+0x154>
     882:	80 e4       	ldi	r24, 0x40	; 64
     884:	90 e0       	ldi	r25, 0x00	; 0
     886:	a0 e0       	ldi	r26, 0x00	; 0
     888:	b0 e0       	ldi	r27, 0x00	; 0
     88a:	04 c0       	rjmp	.+8      	; 0x894 <__pack_f+0x14c>
     88c:	8f e3       	ldi	r24, 0x3F	; 63
     88e:	90 e0       	ldi	r25, 0x00	; 0
     890:	a0 e0       	ldi	r26, 0x00	; 0
     892:	b0 e0       	ldi	r27, 0x00	; 0
     894:	e8 0e       	add	r14, r24
     896:	f9 1e       	adc	r15, r25
     898:	0a 1f       	adc	r16, r26
     89a:	1b 1f       	adc	r17, r27
     89c:	17 ff       	sbrs	r17, 7
     89e:	05 c0       	rjmp	.+10     	; 0x8aa <__pack_f+0x162>
     8a0:	16 95       	lsr	r17
     8a2:	07 95       	ror	r16
     8a4:	f7 94       	ror	r15
     8a6:	e7 94       	ror	r14
     8a8:	31 96       	adiw	r30, 0x01	; 1
     8aa:	87 e0       	ldi	r24, 0x07	; 7
     8ac:	16 95       	lsr	r17
     8ae:	07 95       	ror	r16
     8b0:	f7 94       	ror	r15
     8b2:	e7 94       	ror	r14
     8b4:	8a 95       	dec	r24
     8b6:	d1 f7       	brne	.-12     	; 0x8ac <__pack_f+0x164>
     8b8:	05 c0       	rjmp	.+10     	; 0x8c4 <__pack_f+0x17c>
     8ba:	ee 24       	eor	r14, r14
     8bc:	ff 24       	eor	r15, r15
     8be:	87 01       	movw	r16, r14
     8c0:	ef ef       	ldi	r30, 0xFF	; 255
     8c2:	f0 e0       	ldi	r31, 0x00	; 0
     8c4:	6e 2f       	mov	r22, r30
     8c6:	67 95       	ror	r22
     8c8:	66 27       	eor	r22, r22
     8ca:	67 95       	ror	r22
     8cc:	90 2f       	mov	r25, r16
     8ce:	9f 77       	andi	r25, 0x7F	; 127
     8d0:	d7 94       	ror	r13
     8d2:	dd 24       	eor	r13, r13
     8d4:	d7 94       	ror	r13
     8d6:	8e 2f       	mov	r24, r30
     8d8:	86 95       	lsr	r24
     8da:	49 2f       	mov	r20, r25
     8dc:	46 2b       	or	r20, r22
     8de:	58 2f       	mov	r21, r24
     8e0:	5d 29       	or	r21, r13
     8e2:	b7 01       	movw	r22, r14
     8e4:	ca 01       	movw	r24, r20
     8e6:	1f 91       	pop	r17
     8e8:	0f 91       	pop	r16
     8ea:	ff 90       	pop	r15
     8ec:	ef 90       	pop	r14
     8ee:	df 90       	pop	r13
     8f0:	08 95       	ret

000008f2 <__unpack_f>:
     8f2:	fc 01       	movw	r30, r24
     8f4:	db 01       	movw	r26, r22
     8f6:	40 81       	ld	r20, Z
     8f8:	51 81       	ldd	r21, Z+1	; 0x01
     8fa:	22 81       	ldd	r18, Z+2	; 0x02
     8fc:	62 2f       	mov	r22, r18
     8fe:	6f 77       	andi	r22, 0x7F	; 127
     900:	70 e0       	ldi	r23, 0x00	; 0
     902:	22 1f       	adc	r18, r18
     904:	22 27       	eor	r18, r18
     906:	22 1f       	adc	r18, r18
     908:	93 81       	ldd	r25, Z+3	; 0x03
     90a:	89 2f       	mov	r24, r25
     90c:	88 0f       	add	r24, r24
     90e:	82 2b       	or	r24, r18
     910:	28 2f       	mov	r18, r24
     912:	30 e0       	ldi	r19, 0x00	; 0
     914:	99 1f       	adc	r25, r25
     916:	99 27       	eor	r25, r25
     918:	99 1f       	adc	r25, r25
     91a:	11 96       	adiw	r26, 0x01	; 1
     91c:	9c 93       	st	X, r25
     91e:	11 97       	sbiw	r26, 0x01	; 1
     920:	21 15       	cp	r18, r1
     922:	31 05       	cpc	r19, r1
     924:	a9 f5       	brne	.+106    	; 0x990 <__unpack_f+0x9e>
     926:	41 15       	cp	r20, r1
     928:	51 05       	cpc	r21, r1
     92a:	61 05       	cpc	r22, r1
     92c:	71 05       	cpc	r23, r1
     92e:	11 f4       	brne	.+4      	; 0x934 <__unpack_f+0x42>
     930:	82 e0       	ldi	r24, 0x02	; 2
     932:	37 c0       	rjmp	.+110    	; 0x9a2 <__unpack_f+0xb0>
     934:	82 e8       	ldi	r24, 0x82	; 130
     936:	9f ef       	ldi	r25, 0xFF	; 255
     938:	13 96       	adiw	r26, 0x03	; 3
     93a:	9c 93       	st	X, r25
     93c:	8e 93       	st	-X, r24
     93e:	12 97       	sbiw	r26, 0x02	; 2
     940:	9a 01       	movw	r18, r20
     942:	ab 01       	movw	r20, r22
     944:	67 e0       	ldi	r22, 0x07	; 7
     946:	22 0f       	add	r18, r18
     948:	33 1f       	adc	r19, r19
     94a:	44 1f       	adc	r20, r20
     94c:	55 1f       	adc	r21, r21
     94e:	6a 95       	dec	r22
     950:	d1 f7       	brne	.-12     	; 0x946 <__unpack_f+0x54>
     952:	83 e0       	ldi	r24, 0x03	; 3
     954:	8c 93       	st	X, r24
     956:	0d c0       	rjmp	.+26     	; 0x972 <__unpack_f+0x80>
     958:	22 0f       	add	r18, r18
     95a:	33 1f       	adc	r19, r19
     95c:	44 1f       	adc	r20, r20
     95e:	55 1f       	adc	r21, r21
     960:	12 96       	adiw	r26, 0x02	; 2
     962:	8d 91       	ld	r24, X+
     964:	9c 91       	ld	r25, X
     966:	13 97       	sbiw	r26, 0x03	; 3
     968:	01 97       	sbiw	r24, 0x01	; 1
     96a:	13 96       	adiw	r26, 0x03	; 3
     96c:	9c 93       	st	X, r25
     96e:	8e 93       	st	-X, r24
     970:	12 97       	sbiw	r26, 0x02	; 2
     972:	20 30       	cpi	r18, 0x00	; 0
     974:	80 e0       	ldi	r24, 0x00	; 0
     976:	38 07       	cpc	r19, r24
     978:	80 e0       	ldi	r24, 0x00	; 0
     97a:	48 07       	cpc	r20, r24
     97c:	80 e4       	ldi	r24, 0x40	; 64
     97e:	58 07       	cpc	r21, r24
     980:	58 f3       	brcs	.-42     	; 0x958 <__unpack_f+0x66>
     982:	14 96       	adiw	r26, 0x04	; 4
     984:	2d 93       	st	X+, r18
     986:	3d 93       	st	X+, r19
     988:	4d 93       	st	X+, r20
     98a:	5c 93       	st	X, r21
     98c:	17 97       	sbiw	r26, 0x07	; 7
     98e:	08 95       	ret
     990:	2f 3f       	cpi	r18, 0xFF	; 255
     992:	31 05       	cpc	r19, r1
     994:	79 f4       	brne	.+30     	; 0x9b4 <__unpack_f+0xc2>
     996:	41 15       	cp	r20, r1
     998:	51 05       	cpc	r21, r1
     99a:	61 05       	cpc	r22, r1
     99c:	71 05       	cpc	r23, r1
     99e:	19 f4       	brne	.+6      	; 0x9a6 <__unpack_f+0xb4>
     9a0:	84 e0       	ldi	r24, 0x04	; 4
     9a2:	8c 93       	st	X, r24
     9a4:	08 95       	ret
     9a6:	64 ff       	sbrs	r22, 4
     9a8:	03 c0       	rjmp	.+6      	; 0x9b0 <__unpack_f+0xbe>
     9aa:	81 e0       	ldi	r24, 0x01	; 1
     9ac:	8c 93       	st	X, r24
     9ae:	12 c0       	rjmp	.+36     	; 0x9d4 <__unpack_f+0xe2>
     9b0:	1c 92       	st	X, r1
     9b2:	10 c0       	rjmp	.+32     	; 0x9d4 <__unpack_f+0xe2>
     9b4:	2f 57       	subi	r18, 0x7F	; 127
     9b6:	30 40       	sbci	r19, 0x00	; 0
     9b8:	13 96       	adiw	r26, 0x03	; 3
     9ba:	3c 93       	st	X, r19
     9bc:	2e 93       	st	-X, r18
     9be:	12 97       	sbiw	r26, 0x02	; 2
     9c0:	83 e0       	ldi	r24, 0x03	; 3
     9c2:	8c 93       	st	X, r24
     9c4:	87 e0       	ldi	r24, 0x07	; 7
     9c6:	44 0f       	add	r20, r20
     9c8:	55 1f       	adc	r21, r21
     9ca:	66 1f       	adc	r22, r22
     9cc:	77 1f       	adc	r23, r23
     9ce:	8a 95       	dec	r24
     9d0:	d1 f7       	brne	.-12     	; 0x9c6 <__unpack_f+0xd4>
     9d2:	70 64       	ori	r23, 0x40	; 64
     9d4:	14 96       	adiw	r26, 0x04	; 4
     9d6:	4d 93       	st	X+, r20
     9d8:	5d 93       	st	X+, r21
     9da:	6d 93       	st	X+, r22
     9dc:	7c 93       	st	X, r23
     9de:	17 97       	sbiw	r26, 0x07	; 7
     9e0:	08 95       	ret

000009e2 <__fpcmp_parts_f>:
     9e2:	1f 93       	push	r17
     9e4:	dc 01       	movw	r26, r24
     9e6:	fb 01       	movw	r30, r22
     9e8:	9c 91       	ld	r25, X
     9ea:	92 30       	cpi	r25, 0x02	; 2
     9ec:	08 f4       	brcc	.+2      	; 0x9f0 <__fpcmp_parts_f+0xe>
     9ee:	47 c0       	rjmp	.+142    	; 0xa7e <__fpcmp_parts_f+0x9c>
     9f0:	80 81       	ld	r24, Z
     9f2:	82 30       	cpi	r24, 0x02	; 2
     9f4:	08 f4       	brcc	.+2      	; 0x9f8 <__fpcmp_parts_f+0x16>
     9f6:	43 c0       	rjmp	.+134    	; 0xa7e <__fpcmp_parts_f+0x9c>
     9f8:	94 30       	cpi	r25, 0x04	; 4
     9fa:	51 f4       	brne	.+20     	; 0xa10 <__fpcmp_parts_f+0x2e>
     9fc:	11 96       	adiw	r26, 0x01	; 1
     9fe:	1c 91       	ld	r17, X
     a00:	84 30       	cpi	r24, 0x04	; 4
     a02:	99 f5       	brne	.+102    	; 0xa6a <__fpcmp_parts_f+0x88>
     a04:	81 81       	ldd	r24, Z+1	; 0x01
     a06:	68 2f       	mov	r22, r24
     a08:	70 e0       	ldi	r23, 0x00	; 0
     a0a:	61 1b       	sub	r22, r17
     a0c:	71 09       	sbc	r23, r1
     a0e:	3f c0       	rjmp	.+126    	; 0xa8e <__fpcmp_parts_f+0xac>
     a10:	84 30       	cpi	r24, 0x04	; 4
     a12:	21 f0       	breq	.+8      	; 0xa1c <__fpcmp_parts_f+0x3a>
     a14:	92 30       	cpi	r25, 0x02	; 2
     a16:	31 f4       	brne	.+12     	; 0xa24 <__fpcmp_parts_f+0x42>
     a18:	82 30       	cpi	r24, 0x02	; 2
     a1a:	b9 f1       	breq	.+110    	; 0xa8a <__fpcmp_parts_f+0xa8>
     a1c:	81 81       	ldd	r24, Z+1	; 0x01
     a1e:	88 23       	and	r24, r24
     a20:	89 f1       	breq	.+98     	; 0xa84 <__fpcmp_parts_f+0xa2>
     a22:	2d c0       	rjmp	.+90     	; 0xa7e <__fpcmp_parts_f+0x9c>
     a24:	11 96       	adiw	r26, 0x01	; 1
     a26:	1c 91       	ld	r17, X
     a28:	11 97       	sbiw	r26, 0x01	; 1
     a2a:	82 30       	cpi	r24, 0x02	; 2
     a2c:	f1 f0       	breq	.+60     	; 0xa6a <__fpcmp_parts_f+0x88>
     a2e:	81 81       	ldd	r24, Z+1	; 0x01
     a30:	18 17       	cp	r17, r24
     a32:	d9 f4       	brne	.+54     	; 0xa6a <__fpcmp_parts_f+0x88>
     a34:	12 96       	adiw	r26, 0x02	; 2
     a36:	2d 91       	ld	r18, X+
     a38:	3c 91       	ld	r19, X
     a3a:	13 97       	sbiw	r26, 0x03	; 3
     a3c:	82 81       	ldd	r24, Z+2	; 0x02
     a3e:	93 81       	ldd	r25, Z+3	; 0x03
     a40:	82 17       	cp	r24, r18
     a42:	93 07       	cpc	r25, r19
     a44:	94 f0       	brlt	.+36     	; 0xa6a <__fpcmp_parts_f+0x88>
     a46:	28 17       	cp	r18, r24
     a48:	39 07       	cpc	r19, r25
     a4a:	bc f0       	brlt	.+46     	; 0xa7a <__fpcmp_parts_f+0x98>
     a4c:	14 96       	adiw	r26, 0x04	; 4
     a4e:	8d 91       	ld	r24, X+
     a50:	9d 91       	ld	r25, X+
     a52:	0d 90       	ld	r0, X+
     a54:	bc 91       	ld	r27, X
     a56:	a0 2d       	mov	r26, r0
     a58:	24 81       	ldd	r18, Z+4	; 0x04
     a5a:	35 81       	ldd	r19, Z+5	; 0x05
     a5c:	46 81       	ldd	r20, Z+6	; 0x06
     a5e:	57 81       	ldd	r21, Z+7	; 0x07
     a60:	28 17       	cp	r18, r24
     a62:	39 07       	cpc	r19, r25
     a64:	4a 07       	cpc	r20, r26
     a66:	5b 07       	cpc	r21, r27
     a68:	18 f4       	brcc	.+6      	; 0xa70 <__fpcmp_parts_f+0x8e>
     a6a:	11 23       	and	r17, r17
     a6c:	41 f0       	breq	.+16     	; 0xa7e <__fpcmp_parts_f+0x9c>
     a6e:	0a c0       	rjmp	.+20     	; 0xa84 <__fpcmp_parts_f+0xa2>
     a70:	82 17       	cp	r24, r18
     a72:	93 07       	cpc	r25, r19
     a74:	a4 07       	cpc	r26, r20
     a76:	b5 07       	cpc	r27, r21
     a78:	40 f4       	brcc	.+16     	; 0xa8a <__fpcmp_parts_f+0xa8>
     a7a:	11 23       	and	r17, r17
     a7c:	19 f0       	breq	.+6      	; 0xa84 <__fpcmp_parts_f+0xa2>
     a7e:	61 e0       	ldi	r22, 0x01	; 1
     a80:	70 e0       	ldi	r23, 0x00	; 0
     a82:	05 c0       	rjmp	.+10     	; 0xa8e <__fpcmp_parts_f+0xac>
     a84:	6f ef       	ldi	r22, 0xFF	; 255
     a86:	7f ef       	ldi	r23, 0xFF	; 255
     a88:	02 c0       	rjmp	.+4      	; 0xa8e <__fpcmp_parts_f+0xac>
     a8a:	60 e0       	ldi	r22, 0x00	; 0
     a8c:	70 e0       	ldi	r23, 0x00	; 0
     a8e:	cb 01       	movw	r24, r22
     a90:	1f 91       	pop	r17
     a92:	08 95       	ret

00000a94 <I2CInit>:


void I2CInit()
{
	//Set up TWI Module
	TWBR = 2;
     a94:	82 e0       	ldi	r24, 0x02	; 2
     a96:	80 93 70 00 	sts	0x0070, r24
	TWSR |=((1<<TWPS1)|(1<<TWPS0));
     a9a:	e1 e7       	ldi	r30, 0x71	; 113
     a9c:	f0 e0       	ldi	r31, 0x00	; 0
     a9e:	80 81       	ld	r24, Z
     aa0:	83 60       	ori	r24, 0x03	; 3
     aa2:	80 83       	st	Z, r24

	//Enable the TWI Module
	TWCR|=(1<<TWEN);
     aa4:	e4 e7       	ldi	r30, 0x74	; 116
     aa6:	f0 e0       	ldi	r31, 0x00	; 0
     aa8:	80 81       	ld	r24, Z
     aaa:	84 60       	ori	r24, 0x04	; 4
     aac:	80 83       	st	Z, r24


}
     aae:	08 95       	ret

00000ab0 <I2CClose>:

void I2CClose()
{
	//Disable the module
	TWCR&=(~(1<<TWEN));
     ab0:	e4 e7       	ldi	r30, 0x74	; 116
     ab2:	f0 e0       	ldi	r31, 0x00	; 0
     ab4:	80 81       	ld	r24, Z
     ab6:	8b 7f       	andi	r24, 0xFB	; 251
     ab8:	80 83       	st	Z, r24
}
     aba:	08 95       	ret

00000abc <I2CStart>:


void I2CStart()
{
	//Put Start Condition on Bus
	TWCR=(1<<TWINT)|(1<<TWEN)|(1<<TWSTA);
     abc:	84 ea       	ldi	r24, 0xA4	; 164
     abe:	80 93 74 00 	sts	0x0074, r24

	//Poll Till Done
	while(!(TWCR & (1<<TWINT)));
     ac2:	80 91 74 00 	lds	r24, 0x0074
     ac6:	87 ff       	sbrs	r24, 7
     ac8:	fc cf       	rjmp	.-8      	; 0xac2 <I2CStart+0x6>

}
     aca:	08 95       	ret

00000acc <I2CStop>:

void I2CStop()
{
	//Put Stop Condition on bus
	TWCR=(1<<TWINT)|(1<<TWEN)|(1<<TWSTO);
     acc:	84 e9       	ldi	r24, 0x94	; 148
     ace:	80 93 74 00 	sts	0x0074, r24
	
	//Wait for STOP to finish
	while(TWCR & (1<<TWSTO));
     ad2:	80 91 74 00 	lds	r24, 0x0074
     ad6:	84 fd       	sbrc	r24, 4
     ad8:	fc cf       	rjmp	.-8      	; 0xad2 <I2CStop+0x6>
	//_delay_loop_2(250);
}
     ada:	08 95       	ret

00000adc <I2CWriteByte>:

uint8_t I2CWriteByte(uint8_t data)
{
	
	TWDR=data;	
     adc:	80 93 73 00 	sts	0x0073, r24

	//Initiate Transfer
	TWCR=(1<<TWEN)|(1<<TWINT);
     ae0:	84 e8       	ldi	r24, 0x84	; 132
     ae2:	80 93 74 00 	sts	0x0074, r24

	//Poll Till Done
	while(!(TWCR & (1<<TWINT)));
     ae6:	80 91 74 00 	lds	r24, 0x0074
     aea:	87 ff       	sbrs	r24, 7
     aec:	fc cf       	rjmp	.-8      	; 0xae6 <I2CWriteByte+0xa>

	//Check Status
	if((TWSR & 0xF8) == 0x18 || (TWSR & 0xF8) == 0x28 || (TWSR & 0xF8) == 0x40)
     aee:	80 91 71 00 	lds	r24, 0x0071
     af2:	88 7f       	andi	r24, 0xF8	; 248
     af4:	88 31       	cpi	r24, 0x18	; 24
     af6:	59 f0       	breq	.+22     	; 0xb0e <I2CWriteByte+0x32>
     af8:	80 91 71 00 	lds	r24, 0x0071
     afc:	88 7f       	andi	r24, 0xF8	; 248
     afe:	88 32       	cpi	r24, 0x28	; 40
     b00:	31 f0       	breq	.+12     	; 0xb0e <I2CWriteByte+0x32>
     b02:	80 91 71 00 	lds	r24, 0x0071
     b06:	90 e0       	ldi	r25, 0x00	; 0
     b08:	88 7f       	andi	r24, 0xF8	; 248
     b0a:	80 34       	cpi	r24, 0x40	; 64
     b0c:	09 f4       	brne	.+2      	; 0xb10 <I2CWriteByte+0x34>
     b0e:	91 e0       	ldi	r25, 0x01	; 1

		return TRUE;
	}
	else
		return FALSE;	//Error
}
     b10:	89 2f       	mov	r24, r25
     b12:	08 95       	ret

00000b14 <I2CReadByte>:

uint8_t I2CReadByte(uint8_t *data,uint8_t ack)
{
     b14:	fc 01       	movw	r30, r24
	//Set up ACK
	if(ack)
     b16:	66 23       	and	r22, r22
     b18:	21 f0       	breq	.+8      	; 0xb22 <I2CReadByte+0xe>
	{
		//return ACK after reception
		TWCR|=(1<<TWEA);
     b1a:	80 91 74 00 	lds	r24, 0x0074
     b1e:	80 64       	ori	r24, 0x40	; 64
     b20:	03 c0       	rjmp	.+6      	; 0xb28 <I2CReadByte+0x14>
	else
	{
		//return NACK after reception
		//Signals slave to stop giving more data
		//usually used for last byte read.
		TWCR&=(~(1<<TWEA));
     b22:	80 91 74 00 	lds	r24, 0x0074
     b26:	8f 7b       	andi	r24, 0xBF	; 191
     b28:	80 93 74 00 	sts	0x0074, r24
	}

	//Now enable Reception of data by clearing TWINT
	TWCR|=(1<<TWINT);
     b2c:	80 91 74 00 	lds	r24, 0x0074
     b30:	80 68       	ori	r24, 0x80	; 128
     b32:	80 93 74 00 	sts	0x0074, r24

	//Wait till done
	while(!(TWCR & (1<<TWINT)));
     b36:	80 91 74 00 	lds	r24, 0x0074
     b3a:	87 ff       	sbrs	r24, 7
     b3c:	fc cf       	rjmp	.-8      	; 0xb36 <I2CReadByte+0x22>

	//Check status
	if((TWSR & 0xF8) == 0x58 || (TWSR & 0xF8) == 0x50)
     b3e:	80 91 71 00 	lds	r24, 0x0071
     b42:	88 7f       	andi	r24, 0xF8	; 248
     b44:	88 35       	cpi	r24, 0x58	; 88
     b46:	39 f0       	breq	.+14     	; 0xb56 <I2CReadByte+0x42>
     b48:	80 91 71 00 	lds	r24, 0x0071
     b4c:	88 7f       	andi	r24, 0xF8	; 248
     b4e:	80 35       	cpi	r24, 0x50	; 80
     b50:	11 f0       	breq	.+4      	; 0xb56 <I2CReadByte+0x42>
     b52:	80 e0       	ldi	r24, 0x00	; 0
     b54:	08 95       	ret
		//	or
		//Data received and NACK returned

		//Read the data

		*data=TWDR;
     b56:	80 91 73 00 	lds	r24, 0x0073
     b5a:	80 83       	st	Z, r24
     b5c:	81 e0       	ldi	r24, 0x01	; 1
		return TRUE;
	}
	else
		return FALSE;	//Error
	
}
     b5e:	08 95       	ret

00000b60 <get_nameOfTheDay>:
}


const char* get_nameOfTheDay(uint8_t day) {
	const char* ret = 0;
	switch (day) {
     b60:	84 30       	cpi	r24, 0x04	; 4
     b62:	e1 f0       	breq	.+56     	; 0xb9c <get_nameOfTheDay+0x3c>
     b64:	85 30       	cpi	r24, 0x05	; 5
     b66:	38 f4       	brcc	.+14     	; 0xb76 <get_nameOfTheDay+0x16>
     b68:	82 30       	cpi	r24, 0x02	; 2
     b6a:	91 f0       	breq	.+36     	; 0xb90 <get_nameOfTheDay+0x30>
     b6c:	83 30       	cpi	r24, 0x03	; 3
     b6e:	98 f4       	brcc	.+38     	; 0xb96 <get_nameOfTheDay+0x36>
     b70:	81 30       	cpi	r24, 0x01	; 1
     b72:	59 f4       	brne	.+22     	; 0xb8a <get_nameOfTheDay+0x2a>
     b74:	07 c0       	rjmp	.+14     	; 0xb84 <get_nameOfTheDay+0x24>
     b76:	86 30       	cpi	r24, 0x06	; 6
     b78:	b9 f0       	breq	.+46     	; 0xba8 <get_nameOfTheDay+0x48>
     b7a:	86 30       	cpi	r24, 0x06	; 6
     b7c:	90 f0       	brcs	.+36     	; 0xba2 <get_nameOfTheDay+0x42>
     b7e:	87 30       	cpi	r24, 0x07	; 7
     b80:	21 f4       	brne	.+8      	; 0xb8a <get_nameOfTheDay+0x2a>
     b82:	15 c0       	rjmp	.+42     	; 0xbae <get_nameOfTheDay+0x4e>
     b84:	20 e0       	ldi	r18, 0x00	; 0
     b86:	31 e0       	ldi	r19, 0x01	; 1
     b88:	14 c0       	rjmp	.+40     	; 0xbb2 <get_nameOfTheDay+0x52>
     b8a:	20 e0       	ldi	r18, 0x00	; 0
     b8c:	30 e0       	ldi	r19, 0x00	; 0
     b8e:	11 c0       	rjmp	.+34     	; 0xbb2 <get_nameOfTheDay+0x52>
     b90:	24 e0       	ldi	r18, 0x04	; 4
     b92:	31 e0       	ldi	r19, 0x01	; 1
     b94:	0e c0       	rjmp	.+28     	; 0xbb2 <get_nameOfTheDay+0x52>
	case 1:
		ret = "Mon";
		break;
	case 2:
		ret = "Tue";
		break;
     b96:	28 e0       	ldi	r18, 0x08	; 8
     b98:	31 e0       	ldi	r19, 0x01	; 1
     b9a:	0b c0       	rjmp	.+22     	; 0xbb2 <get_nameOfTheDay+0x52>
	case 3:
		ret = "Wed";
		break;
     b9c:	2c e0       	ldi	r18, 0x0C	; 12
     b9e:	31 e0       	ldi	r19, 0x01	; 1
     ba0:	08 c0       	rjmp	.+16     	; 0xbb2 <get_nameOfTheDay+0x52>
	case 4:
		ret = "Thu";
		break;
     ba2:	20 e1       	ldi	r18, 0x10	; 16
     ba4:	31 e0       	ldi	r19, 0x01	; 1
     ba6:	05 c0       	rjmp	.+10     	; 0xbb2 <get_nameOfTheDay+0x52>
	case 5:
		ret = "Fri";
		break;
     ba8:	24 e1       	ldi	r18, 0x14	; 20
     baa:	31 e0       	ldi	r19, 0x01	; 1
     bac:	02 c0       	rjmp	.+4      	; 0xbb2 <get_nameOfTheDay+0x52>
	case 6:
		ret = "Sat";
		break;
     bae:	28 e1       	ldi	r18, 0x18	; 24
     bb0:	31 e0       	ldi	r19, 0x01	; 1
		ret = "Sun";
		break;
	}

	return ret;
}
     bb2:	c9 01       	movw	r24, r18
     bb4:	08 95       	ret

00000bb6 <get_nameOfTheMonth>:

const char* get_nameOfTheMonth(uint8_t month) {
	const char* ret = 0;
	switch (month) {
     bb6:	86 30       	cpi	r24, 0x06	; 6
     bb8:	91 f1       	breq	.+100    	; 0xc1e <get_nameOfTheMonth+0x68>
     bba:	87 30       	cpi	r24, 0x07	; 7
     bbc:	70 f4       	brcc	.+28     	; 0xbda <get_nameOfTheMonth+0x24>
     bbe:	83 30       	cpi	r24, 0x03	; 3
     bc0:	29 f1       	breq	.+74     	; 0xc0c <get_nameOfTheMonth+0x56>
     bc2:	84 30       	cpi	r24, 0x04	; 4
     bc4:	28 f4       	brcc	.+10     	; 0xbd0 <get_nameOfTheMonth+0x1a>
     bc6:	81 30       	cpi	r24, 0x01	; 1
     bc8:	c1 f0       	breq	.+48     	; 0xbfa <get_nameOfTheMonth+0x44>
     bca:	82 30       	cpi	r24, 0x02	; 2
     bcc:	c9 f4       	brne	.+50     	; 0xc00 <get_nameOfTheMonth+0x4a>
     bce:	1b c0       	rjmp	.+54     	; 0xc06 <get_nameOfTheMonth+0x50>
     bd0:	84 30       	cpi	r24, 0x04	; 4
     bd2:	f9 f0       	breq	.+62     	; 0xc12 <get_nameOfTheMonth+0x5c>
     bd4:	85 30       	cpi	r24, 0x05	; 5
     bd6:	a1 f4       	brne	.+40     	; 0xc00 <get_nameOfTheMonth+0x4a>
     bd8:	1f c0       	rjmp	.+62     	; 0xc18 <get_nameOfTheMonth+0x62>
     bda:	89 30       	cpi	r24, 0x09	; 9
     bdc:	49 f1       	breq	.+82     	; 0xc30 <get_nameOfTheMonth+0x7a>
     bde:	8a 30       	cpi	r24, 0x0A	; 10
     be0:	28 f4       	brcc	.+10     	; 0xbec <get_nameOfTheMonth+0x36>
     be2:	87 30       	cpi	r24, 0x07	; 7
     be4:	f9 f0       	breq	.+62     	; 0xc24 <get_nameOfTheMonth+0x6e>
     be6:	88 30       	cpi	r24, 0x08	; 8
     be8:	59 f4       	brne	.+22     	; 0xc00 <get_nameOfTheMonth+0x4a>
     bea:	1f c0       	rjmp	.+62     	; 0xc2a <get_nameOfTheMonth+0x74>
     bec:	8b 30       	cpi	r24, 0x0B	; 11
     bee:	31 f1       	breq	.+76     	; 0xc3c <get_nameOfTheMonth+0x86>
     bf0:	8b 30       	cpi	r24, 0x0B	; 11
     bf2:	08 f1       	brcs	.+66     	; 0xc36 <get_nameOfTheMonth+0x80>
     bf4:	8c 30       	cpi	r24, 0x0C	; 12
     bf6:	21 f4       	brne	.+8      	; 0xc00 <get_nameOfTheMonth+0x4a>
     bf8:	24 c0       	rjmp	.+72     	; 0xc42 <get_nameOfTheMonth+0x8c>
     bfa:	2c e1       	ldi	r18, 0x1C	; 28
     bfc:	31 e0       	ldi	r19, 0x01	; 1
     bfe:	23 c0       	rjmp	.+70     	; 0xc46 <get_nameOfTheMonth+0x90>
     c00:	20 e0       	ldi	r18, 0x00	; 0
     c02:	30 e0       	ldi	r19, 0x00	; 0
     c04:	20 c0       	rjmp	.+64     	; 0xc46 <get_nameOfTheMonth+0x90>
     c06:	20 e2       	ldi	r18, 0x20	; 32
     c08:	31 e0       	ldi	r19, 0x01	; 1
     c0a:	1d c0       	rjmp	.+58     	; 0xc46 <get_nameOfTheMonth+0x90>
	case 1:
		ret = "Jan";
		break;
	case 2:
		ret = "Feb";
		break;
     c0c:	24 e2       	ldi	r18, 0x24	; 36
     c0e:	31 e0       	ldi	r19, 0x01	; 1
     c10:	1a c0       	rjmp	.+52     	; 0xc46 <get_nameOfTheMonth+0x90>
	case 3:
		ret = "Mar";
		break;
     c12:	28 e2       	ldi	r18, 0x28	; 40
     c14:	31 e0       	ldi	r19, 0x01	; 1
     c16:	17 c0       	rjmp	.+46     	; 0xc46 <get_nameOfTheMonth+0x90>
	case 4:
		ret = "Apr";
		break;
     c18:	2c e2       	ldi	r18, 0x2C	; 44
     c1a:	31 e0       	ldi	r19, 0x01	; 1
     c1c:	14 c0       	rjmp	.+40     	; 0xc46 <get_nameOfTheMonth+0x90>
	case 5:
		ret = "May";
		break;
     c1e:	20 e3       	ldi	r18, 0x30	; 48
     c20:	31 e0       	ldi	r19, 0x01	; 1
     c22:	11 c0       	rjmp	.+34     	; 0xc46 <get_nameOfTheMonth+0x90>
	case 6:
		ret = "June";
		break;
     c24:	25 e3       	ldi	r18, 0x35	; 53
     c26:	31 e0       	ldi	r19, 0x01	; 1
     c28:	0e c0       	rjmp	.+28     	; 0xc46 <get_nameOfTheMonth+0x90>
	case 7:
		ret = "July";
		break;
     c2a:	2a e3       	ldi	r18, 0x3A	; 58
     c2c:	31 e0       	ldi	r19, 0x01	; 1
     c2e:	0b c0       	rjmp	.+22     	; 0xc46 <get_nameOfTheMonth+0x90>
	case 8:
		ret = "Aug";
		break;
     c30:	2e e3       	ldi	r18, 0x3E	; 62
     c32:	31 e0       	ldi	r19, 0x01	; 1
     c34:	08 c0       	rjmp	.+16     	; 0xc46 <get_nameOfTheMonth+0x90>
	case 9:
		ret = "Sept";
		break;
     c36:	23 e4       	ldi	r18, 0x43	; 67
     c38:	31 e0       	ldi	r19, 0x01	; 1
     c3a:	05 c0       	rjmp	.+10     	; 0xc46 <get_nameOfTheMonth+0x90>
	case 10:
		ret = "Oct";
		break;
     c3c:	27 e4       	ldi	r18, 0x47	; 71
     c3e:	31 e0       	ldi	r19, 0x01	; 1
     c40:	02 c0       	rjmp	.+4      	; 0xc46 <get_nameOfTheMonth+0x90>
	case 11:
		ret = "Nov";
		break;
     c42:	2b e4       	ldi	r18, 0x4B	; 75
     c44:	31 e0       	ldi	r19, 0x01	; 1
		ret = "Dec";
		break;
	}

	return ret;
}
     c46:	c9 01       	movw	r24, r18
     c48:	08 95       	ret

00000c4a <GetTimeString>:
 GetTimeString(time);	//Now the string time contains the current time


 ****************************************/

bool GetTimeString(char *Time) {
     c4a:	df 92       	push	r13
     c4c:	ef 92       	push	r14
     c4e:	ff 92       	push	r15
     c50:	0f 93       	push	r16
     c52:	1f 93       	push	r17
     c54:	df 93       	push	r29
     c56:	cf 93       	push	r28
     c58:	0f 92       	push	r0
     c5a:	cd b7       	in	r28, 0x3d	; 61
     c5c:	de b7       	in	r29, 0x3e	; 62
     c5e:	8c 01       	movw	r16, r24
	uint8_t data;

	if (!DS1307Read(0x00, &data)) {
     c60:	80 e0       	ldi	r24, 0x00	; 0
     c62:	7e 01       	movw	r14, r28
     c64:	08 94       	sec
     c66:	e1 1c       	adc	r14, r1
     c68:	f1 1c       	adc	r15, r1
     c6a:	b7 01       	movw	r22, r14
     c6c:	0e 94 66 09 	call	0x12cc	; 0x12cc <DS1307Read>
     c70:	88 23       	and	r24, r24
     c72:	09 f4       	brne	.+2      	; 0xc76 <GetTimeString+0x2c>
     c74:	4f c0       	rjmp	.+158    	; 0xd14 <GetTimeString+0xca>
		//I/O Error
		return 0;
	}

	Time[11] = '\0';
     c76:	f8 01       	movw	r30, r16
     c78:	13 86       	std	Z+11, r1	; 0x0b
	Time[10] = 'M';
     c7a:	8d e4       	ldi	r24, 0x4D	; 77
     c7c:	82 87       	std	Z+10, r24	; 0x0a
	Time[8] = ' ';
     c7e:	80 e2       	ldi	r24, 0x20	; 32
     c80:	80 87       	std	Z+8, r24	; 0x08

	Time[7] = 48 + (data & 0b00001111);
     c82:	89 81       	ldd	r24, Y+1	; 0x01
     c84:	28 2f       	mov	r18, r24
     c86:	2f 70       	andi	r18, 0x0F	; 15
     c88:	20 5d       	subi	r18, 0xD0	; 208
     c8a:	27 83       	std	Z+7, r18	; 0x07
	Time[6] = 48 + ((data & 0b01110000) >> 4);
     c8c:	90 e0       	ldi	r25, 0x00	; 0
     c8e:	80 77       	andi	r24, 0x70	; 112
     c90:	90 70       	andi	r25, 0x00	; 0
     c92:	64 e0       	ldi	r22, 0x04	; 4
     c94:	95 95       	asr	r25
     c96:	87 95       	ror	r24
     c98:	6a 95       	dec	r22
     c9a:	e1 f7       	brne	.-8      	; 0xc94 <GetTimeString+0x4a>
     c9c:	80 5d       	subi	r24, 0xD0	; 208
     c9e:	86 83       	std	Z+6, r24	; 0x06
	Time[5] = ':';
     ca0:	5a e3       	ldi	r21, 0x3A	; 58
     ca2:	d5 2e       	mov	r13, r21
     ca4:	d5 82       	std	Z+5, r13	; 0x05

	if (!DS1307Read(0x01, &data)) {
     ca6:	81 e0       	ldi	r24, 0x01	; 1
     ca8:	b7 01       	movw	r22, r14
     caa:	0e 94 66 09 	call	0x12cc	; 0x12cc <DS1307Read>
     cae:	88 23       	and	r24, r24
     cb0:	89 f1       	breq	.+98     	; 0xd14 <GetTimeString+0xca>
		//I/O Error
		return 0;
	}

	Time[4] = 48 + (data & 0b00001111);
     cb2:	89 81       	ldd	r24, Y+1	; 0x01
     cb4:	28 2f       	mov	r18, r24
     cb6:	2f 70       	andi	r18, 0x0F	; 15
     cb8:	20 5d       	subi	r18, 0xD0	; 208
     cba:	f8 01       	movw	r30, r16
     cbc:	24 83       	std	Z+4, r18	; 0x04
	Time[3] = 48 + ((data & 0b01110000) >> 4);
     cbe:	90 e0       	ldi	r25, 0x00	; 0
     cc0:	80 77       	andi	r24, 0x70	; 112
     cc2:	90 70       	andi	r25, 0x00	; 0
     cc4:	44 e0       	ldi	r20, 0x04	; 4
     cc6:	95 95       	asr	r25
     cc8:	87 95       	ror	r24
     cca:	4a 95       	dec	r20
     ccc:	e1 f7       	brne	.-8      	; 0xcc6 <GetTimeString+0x7c>
     cce:	80 5d       	subi	r24, 0xD0	; 208
     cd0:	83 83       	std	Z+3, r24	; 0x03
	Time[2] = ':';
     cd2:	d2 82       	std	Z+2, r13	; 0x02

	if (!DS1307Read(0x02, &data)) {
     cd4:	82 e0       	ldi	r24, 0x02	; 2
     cd6:	b7 01       	movw	r22, r14
     cd8:	0e 94 66 09 	call	0x12cc	; 0x12cc <DS1307Read>
     cdc:	88 23       	and	r24, r24
     cde:	d1 f0       	breq	.+52     	; 0xd14 <GetTimeString+0xca>
		//I/O Error
		return 0;
	}

	Time[1] = 48 + (data & 0b00001111);
     ce0:	29 81       	ldd	r18, Y+1	; 0x01
     ce2:	82 2f       	mov	r24, r18
     ce4:	8f 70       	andi	r24, 0x0F	; 15
     ce6:	80 5d       	subi	r24, 0xD0	; 208
     ce8:	f8 01       	movw	r30, r16
     cea:	81 83       	std	Z+1, r24	; 0x01
	Time[0] = 48 + ((data & 0b00010000) >> 4);
     cec:	30 e0       	ldi	r19, 0x00	; 0
     cee:	c9 01       	movw	r24, r18
     cf0:	80 71       	andi	r24, 0x10	; 16
     cf2:	90 70       	andi	r25, 0x00	; 0
     cf4:	34 e0       	ldi	r19, 0x04	; 4
     cf6:	95 95       	asr	r25
     cf8:	87 95       	ror	r24
     cfa:	3a 95       	dec	r19
     cfc:	e1 f7       	brne	.-8      	; 0xcf6 <GetTimeString+0xac>
     cfe:	80 5d       	subi	r24, 0xD0	; 208
     d00:	80 83       	st	Z, r24

	//AM/PM
	if (data & 0b00100000) {
     d02:	25 ff       	sbrs	r18, 5
     d04:	02 c0       	rjmp	.+4      	; 0xd0a <GetTimeString+0xc0>
		Time[9] = 'P';
     d06:	80 e5       	ldi	r24, 0x50	; 80
     d08:	02 c0       	rjmp	.+4      	; 0xd0e <GetTimeString+0xc4>
	} else {
		Time[9] = 'A';
     d0a:	81 e4       	ldi	r24, 0x41	; 65
     d0c:	f8 01       	movw	r30, r16
     d0e:	81 87       	std	Z+9, r24	; 0x09
     d10:	81 e0       	ldi	r24, 0x01	; 1
     d12:	01 c0       	rjmp	.+2      	; 0xd16 <GetTimeString+0xcc>
     d14:	80 e0       	ldi	r24, 0x00	; 0
	}

	return 1; //Success

}
     d16:	0f 90       	pop	r0
     d18:	cf 91       	pop	r28
     d1a:	df 91       	pop	r29
     d1c:	1f 91       	pop	r17
     d1e:	0f 91       	pop	r16
     d20:	ff 90       	pop	r15
     d22:	ef 90       	pop	r14
     d24:	df 90       	pop	r13
     d26:	08 95       	ret

00000d28 <GetAmPm>:
 0=am
 1=pm

 ****************************************/

uint8_t GetAmPm() {
     d28:	df 93       	push	r29
     d2a:	cf 93       	push	r28
     d2c:	0f 92       	push	r0
     d2e:	cd b7       	in	r28, 0x3d	; 61
     d30:	de b7       	in	r29, 0x3e	; 62
	uint8_t am_pm, temp;

	//Read the Hour Register
	DS1307Read(0x02, &temp);
     d32:	82 e0       	ldi	r24, 0x02	; 2
     d34:	be 01       	movw	r22, r28
     d36:	6f 5f       	subi	r22, 0xFF	; 255
     d38:	7f 4f       	sbci	r23, 0xFF	; 255
     d3a:	0e 94 66 09 	call	0x12cc	; 0x12cc <DS1307Read>
     d3e:	89 81       	ldd	r24, Y+1	; 0x01
     d40:	82 95       	swap	r24

	am_pm = (temp & 0b00100000) >> 4;

	return am_pm;

}
     d42:	82 70       	andi	r24, 0x02	; 2
     d44:	0f 90       	pop	r0
     d46:	cf 91       	pop	r28
     d48:	df 91       	pop	r29
     d4a:	08 95       	ret

00000d4c <GetYear>:
 ------------
 the "year" part of time.

 ****************************************/

uint8_t GetYear() {
     d4c:	df 93       	push	r29
     d4e:	cf 93       	push	r28
     d50:	0f 92       	push	r0
     d52:	cd b7       	in	r28, 0x3d	; 61
     d54:	de b7       	in	r29, 0x3e	; 62
	uint8_t yr, temp;

	//Read the Hour Register
	DS1307Read(0x06, &temp);
     d56:	86 e0       	ldi	r24, 0x06	; 6
     d58:	be 01       	movw	r22, r28
     d5a:	6f 5f       	subi	r22, 0xFF	; 255
     d5c:	7f 4f       	sbci	r23, 0xFF	; 255
     d5e:	0e 94 66 09 	call	0x12cc	; 0x12cc <DS1307Read>
	yr = (((temp & 0b00000000) >> 4) * 10) + (temp & 0b11111111);//((temp & 0x0F) + ((temp & 0xF0) >> 4) * 10); //(((temp & 0b00000000) >> 4) * 10) + (temp & 0b11111111);

	return yr;

}
     d62:	89 81       	ldd	r24, Y+1	; 0x01
     d64:	0f 90       	pop	r0
     d66:	cf 91       	pop	r28
     d68:	df 91       	pop	r29
     d6a:	08 95       	ret

00000d6c <GetMonth>:
 ------------
 the "month" part of time.

 ****************************************/

uint8_t GetMonth() {
     d6c:	df 93       	push	r29
     d6e:	cf 93       	push	r28
     d70:	0f 92       	push	r0
     d72:	cd b7       	in	r28, 0x3d	; 61
     d74:	de b7       	in	r29, 0x3e	; 62
	uint8_t mt, temp;

	//Read the Hour Register
	DS1307Read(0x05, &temp);
     d76:	85 e0       	ldi	r24, 0x05	; 5
     d78:	be 01       	movw	r22, r28
     d7a:	6f 5f       	subi	r22, 0xFF	; 255
     d7c:	7f 4f       	sbci	r23, 0xFF	; 255
     d7e:	0e 94 66 09 	call	0x12cc	; 0x12cc <DS1307Read>
	mt = ((temp & 0x0F) + ((temp & 0x10) >> 4) * 10); //(((temp & 0b01100000) >> 4) * 10) + (temp & 0b00011111);
     d82:	89 81       	ldd	r24, Y+1	; 0x01
     d84:	28 2f       	mov	r18, r24
     d86:	30 e0       	ldi	r19, 0x00	; 0
     d88:	20 71       	andi	r18, 0x10	; 16
     d8a:	30 70       	andi	r19, 0x00	; 0
     d8c:	f4 e0       	ldi	r31, 0x04	; 4
     d8e:	35 95       	asr	r19
     d90:	27 95       	ror	r18
     d92:	fa 95       	dec	r31
     d94:	e1 f7       	brne	.-8      	; 0xd8e <GetMonth+0x22>
     d96:	a9 01       	movw	r20, r18
     d98:	e3 e0       	ldi	r30, 0x03	; 3
     d9a:	44 0f       	add	r20, r20
     d9c:	55 1f       	adc	r21, r21
     d9e:	ea 95       	dec	r30
     da0:	e1 f7       	brne	.-8      	; 0xd9a <GetMonth+0x2e>
     da2:	22 0f       	add	r18, r18
     da4:	33 1f       	adc	r19, r19
     da6:	42 0f       	add	r20, r18
     da8:	53 1f       	adc	r21, r19
     daa:	8f 70       	andi	r24, 0x0F	; 15

	return mt;

}
     dac:	84 0f       	add	r24, r20
     dae:	0f 90       	pop	r0
     db0:	cf 91       	pop	r28
     db2:	df 91       	pop	r29
     db4:	08 95       	ret

00000db6 <GetDate>:
 ------------
 the "date" part of time.

 ****************************************/

uint8_t GetDate() {
     db6:	df 93       	push	r29
     db8:	cf 93       	push	r28
     dba:	0f 92       	push	r0
     dbc:	cd b7       	in	r28, 0x3d	; 61
     dbe:	de b7       	in	r29, 0x3e	; 62
	uint8_t dt, temp;

	//Read the date Register
	DS1307Read(0x04, &temp);
     dc0:	84 e0       	ldi	r24, 0x04	; 4
     dc2:	be 01       	movw	r22, r28
     dc4:	6f 5f       	subi	r22, 0xFF	; 255
     dc6:	7f 4f       	sbci	r23, 0xFF	; 255
     dc8:	0e 94 66 09 	call	0x12cc	; 0x12cc <DS1307Read>
	dt = ((temp & 0x0F) + ((temp & 0x30) >> 4) * 10); //(((temp & 0b01000000) >> 4) * 10) + (temp & 0b00111111);
     dcc:	89 81       	ldd	r24, Y+1	; 0x01
     dce:	28 2f       	mov	r18, r24
     dd0:	30 e0       	ldi	r19, 0x00	; 0
     dd2:	20 73       	andi	r18, 0x30	; 48
     dd4:	30 70       	andi	r19, 0x00	; 0
     dd6:	94 e0       	ldi	r25, 0x04	; 4
     dd8:	35 95       	asr	r19
     dda:	27 95       	ror	r18
     ddc:	9a 95       	dec	r25
     dde:	e1 f7       	brne	.-8      	; 0xdd8 <GetDate+0x22>
     de0:	a9 01       	movw	r20, r18
     de2:	b3 e0       	ldi	r27, 0x03	; 3
     de4:	44 0f       	add	r20, r20
     de6:	55 1f       	adc	r21, r21
     de8:	ba 95       	dec	r27
     dea:	e1 f7       	brne	.-8      	; 0xde4 <GetDate+0x2e>
     dec:	22 0f       	add	r18, r18
     dee:	33 1f       	adc	r19, r19
     df0:	42 0f       	add	r20, r18
     df2:	53 1f       	adc	r21, r19
     df4:	8f 70       	andi	r24, 0x0F	; 15

	return dt;

}
     df6:	84 0f       	add	r24, r20
     df8:	0f 90       	pop	r0
     dfa:	cf 91       	pop	r28
     dfc:	df 91       	pop	r29
     dfe:	08 95       	ret

00000e00 <GetHour>:
 ------------
 the "hour" part of time.

 ****************************************/

uint8_t GetHour() {
     e00:	df 93       	push	r29
     e02:	cf 93       	push	r28
     e04:	0f 92       	push	r0
     e06:	cd b7       	in	r28, 0x3d	; 61
     e08:	de b7       	in	r29, 0x3e	; 62
	uint8_t hr, temp;

	//Read the Hour Register
	DS1307Read(0x02, &temp);
     e0a:	82 e0       	ldi	r24, 0x02	; 2
     e0c:	be 01       	movw	r22, r28
     e0e:	6f 5f       	subi	r22, 0xFF	; 255
     e10:	7f 4f       	sbci	r23, 0xFF	; 255
     e12:	0e 94 66 09 	call	0x12cc	; 0x12cc <DS1307Read>
	//hr = (((temp & 0b01000000) >> 4) * 10) + (temp & 0b00011111);
	hr = ((temp & 0x0F) + ((temp & 0x30) >> 4) * 10);
     e16:	89 81       	ldd	r24, Y+1	; 0x01
     e18:	28 2f       	mov	r18, r24
     e1a:	30 e0       	ldi	r19, 0x00	; 0
     e1c:	20 73       	andi	r18, 0x30	; 48
     e1e:	30 70       	andi	r19, 0x00	; 0
     e20:	e4 e0       	ldi	r30, 0x04	; 4
     e22:	35 95       	asr	r19
     e24:	27 95       	ror	r18
     e26:	ea 95       	dec	r30
     e28:	e1 f7       	brne	.-8      	; 0xe22 <GetHour+0x22>
     e2a:	a9 01       	movw	r20, r18
     e2c:	73 e0       	ldi	r23, 0x03	; 3
     e2e:	44 0f       	add	r20, r20
     e30:	55 1f       	adc	r21, r21
     e32:	7a 95       	dec	r23
     e34:	e1 f7       	brne	.-8      	; 0xe2e <GetHour+0x2e>
     e36:	22 0f       	add	r18, r18
     e38:	33 1f       	adc	r19, r19
     e3a:	42 0f       	add	r20, r18
     e3c:	53 1f       	adc	r21, r19
     e3e:	8f 70       	andi	r24, 0x0F	; 15

	return hr;

}
     e40:	84 0f       	add	r24, r20
     e42:	0f 90       	pop	r0
     e44:	cf 91       	pop	r28
     e46:	df 91       	pop	r29
     e48:	08 95       	ret

00000e4a <GetMinute>:
 ------------
 the "minute" part of time.

 ****************************************/

uint8_t GetMinute() {
     e4a:	df 93       	push	r29
     e4c:	cf 93       	push	r28
     e4e:	0f 92       	push	r0
     e50:	cd b7       	in	r28, 0x3d	; 61
     e52:	de b7       	in	r29, 0x3e	; 62
	uint8_t min, temp;

	//Read the Minute Register
	DS1307Read(0x01, &temp);
     e54:	81 e0       	ldi	r24, 0x01	; 1
     e56:	be 01       	movw	r22, r28
     e58:	6f 5f       	subi	r22, 0xFF	; 255
     e5a:	7f 4f       	sbci	r23, 0xFF	; 255
     e5c:	0e 94 66 09 	call	0x12cc	; 0x12cc <DS1307Read>
	min = ((temp & 0x0F) + ((temp & 0x70) >> 4) * 10); //(((temp & 0b01110000) >> 4) * 10) + (temp & 0b00001111);
     e60:	89 81       	ldd	r24, Y+1	; 0x01
     e62:	28 2f       	mov	r18, r24
     e64:	30 e0       	ldi	r19, 0x00	; 0
     e66:	20 77       	andi	r18, 0x70	; 112
     e68:	30 70       	andi	r19, 0x00	; 0
     e6a:	b4 e0       	ldi	r27, 0x04	; 4
     e6c:	35 95       	asr	r19
     e6e:	27 95       	ror	r18
     e70:	ba 95       	dec	r27
     e72:	e1 f7       	brne	.-8      	; 0xe6c <GetMinute+0x22>
     e74:	a9 01       	movw	r20, r18
     e76:	a3 e0       	ldi	r26, 0x03	; 3
     e78:	44 0f       	add	r20, r20
     e7a:	55 1f       	adc	r21, r21
     e7c:	aa 95       	dec	r26
     e7e:	e1 f7       	brne	.-8      	; 0xe78 <GetMinute+0x2e>
     e80:	22 0f       	add	r18, r18
     e82:	33 1f       	adc	r19, r19
     e84:	42 0f       	add	r20, r18
     e86:	53 1f       	adc	r21, r19
     e88:	8f 70       	andi	r24, 0x0F	; 15

	return min;

}
     e8a:	84 0f       	add	r24, r20
     e8c:	0f 90       	pop	r0
     e8e:	cf 91       	pop	r28
     e90:	df 91       	pop	r29
     e92:	08 95       	ret

00000e94 <GetSecond>:
 Return Value
 ------------
 the "second" part of time.

 ****************************************/
uint8_t GetSecond() {
     e94:	df 93       	push	r29
     e96:	cf 93       	push	r28
     e98:	0f 92       	push	r0
     e9a:	cd b7       	in	r28, 0x3d	; 61
     e9c:	de b7       	in	r29, 0x3e	; 62
	uint8_t sec, temp;

	//Read the Second Register
	DS1307Read(0x00, &temp);
     e9e:	80 e0       	ldi	r24, 0x00	; 0
     ea0:	be 01       	movw	r22, r28
     ea2:	6f 5f       	subi	r22, 0xFF	; 255
     ea4:	7f 4f       	sbci	r23, 0xFF	; 255
     ea6:	0e 94 66 09 	call	0x12cc	; 0x12cc <DS1307Read>
	sec = ((temp & 0x0F) + ((temp & 0x70) >> 4) * 10); //(((temp & 0b01110000) >> 4) * 10) + (temp & 0b00001111);
     eaa:	89 81       	ldd	r24, Y+1	; 0x01
     eac:	28 2f       	mov	r18, r24
     eae:	30 e0       	ldi	r19, 0x00	; 0
     eb0:	20 77       	andi	r18, 0x70	; 112
     eb2:	30 70       	andi	r19, 0x00	; 0
     eb4:	74 e0       	ldi	r23, 0x04	; 4
     eb6:	35 95       	asr	r19
     eb8:	27 95       	ror	r18
     eba:	7a 95       	dec	r23
     ebc:	e1 f7       	brne	.-8      	; 0xeb6 <GetSecond+0x22>
     ebe:	a9 01       	movw	r20, r18
     ec0:	63 e0       	ldi	r22, 0x03	; 3
     ec2:	44 0f       	add	r20, r20
     ec4:	55 1f       	adc	r21, r21
     ec6:	6a 95       	dec	r22
     ec8:	e1 f7       	brne	.-8      	; 0xec2 <GetSecond+0x2e>
     eca:	22 0f       	add	r18, r18
     ecc:	33 1f       	adc	r19, r19
     ece:	42 0f       	add	r20, r18
     ed0:	53 1f       	adc	r21, r19
     ed2:	8f 70       	andi	r24, 0x0F	; 15

	return sec;

}
     ed4:	84 0f       	add	r24, r20
     ed6:	0f 90       	pop	r0
     ed8:	cf 91       	pop	r28
     eda:	df 91       	pop	r29
     edc:	08 95       	ret

00000ede <SetAmPm>:
 0=failure
 1=success

 ****************************************/

bool SetAmPm(bool pm) {
     ede:	1f 93       	push	r17
     ee0:	df 93       	push	r29
     ee2:	cf 93       	push	r28
     ee4:	0f 92       	push	r0
     ee6:	cd b7       	in	r28, 0x3d	; 61
     ee8:	de b7       	in	r29, 0x3e	; 62
     eea:	18 2f       	mov	r17, r24
	uint8_t temp, result;

	DS1307Read(0x02, &temp);
     eec:	82 e0       	ldi	r24, 0x02	; 2
     eee:	be 01       	movw	r22, r28
     ef0:	6f 5f       	subi	r22, 0xFF	; 255
     ef2:	7f 4f       	sbci	r23, 0xFF	; 255
     ef4:	0e 94 66 09 	call	0x12cc	; 0x12cc <DS1307Read>
     ef8:	89 81       	ldd	r24, Y+1	; 0x01

	if (pm)
     efa:	11 23       	and	r17, r17
     efc:	11 f0       	breq	.+4      	; 0xf02 <SetAmPm+0x24>
		temp |= 0b00100000; //SET
     efe:	80 62       	ori	r24, 0x20	; 32
     f00:	01 c0       	rjmp	.+2      	; 0xf04 <SetAmPm+0x26>
	else
		temp &= 0b11011111; //CLEAR
     f02:	8f 7d       	andi	r24, 0xDF	; 223
     f04:	89 83       	std	Y+1, r24	; 0x01

	result = DS1307Write(0x02, temp);
     f06:	82 e0       	ldi	r24, 0x02	; 2
     f08:	69 81       	ldd	r22, Y+1	; 0x01
     f0a:	0e 94 49 09 	call	0x1292	; 0x1292 <DS1307Write>
     f0e:	81 11       	cpse	r24, r1
     f10:	81 e0       	ldi	r24, 0x01	; 1

	return result;

}
     f12:	0f 90       	pop	r0
     f14:	cf 91       	pop	r28
     f16:	df 91       	pop	r29
     f18:	1f 91       	pop	r17
     f1a:	08 95       	ret

00000f1c <SetYear>:
 0=failure
 1=success

 ****************************************/

bool SetYear(uint8_t yr) {
     f1c:	28 2f       	mov	r18, r24
	uint8_t temp, result;

	temp = (((yr / 10) << 4) & 0xF0) | (yr % 10);
	result = DS1307Write(0x06, temp);
     f1e:	6a e0       	ldi	r22, 0x0A	; 10
     f20:	0e 94 38 22 	call	0x4470	; 0x4470 <__udivmodqi4>
     f24:	48 2f       	mov	r20, r24
     f26:	50 e0       	ldi	r21, 0x00	; 0
     f28:	e4 e0       	ldi	r30, 0x04	; 4
     f2a:	44 0f       	add	r20, r20
     f2c:	55 1f       	adc	r21, r21
     f2e:	ea 95       	dec	r30
     f30:	e1 f7       	brne	.-8      	; 0xf2a <SetYear+0xe>
     f32:	82 2f       	mov	r24, r18
     f34:	0e 94 38 22 	call	0x4470	; 0x4470 <__udivmodqi4>
     f38:	94 2b       	or	r25, r20
     f3a:	86 e0       	ldi	r24, 0x06	; 6
     f3c:	69 2f       	mov	r22, r25
     f3e:	0e 94 49 09 	call	0x1292	; 0x1292 <DS1307Write>
     f42:	81 11       	cpse	r24, r1
     f44:	81 e0       	ldi	r24, 0x01	; 1

	return result;

}
     f46:	08 95       	ret

00000f48 <SetMonth>:
 0=failure
 1=success

 ****************************************/

bool SetMonth(uint8_t mt) {
     f48:	38 2f       	mov	r19, r24
	uint8_t temp, result;

	temp = (((mt / 10) << 4) & 0x10) | (mt % 10);
	result = DS1307Write(0x05, temp);
     f4a:	6a e0       	ldi	r22, 0x0A	; 10
     f4c:	0e 94 38 22 	call	0x4470	; 0x4470 <__udivmodqi4>
     f50:	28 2f       	mov	r18, r24
     f52:	22 95       	swap	r18
     f54:	20 71       	andi	r18, 0x10	; 16
     f56:	83 2f       	mov	r24, r19
     f58:	0e 94 38 22 	call	0x4470	; 0x4470 <__udivmodqi4>
     f5c:	29 2b       	or	r18, r25
     f5e:	85 e0       	ldi	r24, 0x05	; 5
     f60:	62 2f       	mov	r22, r18
     f62:	0e 94 49 09 	call	0x1292	; 0x1292 <DS1307Write>
     f66:	81 11       	cpse	r24, r1
     f68:	81 e0       	ldi	r24, 0x01	; 1

	return result;

}
     f6a:	08 95       	ret

00000f6c <SetDate>:
 0=failure
 1=success

 ****************************************/

bool SetDate(uint8_t dt) {
     f6c:	38 2f       	mov	r19, r24
	uint8_t temp, result;

	temp = (((dt / 10) << 4) & 0x30) | (dt % 10);
	result = DS1307Write(0x04, temp);
     f6e:	6a e0       	ldi	r22, 0x0A	; 10
     f70:	0e 94 38 22 	call	0x4470	; 0x4470 <__udivmodqi4>
     f74:	28 2f       	mov	r18, r24
     f76:	22 95       	swap	r18
     f78:	20 73       	andi	r18, 0x30	; 48
     f7a:	83 2f       	mov	r24, r19
     f7c:	0e 94 38 22 	call	0x4470	; 0x4470 <__udivmodqi4>
     f80:	29 2b       	or	r18, r25
     f82:	84 e0       	ldi	r24, 0x04	; 4
     f84:	62 2f       	mov	r22, r18
     f86:	0e 94 49 09 	call	0x1292	; 0x1292 <DS1307Write>
     f8a:	81 11       	cpse	r24, r1
     f8c:	81 e0       	ldi	r24, 0x01	; 1

	return result;

}
     f8e:	08 95       	ret

00000f90 <SetHour>:
 0=failure
 1=success

 ****************************************/

bool SetHour(uint8_t hr) {
     f90:	38 2f       	mov	r19, r24
//	return result;

	uint8_t temp, result;

	temp = ((((hr / 10) << 4) & 0x30) | (hr % 10));
	result = DS1307Write(0x02, temp);
     f92:	6a e0       	ldi	r22, 0x0A	; 10
     f94:	0e 94 38 22 	call	0x4470	; 0x4470 <__udivmodqi4>
     f98:	28 2f       	mov	r18, r24
     f9a:	22 95       	swap	r18
     f9c:	20 73       	andi	r18, 0x30	; 48
     f9e:	83 2f       	mov	r24, r19
     fa0:	0e 94 38 22 	call	0x4470	; 0x4470 <__udivmodqi4>
     fa4:	29 2b       	or	r18, r25
     fa6:	82 e0       	ldi	r24, 0x02	; 2
     fa8:	62 2f       	mov	r22, r18
     faa:	0e 94 49 09 	call	0x1292	; 0x1292 <DS1307Write>
     fae:	81 11       	cpse	r24, r1
     fb0:	81 e0       	ldi	r24, 0x01	; 1

	return result;

}
     fb2:	08 95       	ret

00000fb4 <SetMinute>:
 0=failure
 1=success

 ****************************************/

bool SetMinute(uint8_t min) {
     fb4:	38 2f       	mov	r19, r24
	uint8_t temp, result;

	temp = (((min / 10) << 4) & 0x70) | (min % 10);
	result = DS1307Write(0x01, temp);
     fb6:	6a e0       	ldi	r22, 0x0A	; 10
     fb8:	0e 94 38 22 	call	0x4470	; 0x4470 <__udivmodqi4>
     fbc:	28 2f       	mov	r18, r24
     fbe:	22 95       	swap	r18
     fc0:	20 77       	andi	r18, 0x70	; 112
     fc2:	83 2f       	mov	r24, r19
     fc4:	0e 94 38 22 	call	0x4470	; 0x4470 <__udivmodqi4>
     fc8:	29 2b       	or	r18, r25
     fca:	81 e0       	ldi	r24, 0x01	; 1
     fcc:	62 2f       	mov	r22, r18
     fce:	0e 94 49 09 	call	0x1292	; 0x1292 <DS1307Write>
     fd2:	81 11       	cpse	r24, r1
     fd4:	81 e0       	ldi	r24, 0x01	; 1

	return result;

}
     fd6:	08 95       	ret

00000fd8 <SetSecond>:
 0=failure
 1=success

 ****************************************/

bool SetSecond(uint8_t sec) {
     fd8:	38 2f       	mov	r19, r24
	uint8_t temp, result;

	temp = (((sec / 10) << 4) & 0x70) | (sec % 10);
	result = DS1307Write(0x00, temp);
     fda:	6a e0       	ldi	r22, 0x0A	; 10
     fdc:	0e 94 38 22 	call	0x4470	; 0x4470 <__udivmodqi4>
     fe0:	28 2f       	mov	r18, r24
     fe2:	22 95       	swap	r18
     fe4:	20 77       	andi	r18, 0x70	; 112
     fe6:	83 2f       	mov	r24, r19
     fe8:	0e 94 38 22 	call	0x4470	; 0x4470 <__udivmodqi4>
     fec:	29 2b       	or	r18, r25
     fee:	80 e0       	ldi	r24, 0x00	; 0
     ff0:	62 2f       	mov	r22, r18
     ff2:	0e 94 49 09 	call	0x1292	; 0x1292 <DS1307Write>
     ff6:	81 11       	cpse	r24, r1
     ff8:	81 e0       	ldi	r24, 0x01	; 1

	return result;
}
     ffa:	08 95       	ret

00000ffc <ClockInit>:
 0=Failed
 1=Success

 ****************************************/

bool ClockInit() {
     ffc:	0f 93       	push	r16
     ffe:	1f 93       	push	r17
    1000:	df 93       	push	r29
    1002:	cf 93       	push	r28
    1004:	0f 92       	push	r0
    1006:	cd b7       	in	r28, 0x3d	; 61
    1008:	de b7       	in	r29, 0x3e	; 62
	//Initialize I2C Bus
	I2CInit();
    100a:	0e 94 4a 05 	call	0xa94	; 0xa94 <I2CInit>
	usart_printf("\nI2C done, ");
    100e:	00 d0       	rcall	.+0      	; 0x1010 <ClockInit+0x14>
    1010:	8f e4       	ldi	r24, 0x4F	; 79
    1012:	91 e0       	ldi	r25, 0x01	; 1
    1014:	ed b7       	in	r30, 0x3d	; 61
    1016:	fe b7       	in	r31, 0x3e	; 62
    1018:	92 83       	std	Z+2, r25	; 0x02
    101a:	81 83       	std	Z+1, r24	; 0x01
    101c:	0e 94 20 19 	call	0x3240	; 0x3240 <usart_printf>
	//Clear CH bit of RTC
#define CH 7

	uint8_t temp;
	if (!DS1307Read(0x00, &temp))
    1020:	0f 90       	pop	r0
    1022:	0f 90       	pop	r0
    1024:	80 e0       	ldi	r24, 0x00	; 0
    1026:	8e 01       	movw	r16, r28
    1028:	0f 5f       	subi	r16, 0xFF	; 255
    102a:	1f 4f       	sbci	r17, 0xFF	; 255
    102c:	b8 01       	movw	r22, r16
    102e:	0e 94 66 09 	call	0x12cc	; 0x12cc <DS1307Read>
    1032:	88 23       	and	r24, r24
    1034:	e1 f0       	breq	.+56     	; 0x106e <ClockInit+0x72>
		return 0;
	usart_printf("read, ");
    1036:	00 d0       	rcall	.+0      	; 0x1038 <ClockInit+0x3c>
    1038:	8b e5       	ldi	r24, 0x5B	; 91
    103a:	91 e0       	ldi	r25, 0x01	; 1
    103c:	ed b7       	in	r30, 0x3d	; 61
    103e:	fe b7       	in	r31, 0x3e	; 62
    1040:	92 83       	std	Z+2, r25	; 0x02
    1042:	81 83       	std	Z+1, r24	; 0x01
    1044:	0e 94 20 19 	call	0x3240	; 0x3240 <usart_printf>
	//Clear CH Bit
	temp &= (~(1 << CH));
    1048:	89 81       	ldd	r24, Y+1	; 0x01
    104a:	8f 77       	andi	r24, 0x7F	; 127
    104c:	89 83       	std	Y+1, r24	; 0x01
//	if (!DS1307Write(0x00, temp))
//		return 0;
//	usart_printf("write");
//	//Set 12 Hour Mode

	if (!DS1307Read(0x02, &temp))
    104e:	0f 90       	pop	r0
    1050:	0f 90       	pop	r0
    1052:	82 e0       	ldi	r24, 0x02	; 2
    1054:	b8 01       	movw	r22, r16
    1056:	0e 94 66 09 	call	0x12cc	; 0x12cc <DS1307Read>
    105a:	88 23       	and	r24, r24
    105c:	41 f0       	breq	.+16     	; 0x106e <ClockInit+0x72>
		return 0;
	//Set 12Hour BIT
	temp |= (0b00000000);
    105e:	69 81       	ldd	r22, Y+1	; 0x01

	//Write Back to DS1307
	if (!DS1307Write(0x02, temp))
    1060:	82 e0       	ldi	r24, 0x02	; 2
    1062:	0e 94 49 09 	call	0x1292	; 0x1292 <DS1307Write>
    1066:	88 23       	and	r24, r24
    1068:	19 f0       	breq	.+6      	; 0x1070 <ClockInit+0x74>
    106a:	81 e0       	ldi	r24, 0x01	; 1
    106c:	01 c0       	rjmp	.+2      	; 0x1070 <ClockInit+0x74>
    106e:	80 e0       	ldi	r24, 0x00	; 0
		return 0;

	return 1;

}
    1070:	0f 90       	pop	r0
    1072:	cf 91       	pop	r28
    1074:	df 91       	pop	r29
    1076:	1f 91       	pop	r17
    1078:	0f 91       	pop	r16
    107a:	08 95       	ret

0000107c <dht_getdata>:

/*
 * get data from sensor
 */
#if DHT_FLOAT == 1
int8_t dht_getdata(float *temperature, float *humidity) {
    107c:	cf 92       	push	r12
    107e:	df 92       	push	r13
    1080:	ef 92       	push	r14
    1082:	ff 92       	push	r15
    1084:	0f 93       	push	r16
    1086:	1f 93       	push	r17
    1088:	df 93       	push	r29
    108a:	cf 93       	push	r28
    108c:	00 d0       	rcall	.+0      	; 0x108e <dht_getdata+0x12>
    108e:	00 d0       	rcall	.+0      	; 0x1090 <dht_getdata+0x14>
    1090:	0f 92       	push	r0
    1092:	cd b7       	in	r28, 0x3d	; 61
    1094:	de b7       	in	r29, 0x3e	; 62
    1096:	7c 01       	movw	r14, r24
    1098:	6b 01       	movw	r12, r22
int8_t dht_getdata(int8_t *temperature, int8_t *humidity) {
#endif
	uint8_t bits[5];
	uint8_t i,j = 0;

	memset(bits, 0, sizeof(bits));
    109a:	fe 01       	movw	r30, r28
    109c:	31 96       	adiw	r30, 0x01	; 1
    109e:	85 e0       	ldi	r24, 0x05	; 5
    10a0:	df 01       	movw	r26, r30
    10a2:	1d 92       	st	X+, r1
    10a4:	8a 95       	dec	r24
    10a6:	e9 f7       	brne	.-6      	; 0x10a2 <dht_getdata+0x26>

	//reset port
	DHT_DDR |= (1<<DHT_INPUTPIN); //output
    10a8:	12 9a       	sbi	0x02, 2	; 2
	DHT_PORT |= (1<<DHT_INPUTPIN); //high
    10aa:	1a 9a       	sbi	0x03, 2	; 3
    10ac:	88 ee       	ldi	r24, 0xE8	; 232
    10ae:	93 e0       	ldi	r25, 0x03	; 3
    milliseconds can be achieved.
 */
void
_delay_loop_2(uint16_t __count)
{
	__asm__ volatile (
    10b0:	20 e9       	ldi	r18, 0x90	; 144
    10b2:	31 e0       	ldi	r19, 0x01	; 1
    10b4:	f9 01       	movw	r30, r18
    10b6:	31 97       	sbiw	r30, 0x01	; 1
    10b8:	f1 f7       	brne	.-4      	; 0x10b6 <dht_getdata+0x3a>
		__ticks = (uint16_t) (__ms * 10.0);
		while(__ticks)
		{
			// wait 1/10 ms
			_delay_loop_2(((F_CPU) / 4e3) / 10);
			__ticks --;
    10ba:	01 97       	sbiw	r24, 0x01	; 1
		__ticks = 1;
	else if (__tmp > 65535)
	{
		//	__ticks = requested delay in 1/10 ms
		__ticks = (uint16_t) (__ms * 10.0);
		while(__ticks)
    10bc:	d9 f7       	brne	.-10     	; 0x10b4 <dht_getdata+0x38>
	_delay_ms(100);

	//send request
	DHT_PORT &= ~(1<<DHT_INPUTPIN); //low
    10be:	1a 98       	cbi	0x03, 2	; 3
    10c0:	80 ed       	ldi	r24, 0xD0	; 208
    10c2:	97 e0       	ldi	r25, 0x07	; 7
    10c4:	01 97       	sbiw	r24, 0x01	; 1
    10c6:	f1 f7       	brne	.-4      	; 0x10c4 <dht_getdata+0x48>
	#if DHT_TYPE == DHT_DHT11
	_delay_ms(18);
	#elif DHT_TYPE == DHT_DHT22
	_delay_us(500);
	#endif
	DHT_PORT |= (1<<DHT_INPUTPIN); //high
    10c8:	1a 9a       	sbi	0x03, 2	; 3
	DHT_DDR &= ~(1<<DHT_INPUTPIN); //input
    10ca:	12 98       	cbi	0x02, 2	; 2
    can be achieved.
*/
void
_delay_loop_1(uint8_t __count)
{
	__asm__ volatile (
    10cc:	85 ed       	ldi	r24, 0xD5	; 213
    10ce:	8a 95       	dec	r24
    10d0:	f1 f7       	brne	.-4      	; 0x10ce <dht_getdata+0x52>
	_delay_us(40);

	//check start condition 1
	if((DHT_PIN & (1<<DHT_INPUTPIN))) {
    10d2:	0a 99       	sbic	0x01, 2	; 1
    10d4:	98 c0       	rjmp	.+304    	; 0x1206 <__stack+0x107>
    milliseconds can be achieved.
 */
void
_delay_loop_2(uint16_t __count)
{
	__asm__ volatile (
    10d6:	20 e4       	ldi	r18, 0x40	; 64
    10d8:	31 e0       	ldi	r19, 0x01	; 1
    10da:	c9 01       	movw	r24, r18
    10dc:	01 97       	sbiw	r24, 0x01	; 1
    10de:	f1 f7       	brne	.-4      	; 0x10dc <dht_getdata+0x60>
		return -1;
	}
	_delay_us(80);
	//check start condition 2
	if(!(DHT_PIN & (1<<DHT_INPUTPIN))) {
    10e0:	0a 9b       	sbis	0x01, 2	; 1
    10e2:	91 c0       	rjmp	.+290    	; 0x1206 <__stack+0x107>
    10e4:	c9 01       	movw	r24, r18
    10e6:	01 97       	sbiw	r24, 0x01	; 1
    10e8:	f1 f7       	brne	.-4      	; 0x10e6 <dht_getdata+0x6a>
    10ea:	fe 01       	movw	r30, r28
    10ec:	31 96       	adiw	r30, 0x01	; 1
    can be achieved.
*/
void
_delay_loop_1(uint8_t __count)
{
	__asm__ volatile (
    10ee:	50 ea       	ldi	r21, 0xA0	; 160
					return -1; //timeout
				}
			}
			_delay_us(30);
			if(DHT_PIN & (1<<DHT_INPUTPIN)) //if input is high after 30 us, get result
				result |= (1<<(7-i));
    10f0:	a1 e0       	ldi	r26, 0x01	; 1
    10f2:	b0 e0       	ldi	r27, 0x00	; 0
	}
	_delay_us(80);

	//read the data
	uint16_t timeoutcounter = 0;
	for (j=0; j<5; j++) { //read 5 byte
    10f4:	be 01       	movw	r22, r28
    10f6:	6a 5f       	subi	r22, 0xFA	; 250
    10f8:	7f 4f       	sbci	r23, 0xFF	; 255
    10fa:	2a c0       	rjmp	.+84     	; 0x1150 <__stack+0x51>
		uint8_t result=0;
		for(i=0; i<8; i++) {//read every bit
			timeoutcounter = 0;
			while(!(DHT_PIN & (1<<DHT_INPUTPIN))) { //wait for an high input (non blocking)
				timeoutcounter++;
    10fc:	01 96       	adiw	r24, 0x01	; 1
				if(timeoutcounter > DHT_TIMEOUT) {
    10fe:	89 3c       	cpi	r24, 0xC9	; 201
    1100:	91 05       	cpc	r25, r1
    1102:	19 f4       	brne	.+6      	; 0x110a <__stack+0xb>
    1104:	80 c0       	rjmp	.+256    	; 0x1206 <__stack+0x107>
    1106:	80 e0       	ldi	r24, 0x00	; 0
    1108:	90 e0       	ldi	r25, 0x00	; 0
	uint16_t timeoutcounter = 0;
	for (j=0; j<5; j++) { //read 5 byte
		uint8_t result=0;
		for(i=0; i<8; i++) {//read every bit
			timeoutcounter = 0;
			while(!(DHT_PIN & (1<<DHT_INPUTPIN))) { //wait for an high input (non blocking)
    110a:	0a 9b       	sbis	0x01, 2	; 1
    110c:	f7 cf       	rjmp	.-18     	; 0x10fc <dht_getdata+0x80>
    110e:	85 2f       	mov	r24, r21
    1110:	8a 95       	dec	r24
    1112:	f1 f7       	brne	.-4      	; 0x1110 <__stack+0x11>
				if(timeoutcounter > DHT_TIMEOUT) {
					return -1; //timeout
				}
			}
			_delay_us(30);
			if(DHT_PIN & (1<<DHT_INPUTPIN)) //if input is high after 30 us, get result
    1114:	0a 9b       	sbis	0x01, 2	; 1
    1116:	08 c0       	rjmp	.+16     	; 0x1128 <__stack+0x29>
				result |= (1<<(7-i));
    1118:	cd 01       	movw	r24, r26
    111a:	02 2e       	mov	r0, r18
    111c:	02 c0       	rjmp	.+4      	; 0x1122 <__stack+0x23>
    111e:	88 0f       	add	r24, r24
    1120:	99 1f       	adc	r25, r25
    1122:	0a 94       	dec	r0
    1124:	e2 f7       	brpl	.-8      	; 0x111e <__stack+0x1f>
    1126:	48 2b       	or	r20, r24
    1128:	80 e0       	ldi	r24, 0x00	; 0
    112a:	90 e0       	ldi	r25, 0x00	; 0
    112c:	05 c0       	rjmp	.+10     	; 0x1138 <__stack+0x39>
			timeoutcounter = 0;
			while(DHT_PIN & (1<<DHT_INPUTPIN)) { //wait until input get low (non blocking)
				timeoutcounter++;
    112e:	01 96       	adiw	r24, 0x01	; 1
				if(timeoutcounter > DHT_TIMEOUT) {
    1130:	89 3c       	cpi	r24, 0xC9	; 201
    1132:	91 05       	cpc	r25, r1
    1134:	09 f4       	brne	.+2      	; 0x1138 <__stack+0x39>
    1136:	67 c0       	rjmp	.+206    	; 0x1206 <__stack+0x107>
			}
			_delay_us(30);
			if(DHT_PIN & (1<<DHT_INPUTPIN)) //if input is high after 30 us, get result
				result |= (1<<(7-i));
			timeoutcounter = 0;
			while(DHT_PIN & (1<<DHT_INPUTPIN)) { //wait until input get low (non blocking)
    1138:	0a 99       	sbic	0x01, 2	; 1
    113a:	f9 cf       	rjmp	.-14     	; 0x112e <__stack+0x2f>
    113c:	21 50       	subi	r18, 0x01	; 1
    113e:	30 40       	sbci	r19, 0x00	; 0

	//read the data
	uint16_t timeoutcounter = 0;
	for (j=0; j<5; j++) { //read 5 byte
		uint8_t result=0;
		for(i=0; i<8; i++) {//read every bit
    1140:	8f ef       	ldi	r24, 0xFF	; 255
    1142:	2f 3f       	cpi	r18, 0xFF	; 255
    1144:	38 07       	cpc	r19, r24
    1146:	f9 f6       	brne	.-66     	; 0x1106 <__stack+0x7>
				if(timeoutcounter > DHT_TIMEOUT) {
					return -1; //timeout
				}
			}
		}
		bits[j] = result;
    1148:	41 93       	st	Z+, r20
	}
	_delay_us(80);

	//read the data
	uint16_t timeoutcounter = 0;
	for (j=0; j<5; j++) { //read 5 byte
    114a:	e6 17       	cp	r30, r22
    114c:	f7 07       	cpc	r31, r23
    114e:	21 f0       	breq	.+8      	; 0x1158 <__stack+0x59>
    1150:	40 e0       	ldi	r20, 0x00	; 0
    1152:	27 e0       	ldi	r18, 0x07	; 7
    1154:	30 e0       	ldi	r19, 0x00	; 0
    1156:	d7 cf       	rjmp	.-82     	; 0x1106 <__stack+0x7>
		}
		bits[j] = result;
	}

	//reset port
	DHT_DDR |= (1<<DHT_INPUTPIN); //output
    1158:	12 9a       	sbi	0x02, 2	; 2
	DHT_PORT |= (1<<DHT_INPUTPIN); //low
    115a:	1a 9a       	sbi	0x03, 2	; 3
    115c:	88 ee       	ldi	r24, 0xE8	; 232
    115e:	93 e0       	ldi	r25, 0x03	; 3
    milliseconds can be achieved.
 */
void
_delay_loop_2(uint16_t __count)
{
	__asm__ volatile (
    1160:	20 e9       	ldi	r18, 0x90	; 144
    1162:	31 e0       	ldi	r19, 0x01	; 1
    1164:	f9 01       	movw	r30, r18
    1166:	31 97       	sbiw	r30, 0x01	; 1
    1168:	f1 f7       	brne	.-4      	; 0x1166 <__stack+0x67>
		{
			// wait 1/10 ms
			_delay_loop_2(((F_CPU) / 4e3) / 10);
			__ticks --;
    116a:	01 97       	sbiw	r24, 0x01	; 1
		__ticks = 1;
	else if (__tmp > 65535)
	{
		//	__ticks = requested delay in 1/10 ms
		__ticks = (uint16_t) (__ms * 10.0);
		while(__ticks)
    116c:	d9 f7       	brne	.-10     	; 0x1164 <__stack+0x65>
	_delay_ms(100);

	//check checksum
	if ((uint8_t)(bits[0] + bits[1] + bits[2] + bits[3]) == bits[4]) {
    116e:	19 81       	ldd	r17, Y+1	; 0x01
    1170:	0a 81       	ldd	r16, Y+2	; 0x02
    1172:	2b 81       	ldd	r18, Y+3	; 0x03
    1174:	6c 81       	ldd	r22, Y+4	; 0x04
    1176:	80 2f       	mov	r24, r16
    1178:	81 0f       	add	r24, r17
    117a:	82 0f       	add	r24, r18
    117c:	86 0f       	add	r24, r22
    117e:	9d 81       	ldd	r25, Y+5	; 0x05
    1180:	89 17       	cp	r24, r25
    1182:	09 f0       	breq	.+2      	; 0x1186 <__stack+0x87>
    1184:	40 c0       	rjmp	.+128    	; 0x1206 <__stack+0x107>
		#if DHT_TYPE == DHT_DHT11
		*temperature = bits[2];
		*humidity = bits[0];
		#elif DHT_TYPE == DHT_DHT22
		uint16_t rawhumidity = bits[0]<<8 | bits[1];
		uint16_t rawtemperature = bits[2]<<8 | bits[3];
    1186:	92 2f       	mov	r25, r18
    1188:	80 e0       	ldi	r24, 0x00	; 0
    118a:	70 e0       	ldi	r23, 0x00	; 0
    118c:	68 2b       	or	r22, r24
    118e:	79 2b       	or	r23, r25
		if(rawtemperature & 0x8000) {
    1190:	77 ff       	sbrs	r23, 7
    1192:	12 c0       	rjmp	.+36     	; 0x11b8 <__stack+0xb9>
			*temperature = (float)((rawtemperature & 0x7FFF) / 10.0) * -1.0;
    1194:	7f 77       	andi	r23, 0x7F	; 127
    1196:	80 e0       	ldi	r24, 0x00	; 0
    1198:	90 e0       	ldi	r25, 0x00	; 0
    119a:	0e 94 dc 02 	call	0x5b8	; 0x5b8 <__floatunsisf>
    119e:	20 e0       	ldi	r18, 0x00	; 0
    11a0:	30 e0       	ldi	r19, 0x00	; 0
    11a2:	40 e2       	ldi	r20, 0x20	; 32
    11a4:	51 ec       	ldi	r21, 0xC1	; 193
    11a6:	0e 94 00 02 	call	0x400	; 0x400 <__divsf3>
    11aa:	d7 01       	movw	r26, r14
    11ac:	6d 93       	st	X+, r22
    11ae:	7d 93       	st	X+, r23
    11b0:	8d 93       	st	X+, r24
    11b2:	9c 93       	st	X, r25
    11b4:	13 97       	sbiw	r26, 0x03	; 3
    11b6:	0f c0       	rjmp	.+30     	; 0x11d6 <__stack+0xd7>
		} else {
			*temperature = (float)(rawtemperature)/10.0;
    11b8:	80 e0       	ldi	r24, 0x00	; 0
    11ba:	90 e0       	ldi	r25, 0x00	; 0
    11bc:	0e 94 dc 02 	call	0x5b8	; 0x5b8 <__floatunsisf>
    11c0:	20 e0       	ldi	r18, 0x00	; 0
    11c2:	30 e0       	ldi	r19, 0x00	; 0
    11c4:	40 e2       	ldi	r20, 0x20	; 32
    11c6:	51 e4       	ldi	r21, 0x41	; 65
    11c8:	0e 94 00 02 	call	0x400	; 0x400 <__divsf3>
    11cc:	f7 01       	movw	r30, r14
    11ce:	60 83       	st	Z, r22
    11d0:	71 83       	std	Z+1, r23	; 0x01
    11d2:	82 83       	std	Z+2, r24	; 0x02
    11d4:	93 83       	std	Z+3, r25	; 0x03
		}
		*humidity = (float)(rawhumidity)/10.0;
    11d6:	71 2f       	mov	r23, r17
    11d8:	60 e0       	ldi	r22, 0x00	; 0
    11da:	20 2f       	mov	r18, r16
    11dc:	30 e0       	ldi	r19, 0x00	; 0
    11de:	62 2b       	or	r22, r18
    11e0:	73 2b       	or	r23, r19
    11e2:	80 e0       	ldi	r24, 0x00	; 0
    11e4:	90 e0       	ldi	r25, 0x00	; 0
    11e6:	0e 94 dc 02 	call	0x5b8	; 0x5b8 <__floatunsisf>
    11ea:	20 e0       	ldi	r18, 0x00	; 0
    11ec:	30 e0       	ldi	r19, 0x00	; 0
    11ee:	40 e2       	ldi	r20, 0x20	; 32
    11f0:	51 e4       	ldi	r21, 0x41	; 65
    11f2:	0e 94 00 02 	call	0x400	; 0x400 <__divsf3>
    11f6:	d6 01       	movw	r26, r12
    11f8:	6d 93       	st	X+, r22
    11fa:	7d 93       	st	X+, r23
    11fc:	8d 93       	st	X+, r24
    11fe:	9c 93       	st	X, r25
    1200:	13 97       	sbiw	r26, 0x03	; 3
    1202:	80 e0       	ldi	r24, 0x00	; 0
    1204:	01 c0       	rjmp	.+2      	; 0x1208 <__stack+0x109>
		#endif
		return 0;
    1206:	8f ef       	ldi	r24, 0xFF	; 255
	}

	return -1;
}
    1208:	0f 90       	pop	r0
    120a:	0f 90       	pop	r0
    120c:	0f 90       	pop	r0
    120e:	0f 90       	pop	r0
    1210:	0f 90       	pop	r0
    1212:	cf 91       	pop	r28
    1214:	df 91       	pop	r29
    1216:	1f 91       	pop	r17
    1218:	0f 91       	pop	r16
    121a:	ff 90       	pop	r15
    121c:	ef 90       	pop	r14
    121e:	df 90       	pop	r13
    1220:	cf 90       	pop	r12
    1222:	08 95       	ret

00001224 <dht_gettemperaturehumidity>:
#if DHT_FLOAT == 1
int8_t dht_gettemperaturehumidity(float *temperature, float *humidity) {
#elif DHT_FLOAT == 0
	int8_t dht_gettemperaturehumidity(int8_t *temperature, int8_t *humidity) {
#endif
	return dht_getdata(temperature, humidity);
    1224:	0e 94 3e 08 	call	0x107c	; 0x107c <dht_getdata>
}
    1228:	08 95       	ret

0000122a <dht_gethumidity>:

/*
 * get humidity
 */
#if DHT_FLOAT == 1
int8_t dht_gethumidity(float *humidity) {
    122a:	df 93       	push	r29
    122c:	cf 93       	push	r28
    122e:	00 d0       	rcall	.+0      	; 0x1230 <dht_gethumidity+0x6>
    1230:	00 d0       	rcall	.+0      	; 0x1232 <dht_gethumidity+0x8>
    1232:	cd b7       	in	r28, 0x3d	; 61
    1234:	de b7       	in	r29, 0x3e	; 62
    1236:	bc 01       	movw	r22, r24
	float temperature = 0;
    1238:	80 e0       	ldi	r24, 0x00	; 0
    123a:	90 e0       	ldi	r25, 0x00	; 0
    123c:	a0 e0       	ldi	r26, 0x00	; 0
    123e:	b0 e0       	ldi	r27, 0x00	; 0
    1240:	89 83       	std	Y+1, r24	; 0x01
    1242:	9a 83       	std	Y+2, r25	; 0x02
    1244:	ab 83       	std	Y+3, r26	; 0x03
    1246:	bc 83       	std	Y+4, r27	; 0x04
#elif DHT_FLOAT == 0
int8_t dht_gethumidity(int8_t *humidity) {
	int8_t temperature = 0;
#endif
	return dht_getdata(&temperature, humidity);
    1248:	ce 01       	movw	r24, r28
    124a:	01 96       	adiw	r24, 0x01	; 1
    124c:	0e 94 3e 08 	call	0x107c	; 0x107c <dht_getdata>
}
    1250:	0f 90       	pop	r0
    1252:	0f 90       	pop	r0
    1254:	0f 90       	pop	r0
    1256:	0f 90       	pop	r0
    1258:	cf 91       	pop	r28
    125a:	df 91       	pop	r29
    125c:	08 95       	ret

0000125e <dht_gettemperature>:

/*
 * get temperature
 */
#if DHT_FLOAT == 1
int8_t dht_gettemperature(float *temperature) {
    125e:	df 93       	push	r29
    1260:	cf 93       	push	r28
    1262:	00 d0       	rcall	.+0      	; 0x1264 <dht_gettemperature+0x6>
    1264:	00 d0       	rcall	.+0      	; 0x1266 <dht_gettemperature+0x8>
    1266:	cd b7       	in	r28, 0x3d	; 61
    1268:	de b7       	in	r29, 0x3e	; 62
	float humidity = 0;
    126a:	20 e0       	ldi	r18, 0x00	; 0
    126c:	30 e0       	ldi	r19, 0x00	; 0
    126e:	40 e0       	ldi	r20, 0x00	; 0
    1270:	50 e0       	ldi	r21, 0x00	; 0
    1272:	29 83       	std	Y+1, r18	; 0x01
    1274:	3a 83       	std	Y+2, r19	; 0x02
    1276:	4b 83       	std	Y+3, r20	; 0x03
    1278:	5c 83       	std	Y+4, r21	; 0x04
#elif DHT_FLOAT == 0
int8_t dht_gettemperature(int8_t *temperature) {
	int8_t humidity = 0;
#endif
	return dht_getdata(temperature, &humidity);
    127a:	be 01       	movw	r22, r28
    127c:	6f 5f       	subi	r22, 0xFF	; 255
    127e:	7f 4f       	sbci	r23, 0xFF	; 255
    1280:	0e 94 3e 08 	call	0x107c	; 0x107c <dht_getdata>
}
    1284:	0f 90       	pop	r0
    1286:	0f 90       	pop	r0
    1288:	0f 90       	pop	r0
    128a:	0f 90       	pop	r0
    128c:	cf 91       	pop	r28
    128e:	df 91       	pop	r29
    1290:	08 95       	ret

00001292 <DS1307Write>:
0= Failure
1= Success
***************************************************/

uint8_t DS1307Write(uint8_t address,uint8_t data)
{
    1292:	0f 93       	push	r16
    1294:	1f 93       	push	r17
    1296:	18 2f       	mov	r17, r24
    1298:	06 2f       	mov	r16, r22
	uint8_t res;	//result
	
	//Start
	I2CStart();
    129a:	0e 94 5e 05 	call	0xabc	; 0xabc <I2CStart>
	
	//SLA+W
	res=I2CWriteByte(0b11010000);	//DS1307 address + W
    129e:	80 ed       	ldi	r24, 0xD0	; 208
    12a0:	0e 94 6e 05 	call	0xadc	; 0xadc <I2CWriteByte>
	
	//Error
	if(!res)	return FALSE;
    12a4:	88 23       	and	r24, r24
    12a6:	71 f0       	breq	.+28     	; 0x12c4 <DS1307Write+0x32>
	
	//Now send the address of required register
	res=I2CWriteByte(address);
    12a8:	81 2f       	mov	r24, r17
    12aa:	0e 94 6e 05 	call	0xadc	; 0xadc <I2CWriteByte>
	
	//Error
	if(!res)	return FALSE;
    12ae:	88 23       	and	r24, r24
    12b0:	49 f0       	breq	.+18     	; 0x12c4 <DS1307Write+0x32>
	
	//Now write the value
	res=I2CWriteByte(data);
    12b2:	80 2f       	mov	r24, r16
    12b4:	0e 94 6e 05 	call	0xadc	; 0xadc <I2CWriteByte>
	
	//Error
	if(!res)	return FALSE;
    12b8:	88 23       	and	r24, r24
    12ba:	21 f0       	breq	.+8      	; 0x12c4 <DS1307Write+0x32>
	
	//STOP
	I2CStop();
    12bc:	0e 94 66 05 	call	0xacc	; 0xacc <I2CStop>
    12c0:	81 e0       	ldi	r24, 0x01	; 1
    12c2:	01 c0       	rjmp	.+2      	; 0x12c6 <DS1307Write+0x34>
	
	return TRUE;
    12c4:	80 e0       	ldi	r24, 0x00	; 0
}
    12c6:	1f 91       	pop	r17
    12c8:	0f 91       	pop	r16
    12ca:	08 95       	ret

000012cc <DS1307Read>:
0= Failure
1= Success
***************************************************/

uint8_t DS1307Read(uint8_t address,uint8_t *data)
{
    12cc:	1f 93       	push	r17
    12ce:	cf 93       	push	r28
    12d0:	df 93       	push	r29
    12d2:	18 2f       	mov	r17, r24
    12d4:	eb 01       	movw	r28, r22
	uint8_t res;	//result
	
	//Start
	I2CStart();
    12d6:	0e 94 5e 05 	call	0xabc	; 0xabc <I2CStart>
	
	//SLA+W (for dummy write to set register pointer)
	res=I2CWriteByte(0b11010000);	//DS1307 address + W
    12da:	80 ed       	ldi	r24, 0xD0	; 208
    12dc:	0e 94 6e 05 	call	0xadc	; 0xadc <I2CWriteByte>
	
	//Error
	if(!res)	return FALSE;
    12e0:	88 23       	and	r24, r24
    12e2:	b1 f0       	breq	.+44     	; 0x1310 <DS1307Read+0x44>
	
	//Now send the address of required register
	res=I2CWriteByte(address);
    12e4:	81 2f       	mov	r24, r17
    12e6:	0e 94 6e 05 	call	0xadc	; 0xadc <I2CWriteByte>
	
	//Error
	if(!res)	return FALSE;
    12ea:	88 23       	and	r24, r24
    12ec:	89 f0       	breq	.+34     	; 0x1310 <DS1307Read+0x44>
	
	//Repeat Start
	I2CStart();
    12ee:	0e 94 5e 05 	call	0xabc	; 0xabc <I2CStart>
	
	//SLA + R
	res=I2CWriteByte(0b11010001);	//DS1307 Address + R
    12f2:	81 ed       	ldi	r24, 0xD1	; 209
    12f4:	0e 94 6e 05 	call	0xadc	; 0xadc <I2CWriteByte>
	
	//Error
	if(!res)	return FALSE;
    12f8:	88 23       	and	r24, r24
    12fa:	51 f0       	breq	.+20     	; 0x1310 <DS1307Read+0x44>
	
	//Now read the value with NACK
	res=I2CReadByte(data,0);
    12fc:	ce 01       	movw	r24, r28
    12fe:	60 e0       	ldi	r22, 0x00	; 0
    1300:	0e 94 8a 05 	call	0xb14	; 0xb14 <I2CReadByte>
	
	//Error
	if(!res)	return FALSE;
    1304:	88 23       	and	r24, r24
    1306:	21 f0       	breq	.+8      	; 0x1310 <DS1307Read+0x44>
	
	//STOP
	I2CStop();
    1308:	0e 94 66 05 	call	0xacc	; 0xacc <I2CStop>
    130c:	81 e0       	ldi	r24, 0x01	; 1
    130e:	01 c0       	rjmp	.+2      	; 0x1312 <DS1307Read+0x46>
	
	return TRUE;
    1310:	80 e0       	ldi	r24, 0x00	; 0
}
    1312:	df 91       	pop	r29
    1314:	cf 91       	pop	r28
    1316:	1f 91       	pop	r17
    1318:	08 95       	ret

0000131a <init_IO>:
	sei();
}

//-----------------IO------------------------------------------------
void init_IO() {
	DDRA |= (1 << LED_DEB); //set as output
    131a:	d7 9a       	sbi	0x1a, 7	; 26
	DDRE |= (1 << LED_STB); //| (1 << PANEL_LED);
    131c:	14 9a       	sbi	0x02, 4	; 2
	DDRB |= (1 << NIXIE_LED_RED) | (1 << NIXIE_LED_GREEN)
    131e:	87 b3       	in	r24, 0x17	; 23
    1320:	80 6f       	ori	r24, 0xF0	; 240
    1322:	87 bb       	out	0x17, r24	; 23
			| (1 << NIXIE_LED_BLUE) | (1 << DISP_BACKLIGHT_PIN);
	DDRD |= (1 << NIXIE_SUPPLY_A) | (1 << NIXIE_SUPPLY_B);
    1324:	81 b3       	in	r24, 0x11	; 17
    1326:	80 66       	ori	r24, 0x60	; 96
    1328:	81 bb       	out	0x11, r24	; 17
	DDRF |= (1 << WIFI_RESET_PIN) | (1 << LED_RED) | (1 << LED_YELLOW);
    132a:	e1 e6       	ldi	r30, 0x61	; 97
    132c:	f0 e0       	ldi	r31, 0x00	; 0
    132e:	80 81       	ld	r24, Z
    1330:	83 61       	ori	r24, 0x13	; 19
    1332:	80 83       	st	Z, r24
	//WIFI_DISABLE;
	//DDRE |= (1 << TOUCH_BUTTON_1_PIN) | (1 << TOUCH_BUTTON_2_PIN);
}
    1334:	08 95       	ret

00001336 <timers_init>:

void timers_init(void) {

	TCCR2 |= (1 << CS22);
    1336:	85 b5       	in	r24, 0x25	; 37
    1338:	84 60       	ori	r24, 0x04	; 4
    133a:	85 bd       	out	0x25, r24	; 37

	ICR3 = 0x0155;
    133c:	85 e5       	ldi	r24, 0x55	; 85
    133e:	91 e0       	ldi	r25, 0x01	; 1
    1340:	90 93 81 00 	sts	0x0081, r25
    1344:	80 93 80 00 	sts	0x0080, r24
	TCCR3A |= (1 << WGM31) | (1 << WGM30) | (1 << COM3B1);
    1348:	eb e8       	ldi	r30, 0x8B	; 139
    134a:	f0 e0       	ldi	r31, 0x00	; 0
    134c:	80 81       	ld	r24, Z
    134e:	83 62       	ori	r24, 0x23	; 35
    1350:	80 83       	st	Z, r24
	TCCR3B |= (1 << WGM32) | (1 << CS32); //|(1<<CS31);
    1352:	ea e8       	ldi	r30, 0x8A	; 138
    1354:	f0 e0       	ldi	r31, 0x00	; 0
    1356:	80 81       	ld	r24, Z
    1358:	8c 60       	ori	r24, 0x0C	; 12
    135a:	80 83       	st	Z, r24

}
    135c:	08 95       	ret

0000135e <timers_rgb_init>:

void timers_rgb_init(void) {
	TCCR1A |= (1 << WGM10) | (1 << COM1A1) | (1 << COM1B1) | (1 << COM1C1);
    135e:	8f b5       	in	r24, 0x2f	; 47
    1360:	89 6a       	ori	r24, 0xA9	; 169
    1362:	8f bd       	out	0x2f, r24	; 47
	TCCR1B |= (1 << WGM12) | (1 << CS11); //|(1<<CS31);
    1364:	8e b5       	in	r24, 0x2e	; 46
    1366:	8a 60       	ori	r24, 0x0A	; 10
    1368:	8e bd       	out	0x2e, r24	; 46
}
    136a:	08 95       	ret

0000136c <timers_lcdlight_init>:

void timers_lcdlight_init(void) {
	TCCR0 |= (1 << CS00) | (1 << WGM01) | (1 << WGM00)
    136c:	83 b7       	in	r24, 0x33	; 51
    136e:	89 66       	ori	r24, 0x69	; 105
    1370:	83 bf       	out	0x33, r24	; 51
			| (1 << COM01);
}
    1372:	08 95       	ret

00001374 <str2int>:
	lcd_puts(lcd_buff);
	va_end(args);
	free(lcd_buff);
}

uint8_t str2int(const char* str, uint8_t len) {
    1374:	fc 01       	movw	r30, r24
    1376:	20 e0       	ldi	r18, 0x00	; 0
    1378:	90 e0       	ldi	r25, 0x00	; 0
	uint8_t i;
	uint8_t ret = 0;
	for (i = 0; i < len; ++i) {
		ret = ret * 10 + (str[i] - '0');
    137a:	3a e0       	ldi	r19, 0x0A	; 10
    137c:	07 c0       	rjmp	.+14     	; 0x138c <str2int+0x18>
    137e:	93 9f       	mul	r25, r19
    1380:	80 2d       	mov	r24, r0
    1382:	11 24       	eor	r1, r1
    1384:	91 91       	ld	r25, Z+
    1386:	90 53       	subi	r25, 0x30	; 48
    1388:	98 0f       	add	r25, r24
}

uint8_t str2int(const char* str, uint8_t len) {
	uint8_t i;
	uint8_t ret = 0;
	for (i = 0; i < len; ++i) {
    138a:	2f 5f       	subi	r18, 0xFF	; 255
    138c:	26 17       	cp	r18, r22
    138e:	b8 f3       	brcs	.-18     	; 0x137e <str2int+0xa>
		ret = ret * 10 + (str[i] - '0');
	}
	return ret;
}
    1390:	89 2f       	mov	r24, r25
    1392:	08 95       	ret

00001394 <RemoveSpaces>:

void RemoveSpaces(char* source) {
    1394:	dc 01       	movw	r26, r24
    1396:	fc 01       	movw	r30, r24
    1398:	05 c0       	rjmp	.+10     	; 0x13a4 <RemoveSpaces+0x10>
	char* i = source;
	char* j = source;
	while (*j != 0) {
		*i = *j++;
    139a:	8c 93       	st	X, r24
		if (*i != ' ')
    139c:	80 32       	cpi	r24, 0x20	; 32
    139e:	09 f0       	breq	.+2      	; 0x13a2 <RemoveSpaces+0xe>
			i++;
    13a0:	11 96       	adiw	r26, 0x01	; 1

void RemoveSpaces(char* source) {
	char* i = source;
	char* j = source;
	while (*j != 0) {
		*i = *j++;
    13a2:	31 96       	adiw	r30, 0x01	; 1
}

void RemoveSpaces(char* source) {
	char* i = source;
	char* j = source;
	while (*j != 0) {
    13a4:	80 81       	ld	r24, Z
    13a6:	88 23       	and	r24, r24
    13a8:	c1 f7       	brne	.-16     	; 0x139a <RemoveSpaces+0x6>
		*i = *j++;
		if (*i != ' ')
			i++;
	}
	*i = 0;
    13aa:	1c 92       	st	X, r1
}
    13ac:	08 95       	ret

000013ae <init_ADC>:
}

//---------------ADC------------------------------------------------
void init_ADC(void) {
	// For Aref=5V
	ADMUX |= (1 << REFS0) | (1 << ADLAR);
    13ae:	87 b1       	in	r24, 0x07	; 7
    13b0:	80 66       	ori	r24, 0x60	; 96
    13b2:	87 b9       	out	0x07, r24	; 7
	//Prescaler div factor =64  8MHZ/64 = 125KHz
	ADCSRA |= (1 << ADPS0) | (1 << ADPS1);
    13b4:	86 b1       	in	r24, 0x06	; 6
    13b6:	83 60       	ori	r24, 0x03	; 3
    13b8:	86 b9       	out	0x06, r24	; 6
	// ADC Enable
	ADCSRA |= (1 << ADEN);
    13ba:	37 9a       	sbi	0x06, 7	; 6
}
    13bc:	08 95       	ret

000013be <Read_ADC>:

uint16_t Read_ADC(uint8_t channel) {
	ADMUX = (ADMUX & 0b11110000) | channel; // ADC csatorna kivalasztasa
    13be:	97 b1       	in	r25, 0x07	; 7
    13c0:	90 7f       	andi	r25, 0xF0	; 240
    13c2:	98 2b       	or	r25, r24
    13c4:	97 b9       	out	0x07, r25	; 7
	ADCSRA |= (1 << ADSC); // ADC konverzio elinditasa
    13c6:	36 9a       	sbi	0x06, 6	; 6
	while (ADCSRA & (1 << ADSC))
    13c8:	36 99       	sbic	0x06, 6	; 6
    13ca:	fe cf       	rjmp	.-4      	; 0x13c8 <Read_ADC+0xa>
		; // varas az atalakitasra
	ADCSRA |= (1 << ADSC); // konverzi elindts
    13cc:	36 9a       	sbi	0x06, 6	; 6
	while (ADCSRA & (1 << ADSC))
    13ce:	36 99       	sbic	0x06, 6	; 6
    13d0:	fe cf       	rjmp	.-4      	; 0x13ce <Read_ADC+0x10>
		;
	return (ADCH);
    13d2:	85 b1       	in	r24, 0x05	; 5
}
    13d4:	90 e0       	ldi	r25, 0x00	; 0
    13d6:	08 95       	ret

000013d8 <freeRam>:
	t->day = GetDate();
	t->mounth = GetMonth();
	t->year = 20 + GetYear();
}

void freeRam() {
    13d8:	df 93       	push	r29
    13da:	cf 93       	push	r28
    13dc:	00 d0       	rcall	.+0      	; 0x13de <freeRam+0x6>
    13de:	cd b7       	in	r28, 0x3d	; 61
    13e0:	de b7       	in	r29, 0x3e	; 62
	extern int __heap_start, *__brkval;
	int v;
	usart_printf("\nRAM %d",
    13e2:	80 91 d9 09 	lds	r24, 0x09D9
    13e6:	90 91 da 09 	lds	r25, 0x09DA
    13ea:	00 97       	sbiw	r24, 0x00	; 0
    13ec:	11 f0       	breq	.+4      	; 0x13f2 <freeRam+0x1a>
    13ee:	9c 01       	movw	r18, r24
    13f0:	02 c0       	rjmp	.+4      	; 0x13f6 <freeRam+0x1e>
    13f2:	2f ed       	ldi	r18, 0xDF	; 223
    13f4:	39 e0       	ldi	r19, 0x09	; 9
    13f6:	00 d0       	rcall	.+0      	; 0x13f8 <freeRam+0x20>
    13f8:	00 d0       	rcall	.+0      	; 0x13fa <freeRam+0x22>
    13fa:	82 e6       	ldi	r24, 0x62	; 98
    13fc:	91 e0       	ldi	r25, 0x01	; 1
    13fe:	ed b7       	in	r30, 0x3d	; 61
    1400:	fe b7       	in	r31, 0x3e	; 62
    1402:	92 83       	std	Z+2, r25	; 0x02
    1404:	81 83       	std	Z+1, r24	; 0x01
    1406:	ce 01       	movw	r24, r28
    1408:	01 96       	adiw	r24, 0x01	; 1
    140a:	82 1b       	sub	r24, r18
    140c:	93 0b       	sbc	r25, r19
    140e:	94 83       	std	Z+4, r25	; 0x04
    1410:	83 83       	std	Z+3, r24	; 0x03
    1412:	0e 94 20 19 	call	0x3240	; 0x3240 <usart_printf>
    1416:	0f 90       	pop	r0
    1418:	0f 90       	pop	r0
    141a:	0f 90       	pop	r0
    141c:	0f 90       	pop	r0
			(int) &v - (__brkval == 0 ? (int) &__heap_start : (int) __brkval));
}
    141e:	0f 90       	pop	r0
    1420:	0f 90       	pop	r0
    1422:	cf 91       	pop	r28
    1424:	df 91       	pop	r29
    1426:	08 95       	ret

00001428 <ds1307_update>:
	}

	return ret;
}

void ds1307_update(actTime_t* t) {
    1428:	0f 93       	push	r16
    142a:	1f 93       	push	r17
    142c:	8c 01       	movw	r16, r24
	t->secs = GetSecond();
    142e:	0e 94 4a 07 	call	0xe94	; 0xe94 <GetSecond>
    1432:	f8 01       	movw	r30, r16
    1434:	82 83       	std	Z+2, r24	; 0x02
	t->mins = GetMinute();
    1436:	0e 94 25 07 	call	0xe4a	; 0xe4a <GetMinute>
    143a:	f8 01       	movw	r30, r16
    143c:	81 83       	std	Z+1, r24	; 0x01
	t->hours = GetHour();
    143e:	0e 94 00 07 	call	0xe00	; 0xe00 <GetHour>
    1442:	f8 01       	movw	r30, r16
    1444:	80 83       	st	Z, r24
	t->day = GetDate();
    1446:	0e 94 db 06 	call	0xdb6	; 0xdb6 <GetDate>
    144a:	f8 01       	movw	r30, r16
    144c:	83 83       	std	Z+3, r24	; 0x03
	t->mounth = GetMonth();
    144e:	0e 94 b6 06 	call	0xd6c	; 0xd6c <GetMonth>
    1452:	f8 01       	movw	r30, r16
    1454:	84 83       	std	Z+4, r24	; 0x04
	t->year = 20 + GetYear();
    1456:	0e 94 a6 06 	call	0xd4c	; 0xd4c <GetYear>
    145a:	90 e0       	ldi	r25, 0x00	; 0
    145c:	44 96       	adiw	r24, 0x14	; 20
    145e:	f8 01       	movw	r30, r16
    1460:	96 83       	std	Z+6, r25	; 0x06
    1462:	85 83       	std	Z+5, r24	; 0x05
}
    1464:	1f 91       	pop	r17
    1466:	0f 91       	pop	r16
    1468:	08 95       	ret

0000146a <wifi_connect>:
	reset_rxbuffer_eth();

	return ret;
}

bool wifi_connect(void) {
    146a:	0f 93       	push	r16
    146c:	1f 93       	push	r17
    146e:	df 93       	push	r29
    1470:	cf 93       	push	r28
    1472:	cd b7       	in	r28, 0x3d	; 61
    1474:	de b7       	in	r29, 0x3e	; 62
    1476:	e2 97       	sbiw	r28, 0x32	; 50
    1478:	0f b6       	in	r0, 0x3f	; 63
    147a:	f8 94       	cli
    147c:	de bf       	out	0x3e, r29	; 62
    147e:	0f be       	out	0x3f, r0	; 63
    1480:	cd bf       	out	0x3d, r28	; 61

	bool ret = false;
	char cmd[50];
	strcpy(cmd, "AT+CWJAP=\"PalHome_1\",\"gerbicic\""); //make this command: AT+CPISTART="TCP","146.227.57.195",80
    1482:	8e 01       	movw	r16, r28
    1484:	0f 5f       	subi	r16, 0xFF	; 255
    1486:	1f 4f       	sbci	r17, 0xFF	; 255
    1488:	c8 01       	movw	r24, r16
    148a:	6a e6       	ldi	r22, 0x6A	; 106
    148c:	71 e0       	ldi	r23, 0x01	; 1
    148e:	0e 94 5f 24 	call	0x48be	; 0x48be <strcpy>
	sendATCOM(cmd);
    1492:	c8 01       	movw	r24, r16
    1494:	0e 94 1b 19 	call	0x3236	; 0x3236 <sendATCOM>
	//usart_printf("\n%s", cmd);

	if (waitForATAnswer("OK", 90)) {
    1498:	8a e8       	ldi	r24, 0x8A	; 138
    149a:	91 e0       	ldi	r25, 0x01	; 1
    149c:	6a e5       	ldi	r22, 0x5A	; 90
    149e:	70 e0       	ldi	r23, 0x00	; 0
    14a0:	0e 94 55 19 	call	0x32aa	; 0x32aa <waitForATAnswer>
    14a4:	88 23       	and	r24, r24
    14a6:	59 f0       	breq	.+22     	; 0x14be <wifi_connect+0x54>
		usart_printf("\nRouter OK");
    14a8:	00 d0       	rcall	.+0      	; 0x14aa <wifi_connect+0x40>
    14aa:	8d e8       	ldi	r24, 0x8D	; 141
    14ac:	91 e0       	ldi	r25, 0x01	; 1
    14ae:	ed b7       	in	r30, 0x3d	; 61
    14b0:	fe b7       	in	r31, 0x3e	; 62
    14b2:	92 83       	std	Z+2, r25	; 0x02
    14b4:	81 83       	std	Z+1, r24	; 0x01
    14b6:	0e 94 20 19 	call	0x3240	; 0x3240 <usart_printf>
    14ba:	81 e0       	ldi	r24, 0x01	; 1
    14bc:	0a c0       	rjmp	.+20     	; 0x14d2 <wifi_connect+0x68>
		ret = true;
	} else {
		ret = false;
		usart_printf("\nRouter Error");
    14be:	00 d0       	rcall	.+0      	; 0x14c0 <wifi_connect+0x56>
    14c0:	88 e9       	ldi	r24, 0x98	; 152
    14c2:	91 e0       	ldi	r25, 0x01	; 1
    14c4:	ed b7       	in	r30, 0x3d	; 61
    14c6:	fe b7       	in	r31, 0x3e	; 62
    14c8:	92 83       	std	Z+2, r25	; 0x02
    14ca:	81 83       	std	Z+1, r24	; 0x01
    14cc:	0e 94 20 19 	call	0x3240	; 0x3240 <usart_printf>
    14d0:	80 e0       	ldi	r24, 0x00	; 0
    14d2:	0f 90       	pop	r0
    14d4:	0f 90       	pop	r0
	}

	return ret;
}
    14d6:	e2 96       	adiw	r28, 0x32	; 50
    14d8:	0f b6       	in	r0, 0x3f	; 63
    14da:	f8 94       	cli
    14dc:	de bf       	out	0x3e, r29	; 62
    14de:	0f be       	out	0x3f, r0	; 63
    14e0:	cd bf       	out	0x3d, r28	; 61
    14e2:	cf 91       	pop	r28
    14e4:	df 91       	pop	r29
    14e6:	1f 91       	pop	r17
    14e8:	0f 91       	pop	r16
    14ea:	08 95       	ret

000014ec <process_ext1_data>:
char lcd_rollmsg_array[3][20];

bool process_ext1_data(void) {
	//nrf24l01_writeregister(NRF24L01_REG_STATUS, pipe);

	memcpy(&nrf_sensor_message, &bufferin, sizeof(bufferin));
    14ec:	a3 e3       	ldi	r26, 0x33	; 51
    14ee:	b7 e0       	ldi	r27, 0x07	; 7
    14f0:	e0 eb       	ldi	r30, 0xB0	; 176
    14f2:	f9 e0       	ldi	r31, 0x09	; 9
    14f4:	80 e2       	ldi	r24, 0x20	; 32
    14f6:	01 90       	ld	r0, Z+
    14f8:	0d 92       	st	X+, r0
    14fa:	81 50       	subi	r24, 0x01	; 1
    14fc:	e1 f7       	brne	.-8      	; 0x14f6 <process_ext1_data+0xa>
	bool ret;

	if (nrf_sensor_message.msgType == 1) {
    14fe:	80 91 34 07 	lds	r24, 0x0734
    1502:	81 30       	cpi	r24, 0x01	; 1
    1504:	09 f0       	breq	.+2      	; 0x1508 <process_ext1_data+0x1c>
    1506:	5c c0       	rjmp	.+184    	; 0x15c0 <process_ext1_data+0xd4>
		memcpy(&ext_measuredData.temp_minus, &nrf_sensor_message.temp_minus,
    1508:	80 91 36 07 	lds	r24, 0x0736
    150c:	80 93 9a 07 	sts	0x079A, r24
				sizeof(nrf_sensor_message.temp_minus));

		memcpy(&ext_measuredData.ext1_temp, &nrf_sensor_message.temperature,
    1510:	80 91 37 07 	lds	r24, 0x0737
    1514:	90 91 38 07 	lds	r25, 0x0738
    1518:	a0 91 39 07 	lds	r26, 0x0739
    151c:	b0 91 3a 07 	lds	r27, 0x073A
    1520:	80 93 9b 07 	sts	0x079B, r24
    1524:	90 93 9c 07 	sts	0x079C, r25
    1528:	a0 93 9d 07 	sts	0x079D, r26
    152c:	b0 93 9e 07 	sts	0x079E, r27
				sizeof(nrf_sensor_message.temperature));

		memcpy(&ext_measuredData.ext1_hum, &nrf_sensor_message.humidity,
    1530:	80 91 3b 07 	lds	r24, 0x073B
    1534:	90 91 3c 07 	lds	r25, 0x073C
    1538:	a0 91 3d 07 	lds	r26, 0x073D
    153c:	b0 91 3e 07 	lds	r27, 0x073E
    1540:	80 93 a0 07 	sts	0x07A0, r24
    1544:	90 93 a1 07 	sts	0x07A1, r25
    1548:	a0 93 a2 07 	sts	0x07A2, r26
    154c:	b0 93 a3 07 	sts	0x07A3, r27
				sizeof(nrf_sensor_message.humidity));

		memcpy(&ext_measuredData.ext1_airpressure,
    1550:	a5 ea       	ldi	r26, 0xA5	; 165
    1552:	b7 e0       	ldi	r27, 0x07	; 7
    1554:	ef e3       	ldi	r30, 0x3F	; 63
    1556:	f7 e0       	ldi	r31, 0x07	; 7
    1558:	86 e0       	ldi	r24, 0x06	; 6
    155a:	01 90       	ld	r0, Z+
    155c:	0d 92       	st	X+, r0
    155e:	81 50       	subi	r24, 0x01	; 1
    1560:	e1 f7       	brne	.-8      	; 0x155a <process_ext1_data+0x6e>
				&nrf_sensor_message.airpressure,
				sizeof(nrf_sensor_message.airpressure));
		ext_measuredData.ext1_airpressure[5] =
    1562:	80 91 a9 07 	lds	r24, 0x07A9
    1566:	80 93 aa 07 	sts	0x07AA, r24
				ext_measuredData.ext1_airpressure[4];
		ext_measuredData.ext1_airpressure[4] = '.';
    156a:	8e e2       	ldi	r24, 0x2E	; 46
    156c:	80 93 a9 07 	sts	0x07A9, r24
		ext_measuredData.ext1_airpressure[6] = '\0';
    1570:	10 92 ab 07 	sts	0x07AB, r1

		memcpy(&ext_measuredData.ext1_lux, &nrf_sensor_message.lux,
    1574:	ac ea       	ldi	r26, 0xAC	; 172
    1576:	b7 e0       	ldi	r27, 0x07	; 7
    1578:	e5 e4       	ldi	r30, 0x45	; 69
    157a:	f7 e0       	ldi	r31, 0x07	; 7
    157c:	85 e0       	ldi	r24, 0x05	; 5
    157e:	01 90       	ld	r0, Z+
    1580:	0d 92       	st	X+, r0
    1582:	81 50       	subi	r24, 0x01	; 1
    1584:	e1 f7       	brne	.-8      	; 0x157e <process_ext1_data+0x92>
				sizeof(nrf_sensor_message.lux));

		memcpy(&ext_measuredData.ext1_rain, &nrf_sensor_message.rain,
    1586:	80 91 4a 07 	lds	r24, 0x074A
    158a:	90 91 4b 07 	lds	r25, 0x074B
    158e:	a0 91 4c 07 	lds	r26, 0x074C
    1592:	b0 91 4d 07 	lds	r27, 0x074D
    1596:	80 93 b2 07 	sts	0x07B2, r24
    159a:	90 93 b3 07 	sts	0x07B3, r25
    159e:	a0 93 b4 07 	sts	0x07B4, r26
    15a2:	b0 93 b5 07 	sts	0x07B5, r27
				sizeof(nrf_sensor_message.rain));

		usart_printf("\nMSG type 1");
    15a6:	00 d0       	rcall	.+0      	; 0x15a8 <process_ext1_data+0xbc>
    15a8:	86 ea       	ldi	r24, 0xA6	; 166
    15aa:	91 e0       	ldi	r25, 0x01	; 1
    15ac:	ed b7       	in	r30, 0x3d	; 61
    15ae:	fe b7       	in	r31, 0x3e	; 62
    15b0:	92 83       	std	Z+2, r25	; 0x02
    15b2:	81 83       	std	Z+1, r24	; 0x01
    15b4:	0e 94 20 19 	call	0x3240	; 0x3240 <usart_printf>
    15b8:	81 e0       	ldi	r24, 0x01	; 1
    15ba:	0f 90       	pop	r0
    15bc:	0f 90       	pop	r0
    15be:	08 95       	ret

		ret = true;
	} else if (nrf_sensor_message.msgType == 2) {
    15c0:	82 30       	cpi	r24, 0x02	; 2
    15c2:	11 f0       	breq	.+4      	; 0x15c8 <process_ext1_data+0xdc>
    15c4:	80 e0       	ldi	r24, 0x00	; 0
    15c6:	08 95       	ret
		memcpy(&nrf_sys_message, &bufferin, sizeof(bufferin));
    15c8:	af e4       	ldi	r26, 0x4F	; 79
    15ca:	b7 e0       	ldi	r27, 0x07	; 7
    15cc:	e0 eb       	ldi	r30, 0xB0	; 176
    15ce:	f9 e0       	ldi	r31, 0x09	; 9
    15d0:	80 e2       	ldi	r24, 0x20	; 32
    15d2:	01 90       	ld	r0, Z+
    15d4:	0d 92       	st	X+, r0
    15d6:	81 50       	subi	r24, 0x01	; 1
    15d8:	e1 f7       	brne	.-8      	; 0x15d2 <process_ext1_data+0xe6>

		memcpy(&ext_measuredData.ext1_batt, &nrf_sys_message.outer_batt,
    15da:	a7 eb       	ldi	r26, 0xB7	; 183
    15dc:	b7 e0       	ldi	r27, 0x07	; 7
    15de:	e2 e5       	ldi	r30, 0x52	; 82
    15e0:	f7 e0       	ldi	r31, 0x07	; 7
    15e2:	85 e0       	ldi	r24, 0x05	; 5
    15e4:	01 90       	ld	r0, Z+
    15e6:	0d 92       	st	X+, r0
    15e8:	81 50       	subi	r24, 0x01	; 1
    15ea:	e1 f7       	brne	.-8      	; 0x15e4 <process_ext1_data+0xf8>
				sizeof(nrf_sys_message.outer_batt));

		usart_printf("\nMSG type 2");
    15ec:	00 d0       	rcall	.+0      	; 0x15ee <process_ext1_data+0x102>
    15ee:	82 eb       	ldi	r24, 0xB2	; 178
    15f0:	91 e0       	ldi	r25, 0x01	; 1
    15f2:	ed b7       	in	r30, 0x3d	; 61
    15f4:	fe b7       	in	r31, 0x3e	; 62
    15f6:	92 83       	std	Z+2, r25	; 0x02
    15f8:	81 83       	std	Z+1, r24	; 0x01
    15fa:	0e 94 20 19 	call	0x3240	; 0x3240 <usart_printf>
    15fe:	81 e0       	ldi	r24, 0x01	; 1
    1600:	0f 90       	pop	r0
    1602:	0f 90       	pop	r0
		ret = true;
	} else {
		ret = false;
	}
	return ret;
}
    1604:	08 95       	ret

00001606 <usart_sendValues>:

	_delay_ms(500);

}

void usart_sendValues(void) {
    1606:	0f 93       	push	r16
    1608:	1f 93       	push	r17
	usart_printf("\n");
    160a:	00 d0       	rcall	.+0      	; 0x160c <usart_sendValues+0x6>
    160c:	8e eb       	ldi	r24, 0xBE	; 190
    160e:	91 e0       	ldi	r25, 0x01	; 1
    1610:	ad b7       	in	r26, 0x3d	; 61
    1612:	be b7       	in	r27, 0x3e	; 62
    1614:	12 96       	adiw	r26, 0x02	; 2
    1616:	9c 93       	st	X, r25
    1618:	8e 93       	st	-X, r24
    161a:	11 97       	sbiw	r26, 0x01	; 1
    161c:	0e 94 20 19 	call	0x3240	; 0x3240 <usart_printf>
	usart_printf("\nseq: %d", nrf_sensor_message.seqNum);
    1620:	00 d0       	rcall	.+0      	; 0x1622 <usart_sendValues+0x1c>
    1622:	ed b7       	in	r30, 0x3d	; 61
    1624:	fe b7       	in	r31, 0x3e	; 62
    1626:	31 96       	adiw	r30, 0x01	; 1
    1628:	80 ec       	ldi	r24, 0xC0	; 192
    162a:	91 e0       	ldi	r25, 0x01	; 1
    162c:	ad b7       	in	r26, 0x3d	; 61
    162e:	be b7       	in	r27, 0x3e	; 62
    1630:	12 96       	adiw	r26, 0x02	; 2
    1632:	9c 93       	st	X, r25
    1634:	8e 93       	st	-X, r24
    1636:	11 97       	sbiw	r26, 0x01	; 1
    1638:	80 91 35 07 	lds	r24, 0x0735
    163c:	82 83       	std	Z+2, r24	; 0x02
    163e:	13 82       	std	Z+3, r1	; 0x03
    1640:	0e 94 20 19 	call	0x3240	; 0x3240 <usart_printf>
	usart_printf("\ntemp:%s", loc_measuredData.loc_temp);
    1644:	89 ec       	ldi	r24, 0xC9	; 201
    1646:	91 e0       	ldi	r25, 0x01	; 1
    1648:	ed b7       	in	r30, 0x3d	; 61
    164a:	fe b7       	in	r31, 0x3e	; 62
    164c:	92 83       	std	Z+2, r25	; 0x02
    164e:	81 83       	std	Z+1, r24	; 0x01
    1650:	0d eb       	ldi	r16, 0xBD	; 189
    1652:	17 e0       	ldi	r17, 0x07	; 7
    1654:	14 83       	std	Z+4, r17	; 0x04
    1656:	03 83       	std	Z+3, r16	; 0x03
    1658:	0e 94 20 19 	call	0x3240	; 0x3240 <usart_printf>
	usart_printf("\nhum:%s", loc_measuredData.loc_hum);
    165c:	82 ed       	ldi	r24, 0xD2	; 210
    165e:	91 e0       	ldi	r25, 0x01	; 1
    1660:	ad b7       	in	r26, 0x3d	; 61
    1662:	be b7       	in	r27, 0x3e	; 62
    1664:	12 96       	adiw	r26, 0x02	; 2
    1666:	9c 93       	st	X, r25
    1668:	8e 93       	st	-X, r24
    166a:	11 97       	sbiw	r26, 0x01	; 1
    166c:	0b 5f       	subi	r16, 0xFB	; 251
    166e:	1f 4f       	sbci	r17, 0xFF	; 255
    1670:	14 96       	adiw	r26, 0x04	; 4
    1672:	1c 93       	st	X, r17
    1674:	0e 93       	st	-X, r16
    1676:	13 97       	sbiw	r26, 0x03	; 3
    1678:	0e 94 20 19 	call	0x3240	; 0x3240 <usart_printf>
	usart_printf("\netemp:%s", ext_measuredData.ext1_temp);
    167c:	8a ed       	ldi	r24, 0xDA	; 218
    167e:	91 e0       	ldi	r25, 0x01	; 1
    1680:	ed b7       	in	r30, 0x3d	; 61
    1682:	fe b7       	in	r31, 0x3e	; 62
    1684:	92 83       	std	Z+2, r25	; 0x02
    1686:	81 83       	std	Z+1, r24	; 0x01
    1688:	0b e9       	ldi	r16, 0x9B	; 155
    168a:	17 e0       	ldi	r17, 0x07	; 7
    168c:	14 83       	std	Z+4, r17	; 0x04
    168e:	03 83       	std	Z+3, r16	; 0x03
    1690:	0e 94 20 19 	call	0x3240	; 0x3240 <usart_printf>
	usart_printf("\nehum:%s", ext_measuredData.ext1_hum);
    1694:	84 ee       	ldi	r24, 0xE4	; 228
    1696:	91 e0       	ldi	r25, 0x01	; 1
    1698:	ad b7       	in	r26, 0x3d	; 61
    169a:	be b7       	in	r27, 0x3e	; 62
    169c:	12 96       	adiw	r26, 0x02	; 2
    169e:	9c 93       	st	X, r25
    16a0:	8e 93       	st	-X, r24
    16a2:	11 97       	sbiw	r26, 0x01	; 1
    16a4:	0b 5f       	subi	r16, 0xFB	; 251
    16a6:	1f 4f       	sbci	r17, 0xFF	; 255
    16a8:	14 96       	adiw	r26, 0x04	; 4
    16aa:	1c 93       	st	X, r17
    16ac:	0e 93       	st	-X, r16
    16ae:	13 97       	sbiw	r26, 0x03	; 3
    16b0:	0e 94 20 19 	call	0x3240	; 0x3240 <usart_printf>
	usart_printf("\nepres:%s", ext_measuredData.ext1_airpressure);
    16b4:	8d ee       	ldi	r24, 0xED	; 237
    16b6:	91 e0       	ldi	r25, 0x01	; 1
    16b8:	ed b7       	in	r30, 0x3d	; 61
    16ba:	fe b7       	in	r31, 0x3e	; 62
    16bc:	92 83       	std	Z+2, r25	; 0x02
    16be:	81 83       	std	Z+1, r24	; 0x01
    16c0:	0b 5f       	subi	r16, 0xFB	; 251
    16c2:	1f 4f       	sbci	r17, 0xFF	; 255
    16c4:	14 83       	std	Z+4, r17	; 0x04
    16c6:	03 83       	std	Z+3, r16	; 0x03
    16c8:	0e 94 20 19 	call	0x3240	; 0x3240 <usart_printf>
	usart_printf("\nelux:%s", ext_measuredData.ext1_lux);
    16cc:	87 ef       	ldi	r24, 0xF7	; 247
    16ce:	91 e0       	ldi	r25, 0x01	; 1
    16d0:	ad b7       	in	r26, 0x3d	; 61
    16d2:	be b7       	in	r27, 0x3e	; 62
    16d4:	12 96       	adiw	r26, 0x02	; 2
    16d6:	9c 93       	st	X, r25
    16d8:	8e 93       	st	-X, r24
    16da:	11 97       	sbiw	r26, 0x01	; 1
    16dc:	09 5f       	subi	r16, 0xF9	; 249
    16de:	1f 4f       	sbci	r17, 0xFF	; 255
    16e0:	14 96       	adiw	r26, 0x04	; 4
    16e2:	1c 93       	st	X, r17
    16e4:	0e 93       	st	-X, r16
    16e6:	13 97       	sbiw	r26, 0x03	; 3
    16e8:	01 51       	subi	r16, 0x11	; 17
    16ea:	10 40       	sbci	r17, 0x00	; 0
    16ec:	0e 94 20 19 	call	0x3240	; 0x3240 <usart_printf>
	usart_printf("\nerain:%d", atoi(ext_measuredData.ext1_rain));
    16f0:	0f 90       	pop	r0
    16f2:	0f 90       	pop	r0
    16f4:	0f 90       	pop	r0
    16f6:	0f 90       	pop	r0
    16f8:	c8 01       	movw	r24, r16
    16fa:	47 96       	adiw	r24, 0x17	; 23
    16fc:	0e 94 2d 24 	call	0x485a	; 0x485a <atoi>
    1700:	00 d0       	rcall	.+0      	; 0x1702 <usart_sendValues+0xfc>
    1702:	00 d0       	rcall	.+0      	; 0x1704 <usart_sendValues+0xfe>
    1704:	20 e0       	ldi	r18, 0x00	; 0
    1706:	32 e0       	ldi	r19, 0x02	; 2
    1708:	ed b7       	in	r30, 0x3d	; 61
    170a:	fe b7       	in	r31, 0x3e	; 62
    170c:	32 83       	std	Z+2, r19	; 0x02
    170e:	21 83       	std	Z+1, r18	; 0x01
    1710:	94 83       	std	Z+4, r25	; 0x04
    1712:	83 83       	std	Z+3, r24	; 0x03
    1714:	0e 94 20 19 	call	0x3240	; 0x3240 <usart_printf>
	usart_printf("\nExt_batt: %d", atoi(ext_measuredData.ext1_batt));
    1718:	0f 90       	pop	r0
    171a:	0f 90       	pop	r0
    171c:	0f 90       	pop	r0
    171e:	0f 90       	pop	r0
    1720:	c8 01       	movw	r24, r16
    1722:	4c 96       	adiw	r24, 0x1c	; 28
    1724:	0e 94 2d 24 	call	0x485a	; 0x485a <atoi>
    1728:	00 d0       	rcall	.+0      	; 0x172a <usart_sendValues+0x124>
    172a:	00 d0       	rcall	.+0      	; 0x172c <usart_sendValues+0x126>
    172c:	2a e0       	ldi	r18, 0x0A	; 10
    172e:	32 e0       	ldi	r19, 0x02	; 2
    1730:	ad b7       	in	r26, 0x3d	; 61
    1732:	be b7       	in	r27, 0x3e	; 62
    1734:	12 96       	adiw	r26, 0x02	; 2
    1736:	3c 93       	st	X, r19
    1738:	2e 93       	st	-X, r18
    173a:	11 97       	sbiw	r26, 0x01	; 1
    173c:	14 96       	adiw	r26, 0x04	; 4
    173e:	9c 93       	st	X, r25
    1740:	8e 93       	st	-X, r24
    1742:	13 97       	sbiw	r26, 0x03	; 3
    1744:	0e 94 20 19 	call	0x3240	; 0x3240 <usart_printf>
	usart_printf("\nLDR: %d", loc_measuredData.ldr);
    1748:	88 e1       	ldi	r24, 0x18	; 24
    174a:	92 e0       	ldi	r25, 0x02	; 2
    174c:	ed b7       	in	r30, 0x3d	; 61
    174e:	fe b7       	in	r31, 0x3e	; 62
    1750:	92 83       	std	Z+2, r25	; 0x02
    1752:	81 83       	std	Z+1, r24	; 0x01
    1754:	80 91 c7 07 	lds	r24, 0x07C7
    1758:	90 91 c8 07 	lds	r25, 0x07C8
    175c:	94 83       	std	Z+4, r25	; 0x04
    175e:	83 83       	std	Z+3, r24	; 0x03
    1760:	0e 94 20 19 	call	0x3240	; 0x3240 <usart_printf>
    1764:	0f 90       	pop	r0
    1766:	0f 90       	pop	r0
    1768:	0f 90       	pop	r0
    176a:	0f 90       	pop	r0
	//				usart_printf("%s %02d %02d:%02d:%02d",
	//						get_nameOfTheMonth(rtc.month), rtc.date, rtc.hour,
	//						rtc.minute, rtc.second);
}
    176c:	1f 91       	pop	r17
    176e:	0f 91       	pop	r16
    1770:	08 95       	ret

00001772 <get_internetTime>:
	}

	return ret;
}

bool get_internetTime(bool gmt) {
    1772:	af 92       	push	r10
    1774:	bf 92       	push	r11
    1776:	cf 92       	push	r12
    1778:	df 92       	push	r13
    177a:	ef 92       	push	r14
    177c:	ff 92       	push	r15
    177e:	0f 93       	push	r16
    1780:	1f 93       	push	r17
    1782:	df 93       	push	r29
    1784:	cf 93       	push	r28
    1786:	cd b7       	in	r28, 0x3d	; 61
    1788:	de b7       	in	r29, 0x3e	; 62
    178a:	6d 97       	sbiw	r28, 0x1d	; 29
    178c:	0f b6       	in	r0, 0x3f	; 63
    178e:	f8 94       	cli
    1790:	de bf       	out	0x3e, r29	; 62
    1792:	0f be       	out	0x3f, r0	; 63
    1794:	cd bf       	out	0x3d, r28	; 61
    1796:	18 2f       	mov	r17, r24

	bool ret = false;
	uint32_t timer = 0;
	timer = 90;

	usart_printf("\nItime");
    1798:	00 d0       	rcall	.+0      	; 0x179a <get_internetTime+0x28>
    179a:	81 e2       	ldi	r24, 0x21	; 33
    179c:	92 e0       	ldi	r25, 0x02	; 2
    179e:	ad b7       	in	r26, 0x3d	; 61
    17a0:	be b7       	in	r27, 0x3e	; 62
    17a2:	12 96       	adiw	r26, 0x02	; 2
    17a4:	9c 93       	st	X, r25
    17a6:	8e 93       	st	-X, r24
    17a8:	11 97       	sbiw	r26, 0x01	; 1
    17aa:	0e 94 20 19 	call	0x3240	; 0x3240 <usart_printf>

	if (gmt) {
    17ae:	0f 90       	pop	r0
    17b0:	0f 90       	pop	r0
    17b2:	11 23       	and	r17, r17
    17b4:	69 f0       	breq	.+26     	; 0x17d0 <get_internetTime+0x5e>
		sendATCOM("AT+CIPNTP=2");
    17b6:	88 e2       	ldi	r24, 0x28	; 40
    17b8:	92 e0       	ldi	r25, 0x02	; 2
    17ba:	0e 94 1b 19 	call	0x3236	; 0x3236 <sendATCOM>
    17be:	80 e5       	ldi	r24, 0x50	; 80
    17c0:	93 ec       	ldi	r25, 0xC3	; 195
    17c2:	20 e9       	ldi	r18, 0x90	; 144
    17c4:	31 e0       	ldi	r19, 0x01	; 1
    17c6:	f9 01       	movw	r30, r18
    17c8:	31 97       	sbiw	r30, 0x01	; 1
    17ca:	f1 f7       	brne	.-4      	; 0x17c8 <get_internetTime+0x56>
		{
			// wait 1/10 ms
			_delay_loop_2(((F_CPU) / 4e3) / 10);
			__ticks --;
    17cc:	01 97       	sbiw	r24, 0x01	; 1
		__ticks = 1;
	else if (__tmp > 65535)
	{
		//	__ticks = requested delay in 1/10 ms
		__ticks = (uint16_t) (__ms * 10.0);
		while(__ticks)
    17ce:	d9 f7       	brne	.-10     	; 0x17c6 <get_internetTime+0x54>
		_delay_ms(5000);
	}

	reset_rxbuffer_eth();
    17d0:	0e 94 be 18 	call	0x317c	; 0x317c <reset_rxbuffer_eth>
	sendATCOM("AT+CIPNTP?");
    17d4:	84 e3       	ldi	r24, 0x34	; 52
    17d6:	92 e0       	ldi	r25, 0x02	; 2
    17d8:	0e 94 1b 19 	call	0x3236	; 0x3236 <sendATCOM>
    17dc:	3a e5       	ldi	r19, 0x5A	; 90
    17de:	e3 2e       	mov	r14, r19
    17e0:	f1 2c       	mov	r15, r1
    17e2:	01 2d       	mov	r16, r1
    17e4:	11 2d       	mov	r17, r1
    17e6:	20 e9       	ldi	r18, 0x90	; 144
    17e8:	a2 2e       	mov	r10, r18
    17ea:	21 e0       	ldi	r18, 0x01	; 1
    17ec:	b2 2e       	mov	r11, r18

	//Time: 22:30:35 01/20/2016 GMT+01___OK
	while (!strstr((const char*) rx_buffer_eth, "GMT") && timer != 0) {
		_delay_ms(100);
		//USART_Transmit_DEB(timer);
		usart_printf("%d", timer);
    17ee:	9f e3       	ldi	r25, 0x3F	; 63
    17f0:	c9 2e       	mov	r12, r25
    17f2:	92 e0       	ldi	r25, 0x02	; 2
    17f4:	d9 2e       	mov	r13, r25
    17f6:	25 c0       	rjmp	.+74     	; 0x1842 <get_internetTime+0xd0>

	reset_rxbuffer_eth();
	sendATCOM("AT+CIPNTP?");

	//Time: 22:30:35 01/20/2016 GMT+01___OK
	while (!strstr((const char*) rx_buffer_eth, "GMT") && timer != 0) {
    17f8:	88 ee       	ldi	r24, 0xE8	; 232
    17fa:	93 e0       	ldi	r25, 0x03	; 3
    17fc:	f5 01       	movw	r30, r10
    17fe:	31 97       	sbiw	r30, 0x01	; 1
    1800:	f1 f7       	brne	.-4      	; 0x17fe <get_internetTime+0x8c>
		{
			// wait 1/10 ms
			_delay_loop_2(((F_CPU) / 4e3) / 10);
			__ticks --;
    1802:	01 97       	sbiw	r24, 0x01	; 1
		__ticks = 1;
	else if (__tmp > 65535)
	{
		//	__ticks = requested delay in 1/10 ms
		__ticks = (uint16_t) (__ms * 10.0);
		while(__ticks)
    1804:	d9 f7       	brne	.-10     	; 0x17fc <get_internetTime+0x8a>
		_delay_ms(100);
		//USART_Transmit_DEB(timer);
		usart_printf("%d", timer);
    1806:	00 d0       	rcall	.+0      	; 0x1808 <get_internetTime+0x96>
    1808:	00 d0       	rcall	.+0      	; 0x180a <get_internetTime+0x98>
    180a:	00 d0       	rcall	.+0      	; 0x180c <get_internetTime+0x9a>
    180c:	ed b7       	in	r30, 0x3d	; 61
    180e:	fe b7       	in	r31, 0x3e	; 62
    1810:	d2 82       	std	Z+2, r13	; 0x02
    1812:	c1 82       	std	Z+1, r12	; 0x01
    1814:	ad b7       	in	r26, 0x3d	; 61
    1816:	be b7       	in	r27, 0x3e	; 62
    1818:	13 96       	adiw	r26, 0x03	; 3
    181a:	ed 92       	st	X+, r14
    181c:	fd 92       	st	X+, r15
    181e:	0d 93       	st	X+, r16
    1820:	1c 93       	st	X, r17
    1822:	16 97       	sbiw	r26, 0x06	; 6
    1824:	0e 94 20 19 	call	0x3240	; 0x3240 <usart_printf>
		timer--;
    1828:	08 94       	sec
    182a:	e1 08       	sbc	r14, r1
    182c:	f1 08       	sbc	r15, r1
    182e:	01 09       	sbc	r16, r1
    1830:	11 09       	sbc	r17, r1
    1832:	ed b7       	in	r30, 0x3d	; 61
    1834:	fe b7       	in	r31, 0x3e	; 62
    1836:	36 96       	adiw	r30, 0x06	; 6
    1838:	0f b6       	in	r0, 0x3f	; 63
    183a:	f8 94       	cli
    183c:	fe bf       	out	0x3e, r31	; 62
    183e:	0f be       	out	0x3f, r0	; 63
    1840:	ed bf       	out	0x3d, r30	; 61

	reset_rxbuffer_eth();
	sendATCOM("AT+CIPNTP?");

	//Time: 22:30:35 01/20/2016 GMT+01___OK
	while (!strstr((const char*) rx_buffer_eth, "GMT") && timer != 0) {
    1842:	8e ee       	ldi	r24, 0xEE	; 238
    1844:	97 e0       	ldi	r25, 0x07	; 7
    1846:	62 e4       	ldi	r22, 0x42	; 66
    1848:	72 e0       	ldi	r23, 0x02	; 2
    184a:	0e 94 75 24 	call	0x48ea	; 0x48ea <strstr>
    184e:	00 97       	sbiw	r24, 0x00	; 0
    1850:	29 f4       	brne	.+10     	; 0x185c <get_internetTime+0xea>
    1852:	e1 14       	cp	r14, r1
    1854:	f1 04       	cpc	r15, r1
    1856:	01 05       	cpc	r16, r1
    1858:	11 05       	cpc	r17, r1
    185a:	71 f6       	brne	.-100    	; 0x17f8 <get_internetTime+0x86>
	//	if (strstr(where, what) != NULL )
	//		usart_printf("\nfound");
	//	else
	//		usart_printf("\nnot found");

	usart_printf("\n %s", rx_buffer_eth);
    185c:	00 d0       	rcall	.+0      	; 0x185e <get_internetTime+0xec>
    185e:	00 d0       	rcall	.+0      	; 0x1860 <get_internetTime+0xee>
    1860:	86 e4       	ldi	r24, 0x46	; 70
    1862:	92 e0       	ldi	r25, 0x02	; 2
    1864:	ad b7       	in	r26, 0x3d	; 61
    1866:	be b7       	in	r27, 0x3e	; 62
    1868:	12 96       	adiw	r26, 0x02	; 2
    186a:	9c 93       	st	X, r25
    186c:	8e 93       	st	-X, r24
    186e:	11 97       	sbiw	r26, 0x01	; 1
    1870:	8e ee       	ldi	r24, 0xEE	; 238
    1872:	c8 2e       	mov	r12, r24
    1874:	87 e0       	ldi	r24, 0x07	; 7
    1876:	d8 2e       	mov	r13, r24
    1878:	14 96       	adiw	r26, 0x04	; 4
    187a:	dc 92       	st	X, r13
    187c:	ce 92       	st	-X, r12
    187e:	13 97       	sbiw	r26, 0x03	; 3
    1880:	0e 94 20 19 	call	0x3240	; 0x3240 <usart_printf>

	if (timer > 0) {
    1884:	0f 90       	pop	r0
    1886:	0f 90       	pop	r0
    1888:	0f 90       	pop	r0
    188a:	0f 90       	pop	r0
    188c:	e1 14       	cp	r14, r1
    188e:	f1 04       	cpc	r15, r1
    1890:	01 05       	cpc	r16, r1
    1892:	11 05       	cpc	r17, r1
    1894:	11 f4       	brne	.+4      	; 0x189a <get_internetTime+0x128>
    1896:	10 e0       	ldi	r17, 0x00	; 0
    1898:	cb c0       	rjmp	.+406    	; 0x1a30 <get_internetTime+0x2be>
		ret = 1;

		char* pos_ch = strstr((const char*) rx_buffer_eth, "Time:");
    189a:	c6 01       	movw	r24, r12
    189c:	6b e4       	ldi	r22, 0x4B	; 75
    189e:	72 e0       	ldi	r23, 0x02	; 2
    18a0:	0e 94 75 24 	call	0x48ea	; 0x48ea <strstr>
		//uint8_t pos_d = pos_ch - rx_buffer_eth + 1;

		char actTch[21];

		memcpy(actTch, pos_ch + 6, 20);
    18a4:	de 01       	movw	r26, r28
    18a6:	19 96       	adiw	r26, 0x09	; 9
    18a8:	fc 01       	movw	r30, r24
    18aa:	36 96       	adiw	r30, 0x06	; 6
    18ac:	84 e1       	ldi	r24, 0x14	; 20
    18ae:	01 90       	ld	r0, Z+
    18b0:	0d 92       	st	X+, r0
    18b2:	81 50       	subi	r24, 0x01	; 1
    18b4:	e1 f7       	brne	.-8      	; 0x18ae <get_internetTime+0x13c>

		usart_printf("\nTime got! %d %d %d %d %d %d", actTime.hours,
    18b6:	ed b7       	in	r30, 0x3d	; 61
    18b8:	fe b7       	in	r31, 0x3e	; 62
    18ba:	3e 97       	sbiw	r30, 0x0e	; 14
    18bc:	0f b6       	in	r0, 0x3f	; 63
    18be:	f8 94       	cli
    18c0:	fe bf       	out	0x3e, r31	; 62
    18c2:	0f be       	out	0x3f, r0	; 63
    18c4:	ed bf       	out	0x3d, r30	; 61
    18c6:	31 96       	adiw	r30, 0x01	; 1
    18c8:	81 e5       	ldi	r24, 0x51	; 81
    18ca:	92 e0       	ldi	r25, 0x02	; 2
    18cc:	ad b7       	in	r26, 0x3d	; 61
    18ce:	be b7       	in	r27, 0x3e	; 62
    18d0:	12 96       	adiw	r26, 0x02	; 2
    18d2:	9c 93       	st	X, r25
    18d4:	8e 93       	st	-X, r24
    18d6:	11 97       	sbiw	r26, 0x01	; 1
    18d8:	80 91 93 07 	lds	r24, 0x0793
    18dc:	82 83       	std	Z+2, r24	; 0x02
    18de:	13 82       	std	Z+3, r1	; 0x03
    18e0:	80 91 94 07 	lds	r24, 0x0794
    18e4:	84 83       	std	Z+4, r24	; 0x04
    18e6:	15 82       	std	Z+5, r1	; 0x05
    18e8:	80 91 95 07 	lds	r24, 0x0795
    18ec:	86 83       	std	Z+6, r24	; 0x06
    18ee:	17 82       	std	Z+7, r1	; 0x07
    18f0:	80 91 97 07 	lds	r24, 0x0797
    18f4:	80 87       	std	Z+8, r24	; 0x08
    18f6:	11 86       	std	Z+9, r1	; 0x09
    18f8:	80 91 96 07 	lds	r24, 0x0796
    18fc:	82 87       	std	Z+10, r24	; 0x0a
    18fe:	13 86       	std	Z+11, r1	; 0x0b
    1900:	80 91 98 07 	lds	r24, 0x0798
    1904:	90 91 99 07 	lds	r25, 0x0799
    1908:	95 87       	std	Z+13, r25	; 0x0d
    190a:	84 87       	std	Z+12, r24	; 0x0c
    190c:	0e 94 20 19 	call	0x3240	; 0x3240 <usart_printf>
				actTime.mins, actTime.secs, actTime.mounth, actTime.day,
				actTime.year);

		// 22:30:35 01/20/2016
		char dtmp[3];
		memcpy(dtmp, actTch, 2);
    1910:	89 85       	ldd	r24, Y+9	; 0x09
    1912:	9a 85       	ldd	r25, Y+10	; 0x0a
    1914:	9a 83       	std	Y+2, r25	; 0x02
    1916:	89 83       	std	Y+1, r24	; 0x01
		actTime.hours = atoi(dtmp);
    1918:	ed b7       	in	r30, 0x3d	; 61
    191a:	fe b7       	in	r31, 0x3e	; 62
    191c:	3e 96       	adiw	r30, 0x0e	; 14
    191e:	0f b6       	in	r0, 0x3f	; 63
    1920:	f8 94       	cli
    1922:	fe bf       	out	0x3e, r31	; 62
    1924:	0f be       	out	0x3f, r0	; 63
    1926:	ed bf       	out	0x3d, r30	; 61
    1928:	8e 01       	movw	r16, r28
    192a:	0f 5f       	subi	r16, 0xFF	; 255
    192c:	1f 4f       	sbci	r17, 0xFF	; 255
    192e:	c8 01       	movw	r24, r16
    1930:	0e 94 2d 24 	call	0x485a	; 0x485a <atoi>
    1934:	80 93 93 07 	sts	0x0793, r24
		SetHour(actTime.hours);
    1938:	0e 94 c8 07 	call	0xf90	; 0xf90 <SetHour>

		memcpy(dtmp, actTch + 3, 2);
    193c:	8c 85       	ldd	r24, Y+12	; 0x0c
    193e:	9d 85       	ldd	r25, Y+13	; 0x0d
    1940:	9a 83       	std	Y+2, r25	; 0x02
    1942:	89 83       	std	Y+1, r24	; 0x01
		actTime.mins = atoi(dtmp);
    1944:	c8 01       	movw	r24, r16
    1946:	0e 94 2d 24 	call	0x485a	; 0x485a <atoi>
    194a:	80 93 94 07 	sts	0x0794, r24
		SetMinute(actTime.mins);
    194e:	0e 94 da 07 	call	0xfb4	; 0xfb4 <SetMinute>

		memcpy(dtmp, actTch + 6, 2);
    1952:	8f 85       	ldd	r24, Y+15	; 0x0f
    1954:	98 89       	ldd	r25, Y+16	; 0x10
    1956:	9a 83       	std	Y+2, r25	; 0x02
    1958:	89 83       	std	Y+1, r24	; 0x01
		actTime.secs = atoi(dtmp);
    195a:	c8 01       	movw	r24, r16
    195c:	0e 94 2d 24 	call	0x485a	; 0x485a <atoi>
    1960:	80 93 95 07 	sts	0x0795, r24
		SetSecond(actTime.secs);
    1964:	0e 94 ec 07 	call	0xfd8	; 0xfd8 <SetSecond>

		memcpy(dtmp, actTch + 9, 2);
    1968:	8a 89       	ldd	r24, Y+18	; 0x12
    196a:	9b 89       	ldd	r25, Y+19	; 0x13
    196c:	9a 83       	std	Y+2, r25	; 0x02
    196e:	89 83       	std	Y+1, r24	; 0x01
		actTime.mounth = atoi(dtmp);
    1970:	c8 01       	movw	r24, r16
    1972:	0e 94 2d 24 	call	0x485a	; 0x485a <atoi>
    1976:	80 93 97 07 	sts	0x0797, r24
		SetMonth(actTime.mounth);
    197a:	0e 94 a4 07 	call	0xf48	; 0xf48 <SetMonth>

		memcpy(dtmp, actTch + 12, 2);
    197e:	8d 89       	ldd	r24, Y+21	; 0x15
    1980:	9e 89       	ldd	r25, Y+22	; 0x16
    1982:	9a 83       	std	Y+2, r25	; 0x02
    1984:	89 83       	std	Y+1, r24	; 0x01
		actTime.day = atoi(dtmp);
    1986:	c8 01       	movw	r24, r16
    1988:	0e 94 2d 24 	call	0x485a	; 0x485a <atoi>
    198c:	80 93 96 07 	sts	0x0796, r24
		SetDate(actTime.day);
    1990:	0e 94 b6 07 	call	0xf6c	; 0xf6c <SetDate>

		char ytmp[5];
		memcpy(ytmp, actTch + 15, 4);
    1994:	88 8d       	ldd	r24, Y+24	; 0x18
    1996:	99 8d       	ldd	r25, Y+25	; 0x19
    1998:	aa 8d       	ldd	r26, Y+26	; 0x1a
    199a:	bb 8d       	ldd	r27, Y+27	; 0x1b
    199c:	8c 83       	std	Y+4, r24	; 0x04
    199e:	9d 83       	std	Y+5, r25	; 0x05
    19a0:	ae 83       	std	Y+6, r26	; 0x06
    19a2:	bf 83       	std	Y+7, r27	; 0x07
		actTime.year = atoi(ytmp);
    19a4:	ce 01       	movw	r24, r28
    19a6:	04 96       	adiw	r24, 0x04	; 4
    19a8:	0e 94 2d 24 	call	0x485a	; 0x485a <atoi>
    19ac:	80 93 98 07 	sts	0x0798, r24
    19b0:	90 93 99 07 	sts	0x0799, r25
		SetYear(actTime.year);
    19b4:	0e 94 8e 07 	call	0xf1c	; 0xf1c <SetYear>

		usart_printf("\nT after sync %d:%d:%d %d %d %d", GetHour(), GetMinute(),
    19b8:	0e 94 00 07 	call	0xe00	; 0xe00 <GetHour>
    19bc:	18 2f       	mov	r17, r24
    19be:	0e 94 25 07 	call	0xe4a	; 0xe4a <GetMinute>
    19c2:	08 2f       	mov	r16, r24
    19c4:	0e 94 4a 07 	call	0xe94	; 0xe94 <GetSecond>
    19c8:	f8 2e       	mov	r15, r24
    19ca:	0e 94 db 06 	call	0xdb6	; 0xdb6 <GetDate>
    19ce:	e8 2e       	mov	r14, r24
    19d0:	0e 94 b6 06 	call	0xd6c	; 0xd6c <GetMonth>
    19d4:	d8 2e       	mov	r13, r24
    19d6:	0e 94 a6 06 	call	0xd4c	; 0xd4c <GetYear>
    19da:	2d b7       	in	r18, 0x3d	; 61
    19dc:	3e b7       	in	r19, 0x3e	; 62
    19de:	2e 50       	subi	r18, 0x0E	; 14
    19e0:	30 40       	sbci	r19, 0x00	; 0
    19e2:	0f b6       	in	r0, 0x3f	; 63
    19e4:	f8 94       	cli
    19e6:	3e bf       	out	0x3e, r19	; 62
    19e8:	0f be       	out	0x3f, r0	; 63
    19ea:	2d bf       	out	0x3d, r18	; 61
    19ec:	ed b7       	in	r30, 0x3d	; 61
    19ee:	fe b7       	in	r31, 0x3e	; 62
    19f0:	31 96       	adiw	r30, 0x01	; 1
    19f2:	2e e6       	ldi	r18, 0x6E	; 110
    19f4:	32 e0       	ldi	r19, 0x02	; 2
    19f6:	ad b7       	in	r26, 0x3d	; 61
    19f8:	be b7       	in	r27, 0x3e	; 62
    19fa:	12 96       	adiw	r26, 0x02	; 2
    19fc:	3c 93       	st	X, r19
    19fe:	2e 93       	st	-X, r18
    1a00:	11 97       	sbiw	r26, 0x01	; 1
    1a02:	12 83       	std	Z+2, r17	; 0x02
    1a04:	13 82       	std	Z+3, r1	; 0x03
    1a06:	04 83       	std	Z+4, r16	; 0x04
    1a08:	15 82       	std	Z+5, r1	; 0x05
    1a0a:	f6 82       	std	Z+6, r15	; 0x06
    1a0c:	17 82       	std	Z+7, r1	; 0x07
    1a0e:	e0 86       	std	Z+8, r14	; 0x08
    1a10:	11 86       	std	Z+9, r1	; 0x09
    1a12:	d2 86       	std	Z+10, r13	; 0x0a
    1a14:	13 86       	std	Z+11, r1	; 0x0b
    1a16:	84 87       	std	Z+12, r24	; 0x0c
    1a18:	15 86       	std	Z+13, r1	; 0x0d
    1a1a:	0e 94 20 19 	call	0x3240	; 0x3240 <usart_printf>
    1a1e:	11 e0       	ldi	r17, 0x01	; 1
    1a20:	ed b7       	in	r30, 0x3d	; 61
    1a22:	fe b7       	in	r31, 0x3e	; 62
    1a24:	3e 96       	adiw	r30, 0x0e	; 14
    1a26:	0f b6       	in	r0, 0x3f	; 63
    1a28:	f8 94       	cli
    1a2a:	fe bf       	out	0x3e, r31	; 62
    1a2c:	0f be       	out	0x3f, r0	; 63
    1a2e:	ed bf       	out	0x3d, r30	; 61

	} else {
		ret = 0;
	}

	reset_rxbuffer_eth();
    1a30:	0e 94 be 18 	call	0x317c	; 0x317c <reset_rxbuffer_eth>

	return ret;
}
    1a34:	81 2f       	mov	r24, r17
    1a36:	6d 96       	adiw	r28, 0x1d	; 29
    1a38:	0f b6       	in	r0, 0x3f	; 63
    1a3a:	f8 94       	cli
    1a3c:	de bf       	out	0x3e, r29	; 62
    1a3e:	0f be       	out	0x3f, r0	; 63
    1a40:	cd bf       	out	0x3d, r28	; 61
    1a42:	cf 91       	pop	r28
    1a44:	df 91       	pop	r29
    1a46:	1f 91       	pop	r17
    1a48:	0f 91       	pop	r16
    1a4a:	ff 90       	pop	r15
    1a4c:	ef 90       	pop	r14
    1a4e:	df 90       	pop	r13
    1a50:	cf 90       	pop	r12
    1a52:	bf 90       	pop	r11
    1a54:	af 90       	pop	r10
    1a56:	08 95       	ret

00001a58 <web_update>:
//		WIFI_RESET_ACT;
//		PORTE &= ~(1 << PE0);
//	}
//}

bool web_update(bool nrf_act) {
    1a58:	cf 92       	push	r12
    1a5a:	df 92       	push	r13
    1a5c:	ef 92       	push	r14
    1a5e:	ff 92       	push	r15
    1a60:	0f 93       	push	r16
    1a62:	1f 93       	push	r17
    1a64:	df 93       	push	r29
    1a66:	cf 93       	push	r28
    1a68:	cd b7       	in	r28, 0x3d	; 61
    1a6a:	de b7       	in	r29, 0x3e	; 62
    1a6c:	cf 5a       	subi	r28, 0xAF	; 175
    1a6e:	d0 40       	sbci	r29, 0x00	; 0
    1a70:	0f b6       	in	r0, 0x3f	; 63
    1a72:	f8 94       	cli
    1a74:	de bf       	out	0x3e, r29	; 62
    1a76:	0f be       	out	0x3f, r0	; 63
    1a78:	cd bf       	out	0x3d, r28	; 61
	bool ret = false;

	if (nrf_act) {
    1a7a:	88 23       	and	r24, r24
    1a7c:	29 f0       	breq	.+10     	; 0x1a88 <web_update+0x30>
		ext_measuredData.ext1_temp[2] = '.'; //workaround
    1a7e:	8e e2       	ldi	r24, 0x2E	; 46
    1a80:	80 93 9d 07 	sts	0x079D, r24
		ext_measuredData.ext1_hum[2] = '.'; //workaround
    1a84:	80 93 a2 07 	sts	0x07A2, r24
	}

	RemoveSpaces(ext_measuredData.ext1_temp);
    1a88:	8b e9       	ldi	r24, 0x9B	; 155
    1a8a:	97 e0       	ldi	r25, 0x07	; 7
    1a8c:	0e 94 ca 09 	call	0x1394	; 0x1394 <RemoveSpaces>
	RemoveSpaces(ext_measuredData.ext1_hum);
    1a90:	80 ea       	ldi	r24, 0xA0	; 160
    1a92:	97 e0       	ldi	r25, 0x07	; 7
    1a94:	0e 94 ca 09 	call	0x1394	; 0x1394 <RemoveSpaces>
	RemoveSpaces(ext_measuredData.ext1_airpressure);
    1a98:	85 ea       	ldi	r24, 0xA5	; 165
    1a9a:	97 e0       	ldi	r25, 0x07	; 7
    1a9c:	0e 94 ca 09 	call	0x1394	; 0x1394 <RemoveSpaces>
	RemoveSpaces(ext_measuredData.ext1_lux);
    1aa0:	8c ea       	ldi	r24, 0xAC	; 172
    1aa2:	97 e0       	ldi	r25, 0x07	; 7
    1aa4:	0e 94 ca 09 	call	0x1394	; 0x1394 <RemoveSpaces>
	RemoveSpaces(ext_measuredData.ext1_rain);
    1aa8:	82 eb       	ldi	r24, 0xB2	; 178
    1aaa:	97 e0       	ldi	r25, 0x07	; 7
    1aac:	0e 94 ca 09 	call	0x1394	; 0x1394 <RemoveSpaces>
	RemoveSpaces(ext_measuredData.ext1_batt);
    1ab0:	87 eb       	ldi	r24, 0xB7	; 183
    1ab2:	97 e0       	ldi	r25, 0x07	; 7
    1ab4:	0e 94 ca 09 	call	0x1394	; 0x1394 <RemoveSpaces>

	char cmd[150];
	strcpy(cmd, "AT+CIPSTART=\"TCP\",\"");
    1ab8:	4a e1       	ldi	r20, 0x1A	; 26
    1aba:	c4 2e       	mov	r12, r20
    1abc:	d1 2c       	mov	r13, r1
    1abe:	cc 0e       	add	r12, r28
    1ac0:	dd 1e       	adc	r13, r29
    1ac2:	c6 01       	movw	r24, r12
    1ac4:	6e e8       	ldi	r22, 0x8E	; 142
    1ac6:	72 e0       	ldi	r23, 0x02	; 2
    1ac8:	0e 94 5f 24 	call	0x48be	; 0x48be <strcpy>
	strcat(cmd, THINK_IP);
    1acc:	c6 01       	movw	r24, r12
    1ace:	62 ea       	ldi	r22, 0xA2	; 162
    1ad0:	72 e0       	ldi	r23, 0x02	; 2
    1ad2:	0e 94 54 24 	call	0x48a8	; 0x48a8 <strcat>
	strcat(cmd, "\",80");
    1ad6:	c6 01       	movw	r24, r12
    1ad8:	62 eb       	ldi	r22, 0xB2	; 178
    1ada:	72 e0       	ldi	r23, 0x02	; 2
    1adc:	0e 94 54 24 	call	0x48a8	; 0x48a8 <strcat>
	sendATCOM(cmd);
    1ae0:	c6 01       	movw	r24, r12
    1ae2:	0e 94 1b 19 	call	0x3236	; 0x3236 <sendATCOM>

	if (waitForATAnswer("OK", 20)) {
    1ae6:	8a e8       	ldi	r24, 0x8A	; 138
    1ae8:	91 e0       	ldi	r25, 0x01	; 1
    1aea:	64 e1       	ldi	r22, 0x14	; 20
    1aec:	70 e0       	ldi	r23, 0x00	; 0
    1aee:	0e 94 55 19 	call	0x32aa	; 0x32aa <waitForATAnswer>
    1af2:	88 23       	and	r24, r24
    1af4:	09 f4       	brne	.+2      	; 0x1af8 <web_update+0xa0>
    1af6:	c5 c0       	rjmp	.+394    	; 0x1c82 <web_update+0x22a>
		usart_printf("\nWEB CONN");
    1af8:	00 d0       	rcall	.+0      	; 0x1afa <web_update+0xa2>
    1afa:	87 eb       	ldi	r24, 0xB7	; 183
    1afc:	92 e0       	ldi	r25, 0x02	; 2
    1afe:	ed b7       	in	r30, 0x3d	; 61
    1b00:	fe b7       	in	r31, 0x3e	; 62
    1b02:	92 83       	std	Z+2, r25	; 0x02
    1b04:	81 83       	std	Z+1, r24	; 0x01
    1b06:	0e 94 20 19 	call	0x3240	; 0x3240 <usart_printf>
		strcpy(cmd, THINK_GET);
    1b0a:	0f 90       	pop	r0
    1b0c:	0f 90       	pop	r0
    1b0e:	c6 01       	movw	r24, r12
    1b10:	61 ec       	ldi	r22, 0xC1	; 193
    1b12:	72 e0       	ldi	r23, 0x02	; 2
    1b14:	0e 94 5f 24 	call	0x48be	; 0x48be <strcpy>
		strcat(cmd, "&field1=");
    1b18:	c6 01       	movw	r24, r12
    1b1a:	62 ee       	ldi	r22, 0xE2	; 226
    1b1c:	72 e0       	ldi	r23, 0x02	; 2
    1b1e:	0e 94 54 24 	call	0x48a8	; 0x48a8 <strcat>
		strcat(cmd, loc_measuredData.loc_temp);
    1b22:	c6 01       	movw	r24, r12
    1b24:	6d eb       	ldi	r22, 0xBD	; 189
    1b26:	77 e0       	ldi	r23, 0x07	; 7
    1b28:	0e 94 54 24 	call	0x48a8	; 0x48a8 <strcat>
		strcat(cmd, "&field2=");
    1b2c:	c6 01       	movw	r24, r12
    1b2e:	6b ee       	ldi	r22, 0xEB	; 235
    1b30:	72 e0       	ldi	r23, 0x02	; 2
    1b32:	0e 94 54 24 	call	0x48a8	; 0x48a8 <strcat>
		strcat(cmd, loc_measuredData.loc_hum);
    1b36:	c6 01       	movw	r24, r12
    1b38:	62 ec       	ldi	r22, 0xC2	; 194
    1b3a:	77 e0       	ldi	r23, 0x07	; 7
    1b3c:	0e 94 54 24 	call	0x48a8	; 0x48a8 <strcat>
		strcat(cmd, "&field3=");
    1b40:	c6 01       	movw	r24, r12
    1b42:	64 ef       	ldi	r22, 0xF4	; 244
    1b44:	72 e0       	ldi	r23, 0x02	; 2
    1b46:	0e 94 54 24 	call	0x48a8	; 0x48a8 <strcat>
		strcat(cmd, ext_measuredData.ext1_temp);
    1b4a:	c6 01       	movw	r24, r12
    1b4c:	6b e9       	ldi	r22, 0x9B	; 155
    1b4e:	77 e0       	ldi	r23, 0x07	; 7
    1b50:	0e 94 54 24 	call	0x48a8	; 0x48a8 <strcat>
		strcat(cmd, "&field4=");
    1b54:	c6 01       	movw	r24, r12
    1b56:	6d ef       	ldi	r22, 0xFD	; 253
    1b58:	72 e0       	ldi	r23, 0x02	; 2
    1b5a:	0e 94 54 24 	call	0x48a8	; 0x48a8 <strcat>
		strcat(cmd, ext_measuredData.ext1_hum);
    1b5e:	c6 01       	movw	r24, r12
    1b60:	60 ea       	ldi	r22, 0xA0	; 160
    1b62:	77 e0       	ldi	r23, 0x07	; 7
    1b64:	0e 94 54 24 	call	0x48a8	; 0x48a8 <strcat>
		strcat(cmd, "&field5=");
    1b68:	c6 01       	movw	r24, r12
    1b6a:	66 e0       	ldi	r22, 0x06	; 6
    1b6c:	73 e0       	ldi	r23, 0x03	; 3
    1b6e:	0e 94 54 24 	call	0x48a8	; 0x48a8 <strcat>
		strcat(cmd, ext_measuredData.ext1_airpressure);
    1b72:	c6 01       	movw	r24, r12
    1b74:	65 ea       	ldi	r22, 0xA5	; 165
    1b76:	77 e0       	ldi	r23, 0x07	; 7
    1b78:	0e 94 54 24 	call	0x48a8	; 0x48a8 <strcat>
		strcat(cmd, "&field6=");
    1b7c:	c6 01       	movw	r24, r12
    1b7e:	6f e0       	ldi	r22, 0x0F	; 15
    1b80:	73 e0       	ldi	r23, 0x03	; 3
    1b82:	0e 94 54 24 	call	0x48a8	; 0x48a8 <strcat>
		strcat(cmd, ext_measuredData.ext1_lux);
    1b86:	c6 01       	movw	r24, r12
    1b88:	6c ea       	ldi	r22, 0xAC	; 172
    1b8a:	77 e0       	ldi	r23, 0x07	; 7
    1b8c:	0e 94 54 24 	call	0x48a8	; 0x48a8 <strcat>
		strcat(cmd, "&field7=");
    1b90:	c6 01       	movw	r24, r12
    1b92:	68 e1       	ldi	r22, 0x18	; 24
    1b94:	73 e0       	ldi	r23, 0x03	; 3
    1b96:	0e 94 54 24 	call	0x48a8	; 0x48a8 <strcat>
		strcat(cmd, ext_measuredData.ext1_rain);
    1b9a:	c6 01       	movw	r24, r12
    1b9c:	62 eb       	ldi	r22, 0xB2	; 178
    1b9e:	77 e0       	ldi	r23, 0x07	; 7
    1ba0:	0e 94 54 24 	call	0x48a8	; 0x48a8 <strcat>
		strcat(cmd, "&field8=");
    1ba4:	c6 01       	movw	r24, r12
    1ba6:	61 e2       	ldi	r22, 0x21	; 33
    1ba8:	73 e0       	ldi	r23, 0x03	; 3
    1baa:	0e 94 54 24 	call	0x48a8	; 0x48a8 <strcat>
		strcat(cmd, ext_measuredData.ext1_batt);
    1bae:	c6 01       	movw	r24, r12
    1bb0:	67 eb       	ldi	r22, 0xB7	; 183
    1bb2:	77 e0       	ldi	r23, 0x07	; 7
    1bb4:	0e 94 54 24 	call	0x48a8	; 0x48a8 <strcat>
		strcat(cmd, "\r\n");
    1bb8:	c6 01       	movw	r24, r12
    1bba:	6a e2       	ldi	r22, 0x2A	; 42
    1bbc:	73 e0       	ldi	r23, 0x03	; 3
    1bbe:	0e 94 54 24 	call	0x48a8	; 0x48a8 <strcat>

		char lens[5];
		itoa(strlen(cmd), lens, 10);
    1bc2:	f6 01       	movw	r30, r12
    1bc4:	01 90       	ld	r0, Z+
    1bc6:	00 20       	and	r0, r0
    1bc8:	e9 f7       	brne	.-6      	; 0x1bc4 <web_update+0x16c>
    1bca:	31 97       	sbiw	r30, 0x01	; 1
    1bcc:	cf 01       	movw	r24, r30
    1bce:	8c 19       	sub	r24, r12
    1bd0:	9d 09       	sbc	r25, r13
    1bd2:	7e 01       	movw	r14, r28
    1bd4:	08 94       	sec
    1bd6:	e1 1c       	adc	r14, r1
    1bd8:	f1 1c       	adc	r15, r1
    1bda:	b7 01       	movw	r22, r14
    1bdc:	4a e0       	ldi	r20, 0x0A	; 10
    1bde:	50 e0       	ldi	r21, 0x00	; 0
    1be0:	0e 94 8f 24 	call	0x491e	; 0x491e <itoa>
		char cmd2[20];
		strcpy(cmd2, "AT+CIPSEND=");
    1be4:	8e 01       	movw	r16, r28
    1be6:	0a 5f       	subi	r16, 0xFA	; 250
    1be8:	1f 4f       	sbci	r17, 0xFF	; 255
    1bea:	c8 01       	movw	r24, r16
    1bec:	6d e2       	ldi	r22, 0x2D	; 45
    1bee:	73 e0       	ldi	r23, 0x03	; 3
    1bf0:	0e 94 5f 24 	call	0x48be	; 0x48be <strcpy>
		strcat(cmd2, lens);
    1bf4:	c8 01       	movw	r24, r16
    1bf6:	b7 01       	movw	r22, r14
    1bf8:	0e 94 54 24 	call	0x48a8	; 0x48a8 <strcat>

		sendATCOM(cmd2);
    1bfc:	c8 01       	movw	r24, r16
    1bfe:	0e 94 1b 19 	call	0x3236	; 0x3236 <sendATCOM>

		if (waitForATAnswer(">", 20)) {
    1c02:	89 e3       	ldi	r24, 0x39	; 57
    1c04:	93 e0       	ldi	r25, 0x03	; 3
    1c06:	64 e1       	ldi	r22, 0x14	; 20
    1c08:	70 e0       	ldi	r23, 0x00	; 0
    1c0a:	0e 94 55 19 	call	0x32aa	; 0x32aa <waitForATAnswer>
    1c0e:	88 23       	and	r24, r24
    1c10:	b1 f0       	breq	.+44     	; 0x1c3e <web_update+0x1e6>
			sendATCOM(cmd);
    1c12:	c6 01       	movw	r24, r12
    1c14:	0e 94 1b 19 	call	0x3236	; 0x3236 <sendATCOM>
			if (!waitForATAnswer("CLOSED", 50)) {
    1c18:	8b e3       	ldi	r24, 0x3B	; 59
    1c1a:	93 e0       	ldi	r25, 0x03	; 3
    1c1c:	62 e3       	ldi	r22, 0x32	; 50
    1c1e:	70 e0       	ldi	r23, 0x00	; 0
    1c20:	0e 94 55 19 	call	0x32aa	; 0x32aa <waitForATAnswer>
    1c24:	88 23       	and	r24, r24
    1c26:	21 f4       	brne	.+8      	; 0x1c30 <web_update+0x1d8>
				sendATCOM("AT+CIPCLOSE");
    1c28:	82 e4       	ldi	r24, 0x42	; 66
    1c2a:	93 e0       	ldi	r25, 0x03	; 3
    1c2c:	0e 94 1b 19 	call	0x3236	; 0x3236 <sendATCOM>
			}
			LED_RED_OFF;
    1c30:	80 91 62 00 	lds	r24, 0x0062
    1c34:	8f 7e       	andi	r24, 0xEF	; 239
    1c36:	80 93 62 00 	sts	0x0062, r24
    1c3a:	81 e0       	ldi	r24, 0x01	; 1
    1c3c:	4d c0       	rjmp	.+154    	; 0x1cd8 <web_update+0x280>
			ret = true;
		} else {
			LED_RED_ON;
    1c3e:	80 91 62 00 	lds	r24, 0x0062
    1c42:	80 61       	ori	r24, 0x10	; 16
    1c44:	80 93 62 00 	sts	0x0062, r24
			WIFI_RESET_ACT;
    1c48:	80 91 62 00 	lds	r24, 0x0062
    1c4c:	8d 7f       	andi	r24, 0xFD	; 253
    1c4e:	80 93 62 00 	sts	0x0062, r24
    1c52:	88 ee       	ldi	r24, 0xE8	; 232
    1c54:	93 e0       	ldi	r25, 0x03	; 3
    1c56:	20 e9       	ldi	r18, 0x90	; 144
    1c58:	31 e0       	ldi	r19, 0x01	; 1
    1c5a:	f9 01       	movw	r30, r18
    1c5c:	31 97       	sbiw	r30, 0x01	; 1
    1c5e:	f1 f7       	brne	.-4      	; 0x1c5c <web_update+0x204>
		{
			// wait 1/10 ms
			_delay_loop_2(((F_CPU) / 4e3) / 10);
			__ticks --;
    1c60:	01 97       	sbiw	r24, 0x01	; 1
		__ticks = 1;
	else if (__tmp > 65535)
	{
		//	__ticks = requested delay in 1/10 ms
		__ticks = (uint16_t) (__ms * 10.0);
		while(__ticks)
    1c62:	d9 f7       	brne	.-10     	; 0x1c5a <web_update+0x202>
			_delay_ms(100);
			WIFI_RESET_DIS;
    1c64:	80 91 62 00 	lds	r24, 0x0062
    1c68:	82 60       	ori	r24, 0x02	; 2
    1c6a:	80 93 62 00 	sts	0x0062, r24
    1c6e:	80 e3       	ldi	r24, 0x30	; 48
    1c70:	95 e7       	ldi	r25, 0x75	; 117
    1c72:	20 e9       	ldi	r18, 0x90	; 144
    1c74:	31 e0       	ldi	r19, 0x01	; 1
    1c76:	f9 01       	movw	r30, r18
    1c78:	31 97       	sbiw	r30, 0x01	; 1
    1c7a:	f1 f7       	brne	.-4      	; 0x1c78 <web_update+0x220>
		{
			// wait 1/10 ms
			_delay_loop_2(((F_CPU) / 4e3) / 10);
			__ticks --;
    1c7c:	01 97       	sbiw	r24, 0x01	; 1
		__ticks = 1;
	else if (__tmp > 65535)
	{
		//	__ticks = requested delay in 1/10 ms
		__ticks = (uint16_t) (__ms * 10.0);
		while(__ticks)
    1c7e:	d9 f7       	brne	.-10     	; 0x1c76 <web_update+0x21e>
    1c80:	21 c0       	rjmp	.+66     	; 0x1cc4 <web_update+0x26c>
			loc_measuredData.wifiErr++;
			ret = false;
		}
	} else {
		//usart_printf("\n%s", "Error");
		LED_RED_ON;
    1c82:	80 91 62 00 	lds	r24, 0x0062
    1c86:	80 61       	ori	r24, 0x10	; 16
    1c88:	80 93 62 00 	sts	0x0062, r24
		WIFI_RESET_ACT;
    1c8c:	80 91 62 00 	lds	r24, 0x0062
    1c90:	8d 7f       	andi	r24, 0xFD	; 253
    1c92:	80 93 62 00 	sts	0x0062, r24
    1c96:	88 ee       	ldi	r24, 0xE8	; 232
    1c98:	93 e0       	ldi	r25, 0x03	; 3
    1c9a:	20 e9       	ldi	r18, 0x90	; 144
    1c9c:	31 e0       	ldi	r19, 0x01	; 1
    1c9e:	f9 01       	movw	r30, r18
    1ca0:	31 97       	sbiw	r30, 0x01	; 1
    1ca2:	f1 f7       	brne	.-4      	; 0x1ca0 <web_update+0x248>
		{
			// wait 1/10 ms
			_delay_loop_2(((F_CPU) / 4e3) / 10);
			__ticks --;
    1ca4:	01 97       	sbiw	r24, 0x01	; 1
		__ticks = 1;
	else if (__tmp > 65535)
	{
		//	__ticks = requested delay in 1/10 ms
		__ticks = (uint16_t) (__ms * 10.0);
		while(__ticks)
    1ca6:	d9 f7       	brne	.-10     	; 0x1c9e <web_update+0x246>
		_delay_ms(100);
		WIFI_RESET_DIS;
    1ca8:	80 91 62 00 	lds	r24, 0x0062
    1cac:	82 60       	ori	r24, 0x02	; 2
    1cae:	80 93 62 00 	sts	0x0062, r24
    1cb2:	80 e3       	ldi	r24, 0x30	; 48
    1cb4:	95 e7       	ldi	r25, 0x75	; 117
    1cb6:	20 e9       	ldi	r18, 0x90	; 144
    1cb8:	31 e0       	ldi	r19, 0x01	; 1
    1cba:	f9 01       	movw	r30, r18
    1cbc:	31 97       	sbiw	r30, 0x01	; 1
    1cbe:	f1 f7       	brne	.-4      	; 0x1cbc <web_update+0x264>
		{
			// wait 1/10 ms
			_delay_loop_2(((F_CPU) / 4e3) / 10);
			__ticks --;
    1cc0:	01 97       	sbiw	r24, 0x01	; 1
		__ticks = 1;
	else if (__tmp > 65535)
	{
		//	__ticks = requested delay in 1/10 ms
		__ticks = (uint16_t) (__ms * 10.0);
		while(__ticks)
    1cc2:	d9 f7       	brne	.-10     	; 0x1cba <web_update+0x262>
		_delay_ms(3000);
		loc_measuredData.wifiErr++;
    1cc4:	80 91 c9 07 	lds	r24, 0x07C9
    1cc8:	90 91 ca 07 	lds	r25, 0x07CA
    1ccc:	01 96       	adiw	r24, 0x01	; 1
    1cce:	90 93 ca 07 	sts	0x07CA, r25
    1cd2:	80 93 c9 07 	sts	0x07C9, r24
    1cd6:	80 e0       	ldi	r24, 0x00	; 0
		ret = false;
	}

	return ret;
}
    1cd8:	c1 55       	subi	r28, 0x51	; 81
    1cda:	df 4f       	sbci	r29, 0xFF	; 255
    1cdc:	0f b6       	in	r0, 0x3f	; 63
    1cde:	f8 94       	cli
    1ce0:	de bf       	out	0x3e, r29	; 62
    1ce2:	0f be       	out	0x3f, r0	; 63
    1ce4:	cd bf       	out	0x3d, r28	; 61
    1ce6:	cf 91       	pop	r28
    1ce8:	df 91       	pop	r29
    1cea:	1f 91       	pop	r17
    1cec:	0f 91       	pop	r16
    1cee:	ff 90       	pop	r15
    1cf0:	ef 90       	pop	r14
    1cf2:	df 90       	pop	r13
    1cf4:	cf 90       	pop	r12
    1cf6:	08 95       	ret

00001cf8 <custom_chars>:
}

//////////////////////////////////////////////////////////////////////////
void custom_chars(void) {
	/* custom character */
	lcd_clrscr();
    1cf8:	0e 94 5b 14 	call	0x28b6	; 0x28b6 <lcd_clrscr>
//int temp
	lcd_command(0x40); //CGRAM
    1cfc:	80 e4       	ldi	r24, 0x40	; 64
    1cfe:	0e 94 33 14 	call	0x2866	; 0x2866 <lcd_command>
	lcd_data(0b00100);
    1d02:	84 e0       	ldi	r24, 0x04	; 4
    1d04:	0e 94 3d 14 	call	0x287a	; 0x287a <lcd_data>
	lcd_data(0b01100);
    1d08:	8c e0       	ldi	r24, 0x0C	; 12
    1d0a:	0e 94 3d 14 	call	0x287a	; 0x287a <lcd_data>
	lcd_data(0b00100);
    1d0e:	84 e0       	ldi	r24, 0x04	; 4
    1d10:	0e 94 3d 14 	call	0x287a	; 0x287a <lcd_data>
	lcd_data(0b01100);
    1d14:	8c e0       	ldi	r24, 0x0C	; 12
    1d16:	0e 94 3d 14 	call	0x287a	; 0x287a <lcd_data>
	lcd_data(0b00100);
    1d1a:	84 e0       	ldi	r24, 0x04	; 4
    1d1c:	0e 94 3d 14 	call	0x287a	; 0x287a <lcd_data>
	lcd_data(0b01110);
    1d20:	8e e0       	ldi	r24, 0x0E	; 14
    1d22:	0e 94 3d 14 	call	0x287a	; 0x287a <lcd_data>
	lcd_data(0b01110);
    1d26:	8e e0       	ldi	r24, 0x0E	; 14
    1d28:	0e 94 3d 14 	call	0x287a	; 0x287a <lcd_data>
	lcd_data(0b00100);
    1d2c:	84 e0       	ldi	r24, 0x04	; 4
    1d2e:	0e 94 3d 14 	call	0x287a	; 0x287a <lcd_data>
//ext temp
	lcd_data(0b11011);
    1d32:	8b e1       	ldi	r24, 0x1B	; 27
    1d34:	0e 94 3d 14 	call	0x287a	; 0x287a <lcd_data>
	lcd_data(0b10011);
    1d38:	83 e1       	ldi	r24, 0x13	; 19
    1d3a:	0e 94 3d 14 	call	0x287a	; 0x287a <lcd_data>
	lcd_data(0b11011);
    1d3e:	8b e1       	ldi	r24, 0x1B	; 27
    1d40:	0e 94 3d 14 	call	0x287a	; 0x287a <lcd_data>
	lcd_data(0b10011);
    1d44:	83 e1       	ldi	r24, 0x13	; 19
    1d46:	0e 94 3d 14 	call	0x287a	; 0x287a <lcd_data>
	lcd_data(0b11011);
    1d4a:	8b e1       	ldi	r24, 0x1B	; 27
    1d4c:	0e 94 3d 14 	call	0x287a	; 0x287a <lcd_data>
	lcd_data(0b10001);
    1d50:	81 e1       	ldi	r24, 0x11	; 17
    1d52:	0e 94 3d 14 	call	0x287a	; 0x287a <lcd_data>
	lcd_data(0b10001);
    1d56:	81 e1       	ldi	r24, 0x11	; 17
    1d58:	0e 94 3d 14 	call	0x287a	; 0x287a <lcd_data>
	lcd_data(0b11011);
    1d5c:	8b e1       	ldi	r24, 0x1B	; 27
    1d5e:	0e 94 3d 14 	call	0x287a	; 0x287a <lcd_data>
//int hum
	lcd_data(0b00100);
    1d62:	84 e0       	ldi	r24, 0x04	; 4
    1d64:	0e 94 3d 14 	call	0x287a	; 0x287a <lcd_data>
	lcd_data(0b01110);
    1d68:	8e e0       	ldi	r24, 0x0E	; 14
    1d6a:	0e 94 3d 14 	call	0x287a	; 0x287a <lcd_data>
	lcd_data(0b01110);
    1d6e:	8e e0       	ldi	r24, 0x0E	; 14
    1d70:	0e 94 3d 14 	call	0x287a	; 0x287a <lcd_data>
	lcd_data(0b11111);
    1d74:	8f e1       	ldi	r24, 0x1F	; 31
    1d76:	0e 94 3d 14 	call	0x287a	; 0x287a <lcd_data>
	lcd_data(0b11111);
    1d7a:	8f e1       	ldi	r24, 0x1F	; 31
    1d7c:	0e 94 3d 14 	call	0x287a	; 0x287a <lcd_data>
	lcd_data(0b11111);
    1d80:	8f e1       	ldi	r24, 0x1F	; 31
    1d82:	0e 94 3d 14 	call	0x287a	; 0x287a <lcd_data>
	lcd_data(0b01110);
    1d86:	8e e0       	ldi	r24, 0x0E	; 14
    1d88:	0e 94 3d 14 	call	0x287a	; 0x287a <lcd_data>
	lcd_data(0b00100);
    1d8c:	84 e0       	ldi	r24, 0x04	; 4
    1d8e:	0e 94 3d 14 	call	0x287a	; 0x287a <lcd_data>
//ext hum
	lcd_data(0b11011);
    1d92:	8b e1       	ldi	r24, 0x1B	; 27
    1d94:	0e 94 3d 14 	call	0x287a	; 0x287a <lcd_data>
	lcd_data(0b10001);
    1d98:	81 e1       	ldi	r24, 0x11	; 17
    1d9a:	0e 94 3d 14 	call	0x287a	; 0x287a <lcd_data>
	lcd_data(0b10001);
    1d9e:	81 e1       	ldi	r24, 0x11	; 17
    1da0:	0e 94 3d 14 	call	0x287a	; 0x287a <lcd_data>
	lcd_data(0b00000);
    1da4:	80 e0       	ldi	r24, 0x00	; 0
    1da6:	0e 94 3d 14 	call	0x287a	; 0x287a <lcd_data>
	lcd_data(0b00000);
    1daa:	80 e0       	ldi	r24, 0x00	; 0
    1dac:	0e 94 3d 14 	call	0x287a	; 0x287a <lcd_data>
	lcd_data(0b00000);
    1db0:	80 e0       	ldi	r24, 0x00	; 0
    1db2:	0e 94 3d 14 	call	0x287a	; 0x287a <lcd_data>
	lcd_data(0b10001);
    1db6:	81 e1       	ldi	r24, 0x11	; 17
    1db8:	0e 94 3d 14 	call	0x287a	; 0x287a <lcd_data>
	lcd_data(0b11011);
    1dbc:	8b e1       	ldi	r24, 0x1B	; 27
    1dbe:	0e 94 3d 14 	call	0x287a	; 0x287a <lcd_data>
//celsius
	lcd_data(0b00110);
    1dc2:	86 e0       	ldi	r24, 0x06	; 6
    1dc4:	0e 94 3d 14 	call	0x287a	; 0x287a <lcd_data>
	lcd_data(0b01001);
    1dc8:	89 e0       	ldi	r24, 0x09	; 9
    1dca:	0e 94 3d 14 	call	0x287a	; 0x287a <lcd_data>
	lcd_data(0b01001);
    1dce:	89 e0       	ldi	r24, 0x09	; 9
    1dd0:	0e 94 3d 14 	call	0x287a	; 0x287a <lcd_data>
	lcd_data(0b00110);
    1dd4:	86 e0       	ldi	r24, 0x06	; 6
    1dd6:	0e 94 3d 14 	call	0x287a	; 0x287a <lcd_data>
	lcd_data(0b00000);
    1dda:	80 e0       	ldi	r24, 0x00	; 0
    1ddc:	0e 94 3d 14 	call	0x287a	; 0x287a <lcd_data>
	lcd_data(0b00000);
    1de0:	80 e0       	ldi	r24, 0x00	; 0
    1de2:	0e 94 3d 14 	call	0x287a	; 0x287a <lcd_data>
	lcd_data(0b00000);
    1de6:	80 e0       	ldi	r24, 0x00	; 0
    1de8:	0e 94 3d 14 	call	0x287a	; 0x287a <lcd_data>
	lcd_data(0b00000);
    1dec:	80 e0       	ldi	r24, 0x00	; 0
    1dee:	0e 94 3d 14 	call	0x287a	; 0x287a <lcd_data>
//lux
	lcd_data(0b00100);
    1df2:	84 e0       	ldi	r24, 0x04	; 4
    1df4:	0e 94 3d 14 	call	0x287a	; 0x287a <lcd_data>
	lcd_data(0b10101);
    1df8:	85 e1       	ldi	r24, 0x15	; 21
    1dfa:	0e 94 3d 14 	call	0x287a	; 0x287a <lcd_data>
	lcd_data(0b01110);
    1dfe:	8e e0       	ldi	r24, 0x0E	; 14
    1e00:	0e 94 3d 14 	call	0x287a	; 0x287a <lcd_data>
	lcd_data(0b11111);
    1e04:	8f e1       	ldi	r24, 0x1F	; 31
    1e06:	0e 94 3d 14 	call	0x287a	; 0x287a <lcd_data>
	lcd_data(0b01110);
    1e0a:	8e e0       	ldi	r24, 0x0E	; 14
    1e0c:	0e 94 3d 14 	call	0x287a	; 0x287a <lcd_data>
	lcd_data(0b10101);
    1e10:	85 e1       	ldi	r24, 0x15	; 21
    1e12:	0e 94 3d 14 	call	0x287a	; 0x287a <lcd_data>
	lcd_data(0b00100);
    1e16:	84 e0       	ldi	r24, 0x04	; 4
    1e18:	0e 94 3d 14 	call	0x287a	; 0x287a <lcd_data>
	lcd_data(0b00000);
    1e1c:	80 e0       	ldi	r24, 0x00	; 0
    1e1e:	0e 94 3d 14 	call	0x287a	; 0x287a <lcd_data>
//PRS
	lcd_data(0b01110);
    1e22:	8e e0       	ldi	r24, 0x0E	; 14
    1e24:	0e 94 3d 14 	call	0x287a	; 0x287a <lcd_data>
	lcd_data(0b00100);
    1e28:	84 e0       	ldi	r24, 0x04	; 4
    1e2a:	0e 94 3d 14 	call	0x287a	; 0x287a <lcd_data>
	lcd_data(0b00100);
    1e2e:	84 e0       	ldi	r24, 0x04	; 4
    1e30:	0e 94 3d 14 	call	0x287a	; 0x287a <lcd_data>
	lcd_data(0b10101);
    1e34:	85 e1       	ldi	r24, 0x15	; 21
    1e36:	0e 94 3d 14 	call	0x287a	; 0x287a <lcd_data>
	lcd_data(0b11111);
    1e3a:	8f e1       	ldi	r24, 0x1F	; 31
    1e3c:	0e 94 3d 14 	call	0x287a	; 0x287a <lcd_data>
	lcd_data(0b11111);
    1e40:	8f e1       	ldi	r24, 0x1F	; 31
    1e42:	0e 94 3d 14 	call	0x287a	; 0x287a <lcd_data>
	lcd_data(0b10001);
    1e46:	81 e1       	ldi	r24, 0x11	; 17
    1e48:	0e 94 3d 14 	call	0x287a	; 0x287a <lcd_data>
	lcd_data(0b11111);
    1e4c:	8f e1       	ldi	r24, 0x1F	; 31
    1e4e:	0e 94 3d 14 	call	0x287a	; 0x287a <lcd_data>

//hpa
	lcd_data(0b10000);
    1e52:	80 e1       	ldi	r24, 0x10	; 16
    1e54:	0e 94 3d 14 	call	0x287a	; 0x287a <lcd_data>
	lcd_data(0b11100);
    1e58:	8c e1       	ldi	r24, 0x1C	; 28
    1e5a:	0e 94 3d 14 	call	0x287a	; 0x287a <lcd_data>
	lcd_data(0b10100);
    1e5e:	84 e1       	ldi	r24, 0x14	; 20
    1e60:	0e 94 3d 14 	call	0x287a	; 0x287a <lcd_data>
	lcd_data(0b00000);
    1e64:	80 e0       	ldi	r24, 0x00	; 0
    1e66:	0e 94 3d 14 	call	0x287a	; 0x287a <lcd_data>
	lcd_data(0b11010);
    1e6a:	8a e1       	ldi	r24, 0x1A	; 26
    1e6c:	0e 94 3d 14 	call	0x287a	; 0x287a <lcd_data>
	lcd_data(0b10101);
    1e70:	85 e1       	ldi	r24, 0x15	; 21
    1e72:	0e 94 3d 14 	call	0x287a	; 0x287a <lcd_data>
	lcd_data(0b11111);
    1e76:	8f e1       	ldi	r24, 0x1F	; 31
    1e78:	0e 94 3d 14 	call	0x287a	; 0x287a <lcd_data>
	lcd_data(0b10101);
    1e7c:	85 e1       	ldi	r24, 0x15	; 21
    1e7e:	0e 94 3d 14 	call	0x287a	; 0x287a <lcd_data>
//	lcd_data(0b11001);
//	lcd_data(0b10110);
//	lcd_data(0b10110);
//	lcd_data(0b11001);

	lcd_command(0x80); //DDRAM
    1e82:	80 e8       	ldi	r24, 0x80	; 128
    1e84:	0e 94 33 14 	call	0x2866	; 0x2866 <lcd_command>
}
    1e88:	08 95       	ret

00001e8a <testNixies>:

	//nixie_suppy(2);

}

void testNixies(void) {
    1e8a:	ef 92       	push	r14
    1e8c:	ff 92       	push	r15
    1e8e:	1f 93       	push	r17
    1e90:	cf 93       	push	r28
    1e92:	df 93       	push	r29
	nixie_enable_mask = 0b0001111;
    1e94:	8f e0       	ldi	r24, 0x0F	; 15
    1e96:	80 93 15 07 	sts	0x0715, r24
	all_nixies_on();
    1e9a:	0e 94 88 15 	call	0x2b10	; 0x2b10 <all_nixies_on>
	NIXIES_ENABLE;
    1e9e:	87 b7       	in	r24, 0x37	; 55
    1ea0:	80 64       	ori	r24, 0x40	; 64
    1ea2:	87 bf       	out	0x37, r24	; 55
    1ea4:	10 e0       	ldi	r17, 0x00	; 0
		for (uint8_t i = 0; i < 10; i++) {
			digit[0] = i;
			digit[1] = i;
			digit[2] = i;
			digit[3] = i;
			usart_printf("\n%d", i);
    1ea6:	5e e4       	ldi	r21, 0x4E	; 78
    1ea8:	e5 2e       	mov	r14, r21
    1eaa:	53 e0       	ldi	r21, 0x03	; 3
    1eac:	f5 2e       	mov	r15, r21
    1eae:	c0 e9       	ldi	r28, 0x90	; 144
    1eb0:	d1 e0       	ldi	r29, 0x01	; 1
	all_nixies_on();
	NIXIES_ENABLE;
	while (1) {

		for (uint8_t i = 0; i < 10; i++) {
			digit[0] = i;
    1eb2:	10 93 2f 07 	sts	0x072F, r17
			digit[1] = i;
    1eb6:	10 93 30 07 	sts	0x0730, r17
			digit[2] = i;
    1eba:	10 93 31 07 	sts	0x0731, r17
			digit[3] = i;
    1ebe:	10 93 32 07 	sts	0x0732, r17
			usart_printf("\n%d", i);
    1ec2:	00 d0       	rcall	.+0      	; 0x1ec4 <testNixies+0x3a>
    1ec4:	00 d0       	rcall	.+0      	; 0x1ec6 <testNixies+0x3c>
    1ec6:	ed b7       	in	r30, 0x3d	; 61
    1ec8:	fe b7       	in	r31, 0x3e	; 62
    1eca:	31 96       	adiw	r30, 0x01	; 1
    1ecc:	ad b7       	in	r26, 0x3d	; 61
    1ece:	be b7       	in	r27, 0x3e	; 62
    1ed0:	12 96       	adiw	r26, 0x02	; 2
    1ed2:	fc 92       	st	X, r15
    1ed4:	ee 92       	st	-X, r14
    1ed6:	11 97       	sbiw	r26, 0x01	; 1
    1ed8:	12 83       	std	Z+2, r17	; 0x02
    1eda:	13 82       	std	Z+3, r1	; 0x03
    1edc:	0e 94 20 19 	call	0x3240	; 0x3240 <usart_printf>
    1ee0:	88 e8       	ldi	r24, 0x88	; 136
    1ee2:	93 e1       	ldi	r25, 0x13	; 19
    1ee4:	0f 90       	pop	r0
    1ee6:	0f 90       	pop	r0
    1ee8:	0f 90       	pop	r0
    1eea:	0f 90       	pop	r0
    1eec:	fe 01       	movw	r30, r28
    1eee:	31 97       	sbiw	r30, 0x01	; 1
    1ef0:	f1 f7       	brne	.-4      	; 0x1eee <testNixies+0x64>
		{
			// wait 1/10 ms
			_delay_loop_2(((F_CPU) / 4e3) / 10);
			__ticks --;
    1ef2:	01 97       	sbiw	r24, 0x01	; 1
		__ticks = 1;
	else if (__tmp > 65535)
	{
		//	__ticks = requested delay in 1/10 ms
		__ticks = (uint16_t) (__ms * 10.0);
		while(__ticks)
    1ef4:	d9 f7       	brne	.-10     	; 0x1eec <testNixies+0x62>
	nixie_enable_mask = 0b0001111;
	all_nixies_on();
	NIXIES_ENABLE;
	while (1) {

		for (uint8_t i = 0; i < 10; i++) {
    1ef6:	1f 5f       	subi	r17, 0xFF	; 255
    1ef8:	1a 30       	cpi	r17, 0x0A	; 10
    1efa:	d8 f2       	brcs	.-74     	; 0x1eb2 <testNixies+0x28>
    1efc:	10 e0       	ldi	r17, 0x00	; 0
    1efe:	d9 cf       	rjmp	.-78     	; 0x1eb2 <testNixies+0x28>

00001f00 <wellcome>:
		;
	return (ADCH);
}

//--------------wellcome----------------------------------------------
void wellcome(void) {
    1f00:	cf 92       	push	r12
    1f02:	df 92       	push	r13
    1f04:	ef 92       	push	r14
    1f06:	ff 92       	push	r15
    1f08:	0f 93       	push	r16
    1f0a:	1f 93       	push	r17
    1f0c:	cf 93       	push	r28
    1f0e:	df 93       	push	r29
	NIXIE_1_DISABLE;
    1f10:	ab 98       	cbi	0x15, 3	; 21
	NIXIE_2_DISABLE;
    1f12:	ac 98       	cbi	0x15, 4	; 21
	NIXIE_3_DISABLE;
    1f14:	ad 98       	cbi	0x15, 5	; 21
	NIXIE_4_DISABLE;
    1f16:	80 91 62 00 	lds	r24, 0x0062
    1f1a:	8f 7b       	andi	r24, 0xBF	; 191
    1f1c:	80 93 62 00 	sts	0x0062, r24
    1f20:	80 e1       	ldi	r24, 0x10	; 16
    1f22:	97 e2       	ldi	r25, 0x27	; 39
    1f24:	20 e9       	ldi	r18, 0x90	; 144
    1f26:	31 e0       	ldi	r19, 0x01	; 1
    1f28:	f9 01       	movw	r30, r18
    1f2a:	31 97       	sbiw	r30, 0x01	; 1
    1f2c:	f1 f7       	brne	.-4      	; 0x1f2a <wellcome+0x2a>
		{
			// wait 1/10 ms
			_delay_loop_2(((F_CPU) / 4e3) / 10);
			__ticks --;
    1f2e:	01 97       	sbiw	r24, 0x01	; 1
		__ticks = 1;
	else if (__tmp > 65535)
	{
		//	__ticks = requested delay in 1/10 ms
		__ticks = (uint16_t) (__ms * 10.0);
		while(__ticks)
    1f30:	d9 f7       	brne	.-10     	; 0x1f28 <wellcome+0x28>
    1f32:	c0 e0       	ldi	r28, 0x00	; 0
    1f34:	d0 e0       	ldi	r29, 0x00	; 0
    1f36:	00 ee       	ldi	r16, 0xE0	; 224
    1f38:	1b ea       	ldi	r17, 0xAB	; 171
	//nixie_rgb(255,255,pgm_read_word( &pwmtable[k]));
	//_delay_ms(7);
	//}

	for (uint16_t k = 0; k < 250; k++) {
		if (k < 80)
    1f3a:	c0 35       	cpi	r28, 0x50	; 80
    1f3c:	d1 05       	cpc	r29, r1
    1f3e:	18 f4       	brcc	.+6      	; 0x1f46 <wellcome+0x46>
			set_nixie_rgb(k, k, 0);
    1f40:	ce 01       	movw	r24, r28
    1f42:	be 01       	movw	r22, r28
    1f44:	03 c0       	rjmp	.+6      	; 0x1f4c <wellcome+0x4c>
		else
			set_nixie_rgb(k, 80, 0);
    1f46:	ce 01       	movw	r24, r28
    1f48:	60 e5       	ldi	r22, 0x50	; 80
    1f4a:	70 e0       	ldi	r23, 0x00	; 0
    1f4c:	40 e0       	ldi	r20, 0x00	; 0
    1f4e:	50 e0       	ldi	r21, 0x00	; 0
    1f50:	0e 94 f0 14 	call	0x29e0	; 0x29e0 <set_nixie_rgb>
    1f54:	c8 01       	movw	r24, r16
    1f56:	01 97       	sbiw	r24, 0x01	; 1
    1f58:	f1 f7       	brne	.-4      	; 0x1f56 <wellcome+0x56>
	//{
	//nixie_rgb(255,255,pgm_read_word( &pwmtable[k]));
	//_delay_ms(7);
	//}

	for (uint16_t k = 0; k < 250; k++) {
    1f5a:	21 96       	adiw	r28, 0x01	; 1
    1f5c:	ca 3f       	cpi	r28, 0xFA	; 250
    1f5e:	d1 05       	cpc	r29, r1
    1f60:	61 f7       	brne	.-40     	; 0x1f3a <wellcome+0x3a>
    1f62:	80 e1       	ldi	r24, 0x10	; 16
    1f64:	97 e2       	ldi	r25, 0x27	; 39
    1f66:	20 e9       	ldi	r18, 0x90	; 144
    1f68:	31 e0       	ldi	r19, 0x01	; 1
    1f6a:	f9 01       	movw	r30, r18
    1f6c:	31 97       	sbiw	r30, 0x01	; 1
    1f6e:	f1 f7       	brne	.-4      	; 0x1f6c <wellcome+0x6c>
		{
			// wait 1/10 ms
			_delay_loop_2(((F_CPU) / 4e3) / 10);
			__ticks --;
    1f70:	01 97       	sbiw	r24, 0x01	; 1
		__ticks = 1;
	else if (__tmp > 65535)
	{
		//	__ticks = requested delay in 1/10 ms
		__ticks = (uint16_t) (__ms * 10.0);
		while(__ticks)
    1f72:	d9 f7       	brne	.-10     	; 0x1f6a <wellcome+0x6a>
			set_nixie_rgb(k, 80, 0);
		_delay_ms(11);
	}

	_delay_ms(1000);
	GLOW_MINUS_ON;
    1f74:	ae 9a       	sbi	0x15, 6	; 21
    1f76:	88 eb       	ldi	r24, 0xB8	; 184
    1f78:	9b e0       	ldi	r25, 0x0B	; 11
    1f7a:	20 e9       	ldi	r18, 0x90	; 144
    1f7c:	31 e0       	ldi	r19, 0x01	; 1
    1f7e:	f9 01       	movw	r30, r18
    1f80:	31 97       	sbiw	r30, 0x01	; 1
    1f82:	f1 f7       	brne	.-4      	; 0x1f80 <wellcome+0x80>
		{
			// wait 1/10 ms
			_delay_loop_2(((F_CPU) / 4e3) / 10);
			__ticks --;
    1f84:	01 97       	sbiw	r24, 0x01	; 1
		__ticks = 1;
	else if (__tmp > 65535)
	{
		//	__ticks = requested delay in 1/10 ms
		__ticks = (uint16_t) (__ms * 10.0);
		while(__ticks)
    1f86:	d9 f7       	brne	.-10     	; 0x1f7e <wellcome+0x7e>
	_delay_ms(300);
	NIXIE_1_ENABLE;
    1f88:	ab 9a       	sbi	0x15, 3	; 21
    1f8a:	88 eb       	ldi	r24, 0xB8	; 184
    1f8c:	9b e0       	ldi	r25, 0x0B	; 11
    1f8e:	20 e9       	ldi	r18, 0x90	; 144
    1f90:	31 e0       	ldi	r19, 0x01	; 1
    1f92:	f9 01       	movw	r30, r18
    1f94:	31 97       	sbiw	r30, 0x01	; 1
    1f96:	f1 f7       	brne	.-4      	; 0x1f94 <wellcome+0x94>
		{
			// wait 1/10 ms
			_delay_loop_2(((F_CPU) / 4e3) / 10);
			__ticks --;
    1f98:	01 97       	sbiw	r24, 0x01	; 1
		__ticks = 1;
	else if (__tmp > 65535)
	{
		//	__ticks = requested delay in 1/10 ms
		__ticks = (uint16_t) (__ms * 10.0);
		while(__ticks)
    1f9a:	d9 f7       	brne	.-10     	; 0x1f92 <wellcome+0x92>
	_delay_ms(300);
	NIXIE_2_ENABLE;
    1f9c:	ac 9a       	sbi	0x15, 4	; 21
    1f9e:	88 eb       	ldi	r24, 0xB8	; 184
    1fa0:	9b e0       	ldi	r25, 0x0B	; 11
    1fa2:	20 e9       	ldi	r18, 0x90	; 144
    1fa4:	31 e0       	ldi	r19, 0x01	; 1
    1fa6:	f9 01       	movw	r30, r18
    1fa8:	31 97       	sbiw	r30, 0x01	; 1
    1faa:	f1 f7       	brne	.-4      	; 0x1fa8 <wellcome+0xa8>
		{
			// wait 1/10 ms
			_delay_loop_2(((F_CPU) / 4e3) / 10);
			__ticks --;
    1fac:	01 97       	sbiw	r24, 0x01	; 1
		__ticks = 1;
	else if (__tmp > 65535)
	{
		//	__ticks = requested delay in 1/10 ms
		__ticks = (uint16_t) (__ms * 10.0);
		while(__ticks)
    1fae:	d9 f7       	brne	.-10     	; 0x1fa6 <wellcome+0xa6>
	_delay_ms(300);
	GLOW_DOT_ON;
    1fb0:	af 9a       	sbi	0x15, 7	; 21
    1fb2:	88 eb       	ldi	r24, 0xB8	; 184
    1fb4:	9b e0       	ldi	r25, 0x0B	; 11
    1fb6:	20 e9       	ldi	r18, 0x90	; 144
    1fb8:	31 e0       	ldi	r19, 0x01	; 1
    1fba:	f9 01       	movw	r30, r18
    1fbc:	31 97       	sbiw	r30, 0x01	; 1
    1fbe:	f1 f7       	brne	.-4      	; 0x1fbc <wellcome+0xbc>
		{
			// wait 1/10 ms
			_delay_loop_2(((F_CPU) / 4e3) / 10);
			__ticks --;
    1fc0:	01 97       	sbiw	r24, 0x01	; 1
		__ticks = 1;
	else if (__tmp > 65535)
	{
		//	__ticks = requested delay in 1/10 ms
		__ticks = (uint16_t) (__ms * 10.0);
		while(__ticks)
    1fc2:	d9 f7       	brne	.-10     	; 0x1fba <wellcome+0xba>
	_delay_ms(300);
	NIXIE_3_ENABLE;
    1fc4:	ad 9a       	sbi	0x15, 5	; 21
    1fc6:	88 eb       	ldi	r24, 0xB8	; 184
    1fc8:	9b e0       	ldi	r25, 0x0B	; 11
    1fca:	20 e9       	ldi	r18, 0x90	; 144
    1fcc:	31 e0       	ldi	r19, 0x01	; 1
    1fce:	f9 01       	movw	r30, r18
    1fd0:	31 97       	sbiw	r30, 0x01	; 1
    1fd2:	f1 f7       	brne	.-4      	; 0x1fd0 <wellcome+0xd0>
		{
			// wait 1/10 ms
			_delay_loop_2(((F_CPU) / 4e3) / 10);
			__ticks --;
    1fd4:	01 97       	sbiw	r24, 0x01	; 1
		__ticks = 1;
	else if (__tmp > 65535)
	{
		//	__ticks = requested delay in 1/10 ms
		__ticks = (uint16_t) (__ms * 10.0);
		while(__ticks)
    1fd6:	d9 f7       	brne	.-10     	; 0x1fce <wellcome+0xce>
	_delay_ms(300);
	NIXIE_4_ENABLE;
    1fd8:	80 91 62 00 	lds	r24, 0x0062
    1fdc:	80 64       	ori	r24, 0x40	; 64
    1fde:	80 93 62 00 	sts	0x0062, r24
    1fe2:	88 eb       	ldi	r24, 0xB8	; 184
    1fe4:	9b e0       	ldi	r25, 0x0B	; 11
    1fe6:	20 e9       	ldi	r18, 0x90	; 144
    1fe8:	31 e0       	ldi	r19, 0x01	; 1
    1fea:	f9 01       	movw	r30, r18
    1fec:	31 97       	sbiw	r30, 0x01	; 1
    1fee:	f1 f7       	brne	.-4      	; 0x1fec <wellcome+0xec>
		{
			// wait 1/10 ms
			_delay_loop_2(((F_CPU) / 4e3) / 10);
			__ticks --;
    1ff0:	01 97       	sbiw	r24, 0x01	; 1
		__ticks = 1;
	else if (__tmp > 65535)
	{
		//	__ticks = requested delay in 1/10 ms
		__ticks = (uint16_t) (__ms * 10.0);
		while(__ticks)
    1ff2:	d9 f7       	brne	.-10     	; 0x1fea <wellcome+0xea>
	_delay_ms(300);

	NIXIES_ENABLE;
    1ff4:	87 b7       	in	r24, 0x37	; 55
    1ff6:	80 64       	ori	r24, 0x40	; 64
    1ff8:	87 bf       	out	0x37, r24	; 55
    1ffa:	80 e1       	ldi	r24, 0x10	; 16
    1ffc:	97 e2       	ldi	r25, 0x27	; 39
    1ffe:	20 e9       	ldi	r18, 0x90	; 144
    2000:	31 e0       	ldi	r19, 0x01	; 1
    2002:	f9 01       	movw	r30, r18
    2004:	31 97       	sbiw	r30, 0x01	; 1
    2006:	f1 f7       	brne	.-4      	; 0x2004 <wellcome+0x104>
		{
			// wait 1/10 ms
			_delay_loop_2(((F_CPU) / 4e3) / 10);
			__ticks --;
    2008:	01 97       	sbiw	r24, 0x01	; 1
		__ticks = 1;
	else if (__tmp > 65535)
	{
		//	__ticks = requested delay in 1/10 ms
		__ticks = (uint16_t) (__ms * 10.0);
		while(__ticks)
    200a:	d9 f7       	brne	.-10     	; 0x2002 <wellcome+0x102>
    200c:	73 e3       	ldi	r23, 0x33	; 51
    200e:	d7 2e       	mov	r13, r23
//			0, 1, 2, 3, 6, 7, 9 };

	for (uint8_t k = 0; k < 25; k++) {
		GLOW_MINUS_OFF;
		GLOW_DOT_TOGGLE;
		GLOW_MINUS_TOGGLE;
    2010:	60 e4       	ldi	r22, 0x40	; 64
    2012:	c6 2e       	mov	r12, r22
    2014:	c0 e0       	ldi	r28, 0x00	; 0
    2016:	dd e7       	ldi	r29, 0x7D	; 125
	uint8_t del = 51;
//	uint8_t a[] = { 1, 2, 3, 6, 7, 9, 0, 1, 2, 3, 6, 7, 9, 0, 1, 2, 3, 6, 7, 9,
//			0, 1, 2, 3, 6, 7, 9 };

	for (uint8_t k = 0; k < 25; k++) {
		GLOW_MINUS_OFF;
    2018:	ae 98       	cbi	0x15, 6	; 21
		GLOW_DOT_TOGGLE;
    201a:	85 b3       	in	r24, 0x15	; 21
    201c:	80 58       	subi	r24, 0x80	; 128
    201e:	85 bb       	out	0x15, r24	; 21
		GLOW_MINUS_TOGGLE;
    2020:	85 b3       	in	r24, 0x15	; 21
    2022:	8c 25       	eor	r24, r12
    2024:	85 bb       	out	0x15, r24	; 21

		digit[0] = rand() % 9;
    2026:	0e 94 19 24 	call	0x4832	; 0x4832 <rand>
    202a:	69 e0       	ldi	r22, 0x09	; 9
    202c:	70 e0       	ldi	r23, 0x00	; 0
    202e:	0e 94 44 22 	call	0x4488	; 0x4488 <__divmodhi4>
    2032:	80 93 2f 07 	sts	0x072F, r24
		digit[1] = rand() % 9;
    2036:	0e 94 19 24 	call	0x4832	; 0x4832 <rand>
    203a:	69 e0       	ldi	r22, 0x09	; 9
    203c:	70 e0       	ldi	r23, 0x00	; 0
    203e:	0e 94 44 22 	call	0x4488	; 0x4488 <__divmodhi4>
    2042:	80 93 30 07 	sts	0x0730, r24
		digit[2] = rand() % 9;
    2046:	0e 94 19 24 	call	0x4832	; 0x4832 <rand>
    204a:	69 e0       	ldi	r22, 0x09	; 9
    204c:	70 e0       	ldi	r23, 0x00	; 0
    204e:	0e 94 44 22 	call	0x4488	; 0x4488 <__divmodhi4>
    2052:	80 93 31 07 	sts	0x0731, r24
		digit[3] = rand() % 9;
    2056:	0e 94 19 24 	call	0x4832	; 0x4832 <rand>
    205a:	69 e0       	ldi	r22, 0x09	; 9
    205c:	70 e0       	ldi	r23, 0x00	; 0
    205e:	0e 94 44 22 	call	0x4488	; 0x4488 <__divmodhi4>
    2062:	80 93 32 07 	sts	0x0732, r24

		set_nixie_rgb(rand() % 255, rand() % 255, rand() % 255);
    2066:	0e 94 19 24 	call	0x4832	; 0x4832 <rand>
    206a:	8c 01       	movw	r16, r24
    206c:	0e 94 19 24 	call	0x4832	; 0x4832 <rand>
    2070:	7c 01       	movw	r14, r24
    2072:	0e 94 19 24 	call	0x4832	; 0x4832 <rand>
    2076:	fc 01       	movw	r30, r24
    2078:	c8 01       	movw	r24, r16
    207a:	6f ef       	ldi	r22, 0xFF	; 255
    207c:	70 e0       	ldi	r23, 0x00	; 0
    207e:	0e 94 44 22 	call	0x4488	; 0x4488 <__divmodhi4>
    2082:	8c 01       	movw	r16, r24
    2084:	c7 01       	movw	r24, r14
    2086:	6f ef       	ldi	r22, 0xFF	; 255
    2088:	70 e0       	ldi	r23, 0x00	; 0
    208a:	0e 94 44 22 	call	0x4488	; 0x4488 <__divmodhi4>
    208e:	9c 01       	movw	r18, r24
    2090:	cf 01       	movw	r24, r30
    2092:	6f ef       	ldi	r22, 0xFF	; 255
    2094:	70 e0       	ldi	r23, 0x00	; 0
    2096:	0e 94 44 22 	call	0x4488	; 0x4488 <__divmodhi4>
    209a:	ac 01       	movw	r20, r24
    209c:	c8 01       	movw	r24, r16
    209e:	b9 01       	movw	r22, r18
    20a0:	0e 94 f0 14 	call	0x29e0	; 0x29e0 <set_nixie_rgb>
    20a4:	2d 2d       	mov	r18, r13
    20a6:	04 c0       	rjmp	.+8      	; 0x20b0 <wellcome+0x1b0>
    20a8:	ce 01       	movw	r24, r28
    20aa:	01 97       	sbiw	r24, 0x01	; 1
    20ac:	f1 f7       	brne	.-4      	; 0x20aa <wellcome+0x1aa>

		for (uint8_t n = del; n > 0; n--) {
    20ae:	21 50       	subi	r18, 0x01	; 1
    20b0:	22 23       	and	r18, r18
    20b2:	d1 f7       	brne	.-12     	; 0x20a8 <wellcome+0x1a8>

	uint8_t del = 51;
//	uint8_t a[] = { 1, 2, 3, 6, 7, 9, 0, 1, 2, 3, 6, 7, 9, 0, 1, 2, 3, 6, 7, 9,
//			0, 1, 2, 3, 6, 7, 9 };

	for (uint8_t k = 0; k < 25; k++) {
    20b4:	83 e0       	ldi	r24, 0x03	; 3
    20b6:	d8 16       	cp	r13, r24
    20b8:	19 f0       	breq	.+6      	; 0x20c0 <wellcome+0x1c0>
		set_nixie_rgb(rand() % 255, rand() % 255, rand() % 255);

		for (uint8_t n = del; n > 0; n--) {
			_delay_ms(8);
		}
		del = del - 2;
    20ba:	8e ef       	ldi	r24, 0xFE	; 254
    20bc:	d8 0e       	add	r13, r24
    20be:	ac cf       	rjmp	.-168    	; 0x2018 <wellcome+0x118>
	}

	NIXIES_DISABLE;
    20c0:	87 b7       	in	r24, 0x37	; 55
    20c2:	8f 7b       	andi	r24, 0xBF	; 191
    20c4:	87 bf       	out	0x37, r24	; 55
	NIXIE_1_DISABLE;
    20c6:	ab 98       	cbi	0x15, 3	; 21
	NIXIE_2_DISABLE;
    20c8:	ac 98       	cbi	0x15, 4	; 21
	NIXIE_3_DISABLE;
    20ca:	ad 98       	cbi	0x15, 5	; 21
	NIXIE_4_DISABLE;
    20cc:	80 91 62 00 	lds	r24, 0x0062
    20d0:	8f 7b       	andi	r24, 0xBF	; 191
    20d2:	80 93 62 00 	sts	0x0062, r24
	GLOW_DOT_OFF;
    20d6:	af 98       	cbi	0x15, 7	; 21
	GLOW_MINUS_OFF;
    20d8:	ae 98       	cbi	0x15, 6	; 21

	set_nixie_rgb(0, 0, 0);
    20da:	80 e0       	ldi	r24, 0x00	; 0
    20dc:	90 e0       	ldi	r25, 0x00	; 0
    20de:	60 e0       	ldi	r22, 0x00	; 0
    20e0:	70 e0       	ldi	r23, 0x00	; 0
    20e2:	40 e0       	ldi	r20, 0x00	; 0
    20e4:	50 e0       	ldi	r21, 0x00	; 0
    20e6:	0e 94 f0 14 	call	0x29e0	; 0x29e0 <set_nixie_rgb>
    20ea:	80 e1       	ldi	r24, 0x10	; 16
    20ec:	97 e2       	ldi	r25, 0x27	; 39
    20ee:	20 e9       	ldi	r18, 0x90	; 144
    20f0:	31 e0       	ldi	r19, 0x01	; 1
    20f2:	f9 01       	movw	r30, r18
    20f4:	31 97       	sbiw	r30, 0x01	; 1
    20f6:	f1 f7       	brne	.-4      	; 0x20f4 <wellcome+0x1f4>
		{
			// wait 1/10 ms
			_delay_loop_2(((F_CPU) / 4e3) / 10);
			__ticks --;
    20f8:	01 97       	sbiw	r24, 0x01	; 1
		__ticks = 1;
	else if (__tmp > 65535)
	{
		//	__ticks = requested delay in 1/10 ms
		__ticks = (uint16_t) (__ms * 10.0);
		while(__ticks)
    20fa:	d9 f7       	brne	.-10     	; 0x20f2 <wellcome+0x1f2>
	_delay_ms(1000);

	//nixie_suppy(2);

}
    20fc:	df 91       	pop	r29
    20fe:	cf 91       	pop	r28
    2100:	1f 91       	pop	r17
    2102:	0f 91       	pop	r16
    2104:	ff 90       	pop	r15
    2106:	ef 90       	pop	r14
    2108:	df 90       	pop	r13
    210a:	cf 90       	pop	r12
    210c:	08 95       	ret

0000210e <strinsert>:
			i++;
	}
	*i = 0;
}

int strinsert(char *dest, const char *src, int offset) {
    210e:	8f 92       	push	r8
    2110:	9f 92       	push	r9
    2112:	af 92       	push	r10
    2114:	bf 92       	push	r11
    2116:	cf 92       	push	r12
    2118:	df 92       	push	r13
    211a:	ef 92       	push	r14
    211c:	ff 92       	push	r15
    211e:	0f 93       	push	r16
    2120:	1f 93       	push	r17
    2122:	df 93       	push	r29
    2124:	cf 93       	push	r28
    2126:	cd b7       	in	r28, 0x3d	; 61
    2128:	de b7       	in	r29, 0x3e	; 62
    212a:	e2 97       	sbiw	r28, 0x32	; 50
    212c:	0f b6       	in	r0, 0x3f	; 63
    212e:	f8 94       	cli
    2130:	de bf       	out	0x3e, r29	; 62
    2132:	0f be       	out	0x3f, r0	; 63
    2134:	cd bf       	out	0x3d, r28	; 61
    2136:	4c 01       	movw	r8, r24
    2138:	d6 2e       	mov	r13, r22
    213a:	c7 2e       	mov	r12, r23

	char temp[50];

	strncpy(temp, dest + offset, strlen(dest + offset));
    213c:	8a 01       	movw	r16, r20
    213e:	7c 01       	movw	r14, r24
    2140:	e4 0e       	add	r14, r20
    2142:	f5 1e       	adc	r15, r21
    2144:	d7 01       	movw	r26, r14
    2146:	0d 90       	ld	r0, X+
    2148:	00 20       	and	r0, r0
    214a:	e9 f7       	brne	.-6      	; 0x2146 <strinsert+0x38>
    214c:	11 97       	sbiw	r26, 0x01	; 1
    214e:	ae 19       	sub	r26, r14
    2150:	bf 09       	sbc	r27, r15
    2152:	5e 01       	movw	r10, r28
    2154:	08 94       	sec
    2156:	a1 1c       	adc	r10, r1
    2158:	b1 1c       	adc	r11, r1
    215a:	c5 01       	movw	r24, r10
    215c:	b7 01       	movw	r22, r14
    215e:	ad 01       	movw	r20, r26
    2160:	0e 94 66 24 	call	0x48cc	; 0x48cc <strncpy>

	strncpy(dest + offset, src, strlen(src));
    2164:	ed 2d       	mov	r30, r13
    2166:	fc 2d       	mov	r31, r12
    2168:	df 01       	movw	r26, r30
    216a:	0d 90       	ld	r0, X+
    216c:	00 20       	and	r0, r0
    216e:	e9 f7       	brne	.-6      	; 0x216a <strinsert+0x5c>
    2170:	11 97       	sbiw	r26, 0x01	; 1
    2172:	ae 1b       	sub	r26, r30
    2174:	bf 0b       	sbc	r27, r31
    2176:	c7 01       	movw	r24, r14
    2178:	6d 2d       	mov	r22, r13
    217a:	7c 2d       	mov	r23, r12
    217c:	ad 01       	movw	r20, r26
    217e:	0e 94 66 24 	call	0x48cc	; 0x48cc <strncpy>

	strcat(dest + offset + strlen(src), temp);
    2182:	ad 2d       	mov	r26, r13
    2184:	bc 2d       	mov	r27, r12
    2186:	fd 01       	movw	r30, r26
    2188:	01 90       	ld	r0, Z+
    218a:	00 20       	and	r0, r0
    218c:	e9 f7       	brne	.-6      	; 0x2188 <strinsert+0x7a>
    218e:	31 97       	sbiw	r30, 0x01	; 1
    2190:	ea 1b       	sub	r30, r26
    2192:	fb 0b       	sbc	r31, r27
    2194:	0e 0f       	add	r16, r30
    2196:	1f 1f       	adc	r17, r31
    2198:	c4 01       	movw	r24, r8
    219a:	80 0f       	add	r24, r16
    219c:	91 1f       	adc	r25, r17
    219e:	b5 01       	movw	r22, r10
    21a0:	0e 94 54 24 	call	0x48a8	; 0x48a8 <strcat>

	return 0;

}
    21a4:	80 e0       	ldi	r24, 0x00	; 0
    21a6:	90 e0       	ldi	r25, 0x00	; 0
    21a8:	e2 96       	adiw	r28, 0x32	; 50
    21aa:	0f b6       	in	r0, 0x3f	; 63
    21ac:	f8 94       	cli
    21ae:	de bf       	out	0x3e, r29	; 62
    21b0:	0f be       	out	0x3f, r0	; 63
    21b2:	cd bf       	out	0x3d, r28	; 61
    21b4:	cf 91       	pop	r28
    21b6:	df 91       	pop	r29
    21b8:	1f 91       	pop	r17
    21ba:	0f 91       	pop	r16
    21bc:	ff 90       	pop	r15
    21be:	ef 90       	pop	r14
    21c0:	df 90       	pop	r13
    21c2:	cf 90       	pop	r12
    21c4:	bf 90       	pop	r11
    21c6:	af 90       	pop	r10
    21c8:	9f 90       	pop	r9
    21ca:	8f 90       	pop	r8
    21cc:	08 95       	ret

000021ce <lcd_printf>:
void timers_lcdlight_init(void) {
	TCCR0 |= (1 << CS00) | (1 << WGM01) | (1 << WGM00)
			| (1 << COM01);
}

void lcd_printf(const char *fmt, ...) {
    21ce:	ef 92       	push	r14
    21d0:	ff 92       	push	r15
    21d2:	0f 93       	push	r16
    21d4:	1f 93       	push	r17
    21d6:	df 93       	push	r29
    21d8:	cf 93       	push	r28
    21da:	cd b7       	in	r28, 0x3d	; 61
    21dc:	de b7       	in	r29, 0x3e	; 62
    21de:	f9 84       	ldd	r15, Y+9	; 0x09
    21e0:	ea 84       	ldd	r14, Y+10	; 0x0a

	int num_chars;
	char *lcd_buff;
	num_chars = strlen(fmt) + 1;
    21e2:	ef 2d       	mov	r30, r15
    21e4:	fe 2d       	mov	r31, r14
    21e6:	df 01       	movw	r26, r30
    21e8:	0d 90       	ld	r0, X+
    21ea:	00 20       	and	r0, r0
    21ec:	e9 f7       	brne	.-6      	; 0x21e8 <lcd_printf+0x1a>
	lcd_buff = (char *) malloc(sizeof(char) * num_chars);
    21ee:	cd 01       	movw	r24, r26
    21f0:	8e 1b       	sub	r24, r30
    21f2:	9f 0b       	sbc	r25, r31
    21f4:	0e 94 c3 22 	call	0x4586	; 0x4586 <malloc>
    21f8:	18 2f       	mov	r17, r24
    21fa:	09 2f       	mov	r16, r25
void timers_lcdlight_init(void) {
	TCCR0 |= (1 << CS00) | (1 << WGM01) | (1 << WGM00)
			| (1 << COM01);
}

void lcd_printf(const char *fmt, ...) {
    21fc:	9e 01       	movw	r18, r28
    21fe:	25 5f       	subi	r18, 0xF5	; 245
    2200:	3f 4f       	sbci	r19, 0xFF	; 255
	num_chars = strlen(fmt) + 1;
	lcd_buff = (char *) malloc(sizeof(char) * num_chars);

	va_list args;
	va_start(args, fmt);
	vsprintf(lcd_buff, fmt, args);
    2202:	6f 2d       	mov	r22, r15
    2204:	7e 2d       	mov	r23, r14
    2206:	a9 01       	movw	r20, r18
    2208:	0e 94 b8 24 	call	0x4970	; 0x4970 <vsprintf>
	lcd_puts(lcd_buff);
    220c:	81 2f       	mov	r24, r17
    220e:	90 2f       	mov	r25, r16
    2210:	0e 94 83 14 	call	0x2906	; 0x2906 <lcd_puts>
	va_end(args);
	free(lcd_buff);
    2214:	81 2f       	mov	r24, r17
    2216:	90 2f       	mov	r25, r16
    2218:	0e 94 70 23 	call	0x46e0	; 0x46e0 <free>
}
    221c:	cf 91       	pop	r28
    221e:	df 91       	pop	r29
    2220:	1f 91       	pop	r17
    2222:	0f 91       	pop	r16
    2224:	ff 90       	pop	r15
    2226:	ef 90       	pop	r14
    2228:	08 95       	ret

0000222a <LCD_verticalScroll>:
	lcd_printf("NRF ERR:");
	lcd_printf(" %d", l_data->NRFErr);

}

void LCD_verticalScroll(char* str) {
    222a:	cf 92       	push	r12
    222c:	df 92       	push	r13
    222e:	ef 92       	push	r14
    2230:	ff 92       	push	r15
    2232:	0f 93       	push	r16
    2234:	1f 93       	push	r17
    2236:	cf 93       	push	r28
    2238:	df 93       	push	r29
    223a:	bc 01       	movw	r22, r24

	memset(lcd_rollmsg_array[2], 0, 19);
    223c:	f7 e5       	ldi	r31, 0x57	; 87
    223e:	cf 2e       	mov	r12, r31
    2240:	f7 e0       	ldi	r31, 0x07	; 7
    2242:	df 2e       	mov	r13, r31
    2244:	f6 01       	movw	r30, r12
    2246:	b8 96       	adiw	r30, 0x28	; 40
    2248:	83 e1       	ldi	r24, 0x13	; 19
    224a:	df 01       	movw	r26, r30
    224c:	1d 92       	st	X+, r1
    224e:	8a 95       	dec	r24
    2250:	e9 f7       	brne	.-6      	; 0x224c <LCD_verticalScroll+0x22>
	memcpy(lcd_rollmsg_array[2], lcd_rollmsg_array[1], 20);
    2252:	e6 01       	movw	r28, r12
    2254:	64 96       	adiw	r28, 0x14	; 20
    2256:	de 01       	movw	r26, r28
    2258:	84 e1       	ldi	r24, 0x14	; 20
    225a:	0d 90       	ld	r0, X+
    225c:	01 92       	st	Z+, r0
    225e:	81 50       	subi	r24, 0x01	; 1
    2260:	e1 f7       	brne	.-8      	; 0x225a <LCD_verticalScroll+0x30>
	memset(lcd_rollmsg_array[1], 0, 19);
    2262:	83 e1       	ldi	r24, 0x13	; 19
    2264:	fe 01       	movw	r30, r28
    2266:	11 92       	st	Z+, r1
    2268:	8a 95       	dec	r24
    226a:	e9 f7       	brne	.-6      	; 0x2266 <LCD_verticalScroll+0x3c>
	memcpy(lcd_rollmsg_array[1], lcd_rollmsg_array[0], 20);
    226c:	eb e6       	ldi	r30, 0x6B	; 107
    226e:	f7 e0       	ldi	r31, 0x07	; 7
    2270:	df 01       	movw	r26, r30
    2272:	54 97       	sbiw	r26, 0x14	; 20
    2274:	84 e1       	ldi	r24, 0x14	; 20
    2276:	0d 90       	ld	r0, X+
    2278:	01 92       	st	Z+, r0
    227a:	81 50       	subi	r24, 0x01	; 1
    227c:	e1 f7       	brne	.-8      	; 0x2276 <LCD_verticalScroll+0x4c>
	memset(lcd_rollmsg_array[0], 0, 19);
    227e:	83 e1       	ldi	r24, 0x13	; 19
    2280:	d6 01       	movw	r26, r12
    2282:	1d 92       	st	X+, r1
    2284:	8a 95       	dec	r24
    2286:	e9 f7       	brne	.-6      	; 0x2282 <LCD_verticalScroll+0x58>
	memcpy(lcd_rollmsg_array[0], str, strlen(str));
    2288:	db 01       	movw	r26, r22
    228a:	0d 90       	ld	r0, X+
    228c:	00 20       	and	r0, r0
    228e:	e9 f7       	brne	.-6      	; 0x228a <LCD_verticalScroll+0x60>
    2290:	11 97       	sbiw	r26, 0x01	; 1
    2292:	a6 1b       	sub	r26, r22
    2294:	b7 0b       	sbc	r27, r23
    2296:	c6 01       	movw	r24, r12
    2298:	ad 01       	movw	r20, r26
    229a:	0e 94 4b 24 	call	0x4896	; 0x4896 <memcpy>

	lcd_gotoxy(3, 1);
    229e:	83 e0       	ldi	r24, 0x03	; 3
    22a0:	61 e0       	ldi	r22, 0x01	; 1
    22a2:	0e 94 47 14 	call	0x288e	; 0x288e <lcd_gotoxy>
	lcd_puts(LCDOUT_CLRROW);
    22a6:	82 e5       	ldi	r24, 0x52	; 82
    22a8:	93 e0       	ldi	r25, 0x03	; 3
    22aa:	0e 94 83 14 	call	0x2906	; 0x2906 <lcd_puts>
	lcd_gotoxy(3, 1);
    22ae:	83 e0       	ldi	r24, 0x03	; 3
    22b0:	61 e0       	ldi	r22, 0x01	; 1
    22b2:	0e 94 47 14 	call	0x288e	; 0x288e <lcd_gotoxy>
	lcd_printf("%s", lcd_rollmsg_array[2]);
    22b6:	00 d0       	rcall	.+0      	; 0x22b8 <LCD_verticalScroll+0x8e>
    22b8:	00 d0       	rcall	.+0      	; 0x22ba <LCD_verticalScroll+0x90>
    22ba:	e7 e6       	ldi	r30, 0x67	; 103
    22bc:	ee 2e       	mov	r14, r30
    22be:	e3 e0       	ldi	r30, 0x03	; 3
    22c0:	fe 2e       	mov	r15, r30
    22c2:	ed b7       	in	r30, 0x3d	; 61
    22c4:	fe b7       	in	r31, 0x3e	; 62
    22c6:	f2 82       	std	Z+2, r15	; 0x02
    22c8:	e1 82       	std	Z+1, r14	; 0x01
    22ca:	0f e7       	ldi	r16, 0x7F	; 127
    22cc:	17 e0       	ldi	r17, 0x07	; 7
    22ce:	14 83       	std	Z+4, r17	; 0x04
    22d0:	03 83       	std	Z+3, r16	; 0x03
    22d2:	0e 94 e7 10 	call	0x21ce	; 0x21ce <lcd_printf>
	lcd_gotoxy(3, 2);
    22d6:	0f 90       	pop	r0
    22d8:	0f 90       	pop	r0
    22da:	0f 90       	pop	r0
    22dc:	0f 90       	pop	r0
    22de:	83 e0       	ldi	r24, 0x03	; 3
    22e0:	62 e0       	ldi	r22, 0x02	; 2
    22e2:	0e 94 47 14 	call	0x288e	; 0x288e <lcd_gotoxy>
	lcd_puts(LCDOUT_CLRROW);
    22e6:	82 e5       	ldi	r24, 0x52	; 82
    22e8:	93 e0       	ldi	r25, 0x03	; 3
    22ea:	0e 94 83 14 	call	0x2906	; 0x2906 <lcd_puts>
	lcd_gotoxy(3, 2);
    22ee:	83 e0       	ldi	r24, 0x03	; 3
    22f0:	62 e0       	ldi	r22, 0x02	; 2
    22f2:	0e 94 47 14 	call	0x288e	; 0x288e <lcd_gotoxy>
	lcd_printf("%s", lcd_rollmsg_array[1]);
    22f6:	00 d0       	rcall	.+0      	; 0x22f8 <LCD_verticalScroll+0xce>
    22f8:	00 d0       	rcall	.+0      	; 0x22fa <LCD_verticalScroll+0xd0>
    22fa:	ad b7       	in	r26, 0x3d	; 61
    22fc:	be b7       	in	r27, 0x3e	; 62
    22fe:	12 96       	adiw	r26, 0x02	; 2
    2300:	fc 92       	st	X, r15
    2302:	ee 92       	st	-X, r14
    2304:	11 97       	sbiw	r26, 0x01	; 1
    2306:	04 51       	subi	r16, 0x14	; 20
    2308:	10 40       	sbci	r17, 0x00	; 0
    230a:	14 96       	adiw	r26, 0x04	; 4
    230c:	1c 93       	st	X, r17
    230e:	0e 93       	st	-X, r16
    2310:	13 97       	sbiw	r26, 0x03	; 3
    2312:	0e 94 e7 10 	call	0x21ce	; 0x21ce <lcd_printf>
	lcd_gotoxy(3, 3);
    2316:	0f 90       	pop	r0
    2318:	0f 90       	pop	r0
    231a:	0f 90       	pop	r0
    231c:	0f 90       	pop	r0
    231e:	83 e0       	ldi	r24, 0x03	; 3
    2320:	63 e0       	ldi	r22, 0x03	; 3
    2322:	0e 94 47 14 	call	0x288e	; 0x288e <lcd_gotoxy>
	lcd_puts(LCDOUT_CLRROW);
    2326:	82 e5       	ldi	r24, 0x52	; 82
    2328:	93 e0       	ldi	r25, 0x03	; 3
    232a:	0e 94 83 14 	call	0x2906	; 0x2906 <lcd_puts>
	lcd_gotoxy(3, 3);
    232e:	83 e0       	ldi	r24, 0x03	; 3
    2330:	63 e0       	ldi	r22, 0x03	; 3
    2332:	0e 94 47 14 	call	0x288e	; 0x288e <lcd_gotoxy>
	lcd_printf("%s", lcd_rollmsg_array[0]);
    2336:	00 d0       	rcall	.+0      	; 0x2338 <LCD_verticalScroll+0x10e>
    2338:	00 d0       	rcall	.+0      	; 0x233a <LCD_verticalScroll+0x110>
    233a:	ed b7       	in	r30, 0x3d	; 61
    233c:	fe b7       	in	r31, 0x3e	; 62
    233e:	f2 82       	std	Z+2, r15	; 0x02
    2340:	e1 82       	std	Z+1, r14	; 0x01
    2342:	d4 82       	std	Z+4, r13	; 0x04
    2344:	c3 82       	std	Z+3, r12	; 0x03
    2346:	0e 94 e7 10 	call	0x21ce	; 0x21ce <lcd_printf>
    234a:	28 e8       	ldi	r18, 0x88	; 136
    234c:	33 e1       	ldi	r19, 0x13	; 19
    234e:	0f 90       	pop	r0
    2350:	0f 90       	pop	r0
    2352:	0f 90       	pop	r0
    2354:	0f 90       	pop	r0
    2356:	40 e9       	ldi	r20, 0x90	; 144
    2358:	51 e0       	ldi	r21, 0x01	; 1
    235a:	ca 01       	movw	r24, r20
    235c:	01 97       	sbiw	r24, 0x01	; 1
    235e:	f1 f7       	brne	.-4      	; 0x235c <LCD_verticalScroll+0x132>
		{
			// wait 1/10 ms
			_delay_loop_2(((F_CPU) / 4e3) / 10);
			__ticks --;
    2360:	21 50       	subi	r18, 0x01	; 1
    2362:	30 40       	sbci	r19, 0x00	; 0
		__ticks = 1;
	else if (__tmp > 65535)
	{
		//	__ticks = requested delay in 1/10 ms
		__ticks = (uint16_t) (__ms * 10.0);
		while(__ticks)
    2364:	d1 f7       	brne	.-12     	; 0x235a <LCD_verticalScroll+0x130>

	_delay_ms(500);

}
    2366:	df 91       	pop	r29
    2368:	cf 91       	pop	r28
    236a:	1f 91       	pop	r17
    236c:	0f 91       	pop	r16
    236e:	ff 90       	pop	r15
    2370:	ef 90       	pop	r14
    2372:	df 90       	pop	r13
    2374:	cf 90       	pop	r12
    2376:	08 95       	ret

00002378 <display_service_LCD>:
		lcd_printf("   ");
	}

}

void display_service_LCD(loc_measuredData_t* l_data, ext_measuredData_t* e_data) {
    2378:	cf 92       	push	r12
    237a:	df 92       	push	r13
    237c:	ef 92       	push	r14
    237e:	ff 92       	push	r15
    2380:	0f 93       	push	r16
    2382:	1f 93       	push	r17
    2384:	6c 01       	movw	r12, r24
    2386:	7b 01       	movw	r14, r22

	lcd_gotoxy(0, 1);
    2388:	80 e0       	ldi	r24, 0x00	; 0
    238a:	61 e0       	ldi	r22, 0x01	; 1
    238c:	0e 94 47 14 	call	0x288e	; 0x288e <lcd_gotoxy>
	lcd_printf(LCDOUT_CLRROW);
    2390:	00 d0       	rcall	.+0      	; 0x2392 <display_service_LCD+0x1a>
    2392:	02 e5       	ldi	r16, 0x52	; 82
    2394:	13 e0       	ldi	r17, 0x03	; 3
    2396:	ed b7       	in	r30, 0x3d	; 61
    2398:	fe b7       	in	r31, 0x3e	; 62
    239a:	12 83       	std	Z+2, r17	; 0x02
    239c:	01 83       	std	Z+1, r16	; 0x01
    239e:	0e 94 e7 10 	call	0x21ce	; 0x21ce <lcd_printf>
	lcd_gotoxy(0, 2);
    23a2:	0f 90       	pop	r0
    23a4:	0f 90       	pop	r0
    23a6:	80 e0       	ldi	r24, 0x00	; 0
    23a8:	62 e0       	ldi	r22, 0x02	; 2
    23aa:	0e 94 47 14 	call	0x288e	; 0x288e <lcd_gotoxy>
	lcd_printf(LCDOUT_CLRROW);
    23ae:	00 d0       	rcall	.+0      	; 0x23b0 <display_service_LCD+0x38>
    23b0:	ed b7       	in	r30, 0x3d	; 61
    23b2:	fe b7       	in	r31, 0x3e	; 62
    23b4:	12 83       	std	Z+2, r17	; 0x02
    23b6:	01 83       	std	Z+1, r16	; 0x01
    23b8:	0e 94 e7 10 	call	0x21ce	; 0x21ce <lcd_printf>
	lcd_gotoxy(0, 3);
    23bc:	0f 90       	pop	r0
    23be:	0f 90       	pop	r0
    23c0:	80 e0       	ldi	r24, 0x00	; 0
    23c2:	63 e0       	ldi	r22, 0x03	; 3
    23c4:	0e 94 47 14 	call	0x288e	; 0x288e <lcd_gotoxy>
	lcd_printf(LCDOUT_CLRROW);
    23c8:	00 d0       	rcall	.+0      	; 0x23ca <display_service_LCD+0x52>
    23ca:	ed b7       	in	r30, 0x3d	; 61
    23cc:	fe b7       	in	r31, 0x3e	; 62
    23ce:	12 83       	std	Z+2, r17	; 0x02
    23d0:	01 83       	std	Z+1, r16	; 0x01
    23d2:	0e 94 e7 10 	call	0x21ce	; 0x21ce <lcd_printf>
	//
	// batt
	//
	lcd_gotoxy(0, 1);
    23d6:	0f 90       	pop	r0
    23d8:	0f 90       	pop	r0
    23da:	80 e0       	ldi	r24, 0x00	; 0
    23dc:	61 e0       	ldi	r22, 0x01	; 1
    23de:	0e 94 47 14 	call	0x288e	; 0x288e <lcd_gotoxy>
	lcd_printf("Ext Batt:");
    23e2:	00 d0       	rcall	.+0      	; 0x23e4 <display_service_LCD+0x6c>
    23e4:	8a e6       	ldi	r24, 0x6A	; 106
    23e6:	93 e0       	ldi	r25, 0x03	; 3
    23e8:	ed b7       	in	r30, 0x3d	; 61
    23ea:	fe b7       	in	r31, 0x3e	; 62
    23ec:	92 83       	std	Z+2, r25	; 0x02
    23ee:	81 83       	std	Z+1, r24	; 0x01
    23f0:	0e 94 e7 10 	call	0x21ce	; 0x21ce <lcd_printf>
	lcd_printf(" %s", e_data->ext1_batt);
    23f4:	00 d0       	rcall	.+0      	; 0x23f6 <display_service_LCD+0x7e>
    23f6:	84 e7       	ldi	r24, 0x74	; 116
    23f8:	93 e0       	ldi	r25, 0x03	; 3
    23fa:	ed b7       	in	r30, 0x3d	; 61
    23fc:	fe b7       	in	r31, 0x3e	; 62
    23fe:	92 83       	std	Z+2, r25	; 0x02
    2400:	81 83       	std	Z+1, r24	; 0x01
    2402:	8d e1       	ldi	r24, 0x1D	; 29
    2404:	90 e0       	ldi	r25, 0x00	; 0
    2406:	e8 0e       	add	r14, r24
    2408:	f9 1e       	adc	r15, r25
    240a:	f4 82       	std	Z+4, r15	; 0x04
    240c:	e3 82       	std	Z+3, r14	; 0x03
    240e:	0e 94 e7 10 	call	0x21ce	; 0x21ce <lcd_printf>
	lcd_printf("mV");
    2412:	0f 90       	pop	r0
    2414:	0f 90       	pop	r0
    2416:	88 e7       	ldi	r24, 0x78	; 120
    2418:	93 e0       	ldi	r25, 0x03	; 3
    241a:	ed b7       	in	r30, 0x3d	; 61
    241c:	fe b7       	in	r31, 0x3e	; 62
    241e:	92 83       	std	Z+2, r25	; 0x02
    2420:	81 83       	std	Z+1, r24	; 0x01
    2422:	0e 94 e7 10 	call	0x21ce	; 0x21ce <lcd_printf>

	//
	// Wifi error
	//
	lcd_gotoxy(0, 2);
    2426:	0f 90       	pop	r0
    2428:	0f 90       	pop	r0
    242a:	80 e0       	ldi	r24, 0x00	; 0
    242c:	62 e0       	ldi	r22, 0x02	; 2
    242e:	0e 94 47 14 	call	0x288e	; 0x288e <lcd_gotoxy>
	lcd_printf("WiFi ERR:");
    2432:	00 d0       	rcall	.+0      	; 0x2434 <display_service_LCD+0xbc>
    2434:	8b e7       	ldi	r24, 0x7B	; 123
    2436:	93 e0       	ldi	r25, 0x03	; 3
    2438:	ed b7       	in	r30, 0x3d	; 61
    243a:	fe b7       	in	r31, 0x3e	; 62
    243c:	92 83       	std	Z+2, r25	; 0x02
    243e:	81 83       	std	Z+1, r24	; 0x01
    2440:	0e 94 e7 10 	call	0x21ce	; 0x21ce <lcd_printf>
	lcd_printf(" %d", l_data->wifiErr);
    2444:	00 d0       	rcall	.+0      	; 0x2446 <display_service_LCD+0xce>
    2446:	05 e8       	ldi	r16, 0x85	; 133
    2448:	13 e0       	ldi	r17, 0x03	; 3
    244a:	ed b7       	in	r30, 0x3d	; 61
    244c:	fe b7       	in	r31, 0x3e	; 62
    244e:	12 83       	std	Z+2, r17	; 0x02
    2450:	01 83       	std	Z+1, r16	; 0x01
    2452:	f6 01       	movw	r30, r12
    2454:	84 85       	ldd	r24, Z+12	; 0x0c
    2456:	95 85       	ldd	r25, Z+13	; 0x0d
    2458:	ed b7       	in	r30, 0x3d	; 61
    245a:	fe b7       	in	r31, 0x3e	; 62
    245c:	94 83       	std	Z+4, r25	; 0x04
    245e:	83 83       	std	Z+3, r24	; 0x03
    2460:	0e 94 e7 10 	call	0x21ce	; 0x21ce <lcd_printf>

	//
	// NRF error
	//
	lcd_gotoxy(0, 3);
    2464:	0f 90       	pop	r0
    2466:	0f 90       	pop	r0
    2468:	0f 90       	pop	r0
    246a:	0f 90       	pop	r0
    246c:	80 e0       	ldi	r24, 0x00	; 0
    246e:	63 e0       	ldi	r22, 0x03	; 3
    2470:	0e 94 47 14 	call	0x288e	; 0x288e <lcd_gotoxy>
	lcd_printf("NRF ERR:");
    2474:	00 d0       	rcall	.+0      	; 0x2476 <display_service_LCD+0xfe>
    2476:	89 e8       	ldi	r24, 0x89	; 137
    2478:	93 e0       	ldi	r25, 0x03	; 3
    247a:	ed b7       	in	r30, 0x3d	; 61
    247c:	fe b7       	in	r31, 0x3e	; 62
    247e:	92 83       	std	Z+2, r25	; 0x02
    2480:	81 83       	std	Z+1, r24	; 0x01
    2482:	0e 94 e7 10 	call	0x21ce	; 0x21ce <lcd_printf>
	lcd_printf(" %d", l_data->NRFErr);
    2486:	00 d0       	rcall	.+0      	; 0x2488 <display_service_LCD+0x110>
    2488:	ed b7       	in	r30, 0x3d	; 61
    248a:	fe b7       	in	r31, 0x3e	; 62
    248c:	12 83       	std	Z+2, r17	; 0x02
    248e:	01 83       	std	Z+1, r16	; 0x01
    2490:	f6 01       	movw	r30, r12
    2492:	86 85       	ldd	r24, Z+14	; 0x0e
    2494:	97 85       	ldd	r25, Z+15	; 0x0f
    2496:	ed b7       	in	r30, 0x3d	; 61
    2498:	fe b7       	in	r31, 0x3e	; 62
    249a:	94 83       	std	Z+4, r25	; 0x04
    249c:	83 83       	std	Z+3, r24	; 0x03
    249e:	0e 94 e7 10 	call	0x21ce	; 0x21ce <lcd_printf>
    24a2:	0f 90       	pop	r0
    24a4:	0f 90       	pop	r0
    24a6:	0f 90       	pop	r0
    24a8:	0f 90       	pop	r0

}
    24aa:	1f 91       	pop	r17
    24ac:	0f 91       	pop	r16
    24ae:	ff 90       	pop	r15
    24b0:	ef 90       	pop	r14
    24b2:	df 90       	pop	r13
    24b4:	cf 90       	pop	r12
    24b6:	08 95       	ret

000024b8 <display_data_LCD>:

	return 0;

}

void display_data_LCD(loc_measuredData_t* l_data, ext_measuredData_t* e_data) {
    24b8:	cf 92       	push	r12
    24ba:	df 92       	push	r13
    24bc:	ef 92       	push	r14
    24be:	ff 92       	push	r15
    24c0:	0f 93       	push	r16
    24c2:	1f 93       	push	r17
    24c4:	cf 93       	push	r28
    24c6:	df 93       	push	r29
    24c8:	7c 01       	movw	r14, r24
    24ca:	eb 01       	movw	r28, r22

	lcd_gotoxy(0, 1);
    24cc:	80 e0       	ldi	r24, 0x00	; 0
    24ce:	61 e0       	ldi	r22, 0x01	; 1
    24d0:	0e 94 47 14 	call	0x288e	; 0x288e <lcd_gotoxy>
	lcd_printf(LCDOUT_CLRROW);
    24d4:	00 d0       	rcall	.+0      	; 0x24d6 <display_data_LCD+0x1e>
    24d6:	02 e5       	ldi	r16, 0x52	; 82
    24d8:	13 e0       	ldi	r17, 0x03	; 3
    24da:	ed b7       	in	r30, 0x3d	; 61
    24dc:	fe b7       	in	r31, 0x3e	; 62
    24de:	12 83       	std	Z+2, r17	; 0x02
    24e0:	01 83       	std	Z+1, r16	; 0x01
    24e2:	0e 94 e7 10 	call	0x21ce	; 0x21ce <lcd_printf>
	lcd_gotoxy(0, 2);
    24e6:	0f 90       	pop	r0
    24e8:	0f 90       	pop	r0
    24ea:	80 e0       	ldi	r24, 0x00	; 0
    24ec:	62 e0       	ldi	r22, 0x02	; 2
    24ee:	0e 94 47 14 	call	0x288e	; 0x288e <lcd_gotoxy>
	lcd_printf(LCDOUT_CLRROW);
    24f2:	00 d0       	rcall	.+0      	; 0x24f4 <display_data_LCD+0x3c>
    24f4:	ed b7       	in	r30, 0x3d	; 61
    24f6:	fe b7       	in	r31, 0x3e	; 62
    24f8:	12 83       	std	Z+2, r17	; 0x02
    24fa:	01 83       	std	Z+1, r16	; 0x01
    24fc:	0e 94 e7 10 	call	0x21ce	; 0x21ce <lcd_printf>
	lcd_gotoxy(0, 3);
    2500:	0f 90       	pop	r0
    2502:	0f 90       	pop	r0
    2504:	80 e0       	ldi	r24, 0x00	; 0
    2506:	63 e0       	ldi	r22, 0x03	; 3
    2508:	0e 94 47 14 	call	0x288e	; 0x288e <lcd_gotoxy>
	lcd_printf(LCDOUT_CLRROW);
    250c:	00 d0       	rcall	.+0      	; 0x250e <display_data_LCD+0x56>
    250e:	ed b7       	in	r30, 0x3d	; 61
    2510:	fe b7       	in	r31, 0x3e	; 62
    2512:	12 83       	std	Z+2, r17	; 0x02
    2514:	01 83       	std	Z+1, r16	; 0x01
    2516:	0e 94 e7 10 	call	0x21ce	; 0x21ce <lcd_printf>
	//
	// lcd temp
	//
	lcd_gotoxy(0, 1);
    251a:	0f 90       	pop	r0
    251c:	0f 90       	pop	r0
    251e:	80 e0       	ldi	r24, 0x00	; 0
    2520:	61 e0       	ldi	r22, 0x01	; 1
    2522:	0e 94 47 14 	call	0x288e	; 0x288e <lcd_gotoxy>
	lcd_data(LCD_CH_TEMP_INT);
    2526:	80 e0       	ldi	r24, 0x00	; 0
    2528:	0e 94 3d 14 	call	0x287a	; 0x287a <lcd_data>
	lcd_printf(" %s", l_data->loc_temp);
    252c:	00 d0       	rcall	.+0      	; 0x252e <display_data_LCD+0x76>
    252e:	00 d0       	rcall	.+0      	; 0x2530 <display_data_LCD+0x78>
    2530:	a4 e7       	ldi	r26, 0x74	; 116
    2532:	ca 2e       	mov	r12, r26
    2534:	a3 e0       	ldi	r26, 0x03	; 3
    2536:	da 2e       	mov	r13, r26
    2538:	ed b7       	in	r30, 0x3d	; 61
    253a:	fe b7       	in	r31, 0x3e	; 62
    253c:	d2 82       	std	Z+2, r13	; 0x02
    253e:	c1 82       	std	Z+1, r12	; 0x01
    2540:	f4 82       	std	Z+4, r15	; 0x04
    2542:	e3 82       	std	Z+3, r14	; 0x03
    2544:	0e 94 e7 10 	call	0x21ce	; 0x21ce <lcd_printf>
	lcd_data(LCD_CH_CELSIUS);
    2548:	0f 90       	pop	r0
    254a:	0f 90       	pop	r0
    254c:	0f 90       	pop	r0
    254e:	0f 90       	pop	r0
    2550:	84 e0       	ldi	r24, 0x04	; 4
    2552:	0e 94 3d 14 	call	0x287a	; 0x287a <lcd_data>
	lcd_putc('C');
    2556:	83 e4       	ldi	r24, 0x43	; 67
    2558:	0e 94 63 14 	call	0x28c6	; 0x28c6 <lcd_putc>

	lcd_gotoxy(0, 2);
    255c:	80 e0       	ldi	r24, 0x00	; 0
    255e:	62 e0       	ldi	r22, 0x02	; 2
    2560:	0e 94 47 14 	call	0x288e	; 0x288e <lcd_gotoxy>
	lcd_data(LCD_CH_TEMP_EXT);
    2564:	81 e0       	ldi	r24, 0x01	; 1
    2566:	0e 94 3d 14 	call	0x287a	; 0x287a <lcd_data>
	lcd_printf(" %s", e_data->ext1_temp);
    256a:	00 d0       	rcall	.+0      	; 0x256c <display_data_LCD+0xb4>
    256c:	00 d0       	rcall	.+0      	; 0x256e <display_data_LCD+0xb6>
    256e:	ed b7       	in	r30, 0x3d	; 61
    2570:	fe b7       	in	r31, 0x3e	; 62
    2572:	d2 82       	std	Z+2, r13	; 0x02
    2574:	c1 82       	std	Z+1, r12	; 0x01
    2576:	21 96       	adiw	r28, 0x01	; 1
    2578:	d4 83       	std	Z+4, r29	; 0x04
    257a:	c3 83       	std	Z+3, r28	; 0x03
    257c:	0e 94 e7 10 	call	0x21ce	; 0x21ce <lcd_printf>
	lcd_data(LCD_CH_CELSIUS);
    2580:	0f 90       	pop	r0
    2582:	0f 90       	pop	r0
    2584:	0f 90       	pop	r0
    2586:	0f 90       	pop	r0
    2588:	84 e0       	ldi	r24, 0x04	; 4
    258a:	0e 94 3d 14 	call	0x287a	; 0x287a <lcd_data>
	lcd_putc('C');
    258e:	83 e4       	ldi	r24, 0x43	; 67
    2590:	0e 94 63 14 	call	0x28c6	; 0x28c6 <lcd_putc>

	//
	// lcd temp
	//
	lcd_gotoxy(10, 1);
    2594:	8a e0       	ldi	r24, 0x0A	; 10
    2596:	61 e0       	ldi	r22, 0x01	; 1
    2598:	0e 94 47 14 	call	0x288e	; 0x288e <lcd_gotoxy>
	lcd_data(LCD_CH_HUM_INT);
    259c:	82 e0       	ldi	r24, 0x02	; 2
    259e:	0e 94 3d 14 	call	0x287a	; 0x287a <lcd_data>
	lcd_printf(" %s%%", l_data->loc_hum);
    25a2:	00 d0       	rcall	.+0      	; 0x25a4 <display_data_LCD+0xec>
    25a4:	00 d0       	rcall	.+0      	; 0x25a6 <display_data_LCD+0xee>
    25a6:	02 e9       	ldi	r16, 0x92	; 146
    25a8:	13 e0       	ldi	r17, 0x03	; 3
    25aa:	ed b7       	in	r30, 0x3d	; 61
    25ac:	fe b7       	in	r31, 0x3e	; 62
    25ae:	12 83       	std	Z+2, r17	; 0x02
    25b0:	01 83       	std	Z+1, r16	; 0x01
    25b2:	85 e0       	ldi	r24, 0x05	; 5
    25b4:	90 e0       	ldi	r25, 0x00	; 0
    25b6:	e8 0e       	add	r14, r24
    25b8:	f9 1e       	adc	r15, r25
    25ba:	f4 82       	std	Z+4, r15	; 0x04
    25bc:	e3 82       	std	Z+3, r14	; 0x03
    25be:	0e 94 e7 10 	call	0x21ce	; 0x21ce <lcd_printf>

	lcd_gotoxy(10, 2);
    25c2:	0f 90       	pop	r0
    25c4:	0f 90       	pop	r0
    25c6:	0f 90       	pop	r0
    25c8:	0f 90       	pop	r0
    25ca:	8a e0       	ldi	r24, 0x0A	; 10
    25cc:	62 e0       	ldi	r22, 0x02	; 2
    25ce:	0e 94 47 14 	call	0x288e	; 0x288e <lcd_gotoxy>
	lcd_data(LCD_CH_HUM_EXT);
    25d2:	83 e0       	ldi	r24, 0x03	; 3
    25d4:	0e 94 3d 14 	call	0x287a	; 0x287a <lcd_data>
	lcd_printf(" %s%%", e_data->ext1_hum);
    25d8:	00 d0       	rcall	.+0      	; 0x25da <display_data_LCD+0x122>
    25da:	00 d0       	rcall	.+0      	; 0x25dc <display_data_LCD+0x124>
    25dc:	ed b7       	in	r30, 0x3d	; 61
    25de:	fe b7       	in	r31, 0x3e	; 62
    25e0:	12 83       	std	Z+2, r17	; 0x02
    25e2:	01 83       	std	Z+1, r16	; 0x01
    25e4:	25 96       	adiw	r28, 0x05	; 5
    25e6:	d4 83       	std	Z+4, r29	; 0x04
    25e8:	c3 83       	std	Z+3, r28	; 0x03
    25ea:	0e 94 e7 10 	call	0x21ce	; 0x21ce <lcd_printf>

	//
	// lcd airpressure
	//
	lcd_gotoxy(0, 3);
    25ee:	0f 90       	pop	r0
    25f0:	0f 90       	pop	r0
    25f2:	0f 90       	pop	r0
    25f4:	0f 90       	pop	r0
    25f6:	80 e0       	ldi	r24, 0x00	; 0
    25f8:	63 e0       	ldi	r22, 0x03	; 3
    25fa:	0e 94 47 14 	call	0x288e	; 0x288e <lcd_gotoxy>
	lcd_data(LCD_CH_AIRPRS);
    25fe:	86 e0       	ldi	r24, 0x06	; 6
    2600:	0e 94 3d 14 	call	0x287a	; 0x287a <lcd_data>
	lcd_printf(" %s", e_data->ext1_airpressure);
    2604:	00 d0       	rcall	.+0      	; 0x2606 <display_data_LCD+0x14e>
    2606:	00 d0       	rcall	.+0      	; 0x2608 <display_data_LCD+0x150>
    2608:	ed b7       	in	r30, 0x3d	; 61
    260a:	fe b7       	in	r31, 0x3e	; 62
    260c:	d2 82       	std	Z+2, r13	; 0x02
    260e:	c1 82       	std	Z+1, r12	; 0x01
    2610:	25 96       	adiw	r28, 0x05	; 5
    2612:	d4 83       	std	Z+4, r29	; 0x04
    2614:	c3 83       	std	Z+3, r28	; 0x03
    2616:	2b 97       	sbiw	r28, 0x0b	; 11
    2618:	0e 94 e7 10 	call	0x21ce	; 0x21ce <lcd_printf>
	lcd_gotoxy(8, 3);
    261c:	0f 90       	pop	r0
    261e:	0f 90       	pop	r0
    2620:	0f 90       	pop	r0
    2622:	0f 90       	pop	r0
    2624:	88 e0       	ldi	r24, 0x08	; 8
    2626:	63 e0       	ldi	r22, 0x03	; 3
    2628:	0e 94 47 14 	call	0x288e	; 0x288e <lcd_gotoxy>
	lcd_data(LCD_CH_HPA);
    262c:	87 e0       	ldi	r24, 0x07	; 7
    262e:	0e 94 3d 14 	call	0x287a	; 0x287a <lcd_data>

	//
	// lcd lux
	//
	lcd_gotoxy(10, 3);
    2632:	8a e0       	ldi	r24, 0x0A	; 10
    2634:	63 e0       	ldi	r22, 0x03	; 3
    2636:	0e 94 47 14 	call	0x288e	; 0x288e <lcd_gotoxy>
	lcd_data(LCD_CH_LUX);
    263a:	85 e0       	ldi	r24, 0x05	; 5
    263c:	0e 94 3d 14 	call	0x287a	; 0x287a <lcd_data>
	if (e_data->ext1_lux[0] == '?')
    2640:	8a 89       	ldd	r24, Y+18	; 0x12
    2642:	9e 01       	movw	r18, r28
    2644:	2e 5e       	subi	r18, 0xEE	; 238
    2646:	3f 4f       	sbci	r19, 0xFF	; 255
    2648:	8f 33       	cpi	r24, 0x3F	; 63
    264a:	59 f4       	brne	.+22     	; 0x2662 <display_data_LCD+0x1aa>
		lcd_printf(" %s lx", e_data->ext1_lux);
    264c:	00 d0       	rcall	.+0      	; 0x264e <display_data_LCD+0x196>
    264e:	00 d0       	rcall	.+0      	; 0x2650 <display_data_LCD+0x198>
    2650:	88 e9       	ldi	r24, 0x98	; 152
    2652:	93 e0       	ldi	r25, 0x03	; 3
    2654:	ed b7       	in	r30, 0x3d	; 61
    2656:	fe b7       	in	r31, 0x3e	; 62
    2658:	92 83       	std	Z+2, r25	; 0x02
    265a:	81 83       	std	Z+1, r24	; 0x01
    265c:	34 83       	std	Z+4, r19	; 0x04
    265e:	23 83       	std	Z+3, r18	; 0x03
    2660:	0d c0       	rjmp	.+26     	; 0x267c <display_data_LCD+0x1c4>
	else
		lcd_printf(" %d lx", atoi(e_data->ext1_lux));
    2662:	c9 01       	movw	r24, r18
    2664:	0e 94 2d 24 	call	0x485a	; 0x485a <atoi>
    2668:	00 d0       	rcall	.+0      	; 0x266a <display_data_LCD+0x1b2>
    266a:	00 d0       	rcall	.+0      	; 0x266c <display_data_LCD+0x1b4>
    266c:	2f e9       	ldi	r18, 0x9F	; 159
    266e:	33 e0       	ldi	r19, 0x03	; 3
    2670:	ed b7       	in	r30, 0x3d	; 61
    2672:	fe b7       	in	r31, 0x3e	; 62
    2674:	32 83       	std	Z+2, r19	; 0x02
    2676:	21 83       	std	Z+1, r18	; 0x01
    2678:	94 83       	std	Z+4, r25	; 0x04
    267a:	83 83       	std	Z+3, r24	; 0x03
    267c:	0e 94 e7 10 	call	0x21ce	; 0x21ce <lcd_printf>
    2680:	0f 90       	pop	r0
    2682:	0f 90       	pop	r0
    2684:	0f 90       	pop	r0
    2686:	0f 90       	pop	r0

	if (atoi(e_data->ext1_rain) < RAIN_LIMIT) {
    2688:	ce 01       	movw	r24, r28
    268a:	48 96       	adiw	r24, 0x18	; 24
    268c:	0e 94 2d 24 	call	0x485a	; 0x485a <atoi>
    2690:	84 58       	subi	r24, 0x84	; 132
    2692:	93 40       	sbci	r25, 0x03	; 3
    2694:	44 f4       	brge	.+16     	; 0x26a6 <display_data_LCD+0x1ee>
		lcd_gotoxy(16, 0);
    2696:	80 e1       	ldi	r24, 0x10	; 16
    2698:	60 e0       	ldi	r22, 0x00	; 0
    269a:	0e 94 47 14 	call	0x288e	; 0x288e <lcd_gotoxy>
		lcd_printf("Rain");
    269e:	00 d0       	rcall	.+0      	; 0x26a0 <display_data_LCD+0x1e8>
    26a0:	86 ea       	ldi	r24, 0xA6	; 166
    26a2:	93 e0       	ldi	r25, 0x03	; 3
    26a4:	07 c0       	rjmp	.+14     	; 0x26b4 <display_data_LCD+0x1fc>
	} else {
		lcd_gotoxy(16, 0);
    26a6:	80 e1       	ldi	r24, 0x10	; 16
    26a8:	60 e0       	ldi	r22, 0x00	; 0
    26aa:	0e 94 47 14 	call	0x288e	; 0x288e <lcd_gotoxy>
		lcd_printf("   ");
    26ae:	00 d0       	rcall	.+0      	; 0x26b0 <display_data_LCD+0x1f8>
    26b0:	8b ea       	ldi	r24, 0xAB	; 171
    26b2:	93 e0       	ldi	r25, 0x03	; 3
    26b4:	ed b7       	in	r30, 0x3d	; 61
    26b6:	fe b7       	in	r31, 0x3e	; 62
    26b8:	92 83       	std	Z+2, r25	; 0x02
    26ba:	81 83       	std	Z+1, r24	; 0x01
    26bc:	0e 94 e7 10 	call	0x21ce	; 0x21ce <lcd_printf>
    26c0:	0f 90       	pop	r0
    26c2:	0f 90       	pop	r0
	}

}
    26c4:	df 91       	pop	r29
    26c6:	cf 91       	pop	r28
    26c8:	1f 91       	pop	r17
    26ca:	0f 91       	pop	r16
    26cc:	ff 90       	pop	r15
    26ce:	ef 90       	pop	r14
    26d0:	df 90       	pop	r13
    26d2:	cf 90       	pop	r12
    26d4:	08 95       	ret

000026d6 <process_uartin>:
		ret = false;
	}
	return ret;
}

void process_uartin(void) {
    26d6:	0f 93       	push	r16
    26d8:	1f 93       	push	r17
    26da:	df 93       	push	r29
    26dc:	cf 93       	push	r28
    26de:	cd b7       	in	r28, 0x3d	; 61
    26e0:	de b7       	in	r29, 0x3e	; 62
    26e2:	e2 97       	sbiw	r28, 0x32	; 50
    26e4:	0f b6       	in	r0, 0x3f	; 63
    26e6:	f8 94       	cli
    26e8:	de bf       	out	0x3e, r29	; 62
    26ea:	0f be       	out	0x3f, r0	; 63
    26ec:	cd bf       	out	0x3d, r28	; 61
	cli();
    26ee:	f8 94       	cli
	wasrx_uart_deb = 0;
    26f0:	10 92 1e 07 	sts	0x071E, r1
	//rx_buffer_deb[deb_i + 1] = '\0';
	//memcpy(&uartInMessage, rx_buffer_deb, sizeof(uartInMessage));

	usart_printf(rx_buffer_deb); //send back received msg
    26f4:	00 d0       	rcall	.+0      	; 0x26f6 <process_uartin+0x20>
    26f6:	00 ed       	ldi	r16, 0xD0	; 208
    26f8:	17 e0       	ldi	r17, 0x07	; 7
    26fa:	ed b7       	in	r30, 0x3d	; 61
    26fc:	fe b7       	in	r31, 0x3e	; 62
    26fe:	12 83       	std	Z+2, r17	; 0x02
    2700:	01 83       	std	Z+1, r16	; 0x01
    2702:	0e 94 20 19 	call	0x3240	; 0x3240 <usart_printf>
//			str2int(uartInMessage.g_led, 3), str2int(uartInMessage.b_led, 3));

	char lead_char = rx_buffer_deb[0];
	char temp[50];

	switch (lead_char) {
    2706:	0f 90       	pop	r0
    2708:	0f 90       	pop	r0
    270a:	80 91 d0 07 	lds	r24, 0x07D0
    270e:	83 32       	cpi	r24, 0x23	; 35
    2710:	19 f0       	breq	.+6      	; 0x2718 <process_uartin+0x42>
    2712:	80 34       	cpi	r24, 0x40	; 64
    2714:	79 f5       	brne	.+94     	; 0x2774 <process_uartin+0x9e>
    2716:	2a c0       	rjmp	.+84     	; 0x276c <process_uartin+0x96>
	case '#':
		strncpy(temp, rx_buffer_deb + 1, strlen(rx_buffer_deb + 1));
    2718:	d8 01       	movw	r26, r16
    271a:	11 96       	adiw	r26, 0x01	; 1
    271c:	fd 01       	movw	r30, r26
    271e:	01 90       	ld	r0, Z+
    2720:	00 20       	and	r0, r0
    2722:	e9 f7       	brne	.-6      	; 0x271e <process_uartin+0x48>
    2724:	e2 5d       	subi	r30, 0xD2	; 210
    2726:	f7 40       	sbci	r31, 0x07	; 7
    2728:	8e 01       	movw	r16, r28
    272a:	0f 5f       	subi	r16, 0xFF	; 255
    272c:	1f 4f       	sbci	r17, 0xFF	; 255
    272e:	c8 01       	movw	r24, r16
    2730:	bd 01       	movw	r22, r26
    2732:	af 01       	movw	r20, r30
    2734:	0e 94 66 24 	call	0x48cc	; 0x48cc <strncpy>
		usart_printf("\n%s", temp);
    2738:	00 d0       	rcall	.+0      	; 0x273a <process_uartin+0x64>
    273a:	00 d0       	rcall	.+0      	; 0x273c <process_uartin+0x66>
    273c:	8f ea       	ldi	r24, 0xAF	; 175
    273e:	93 e0       	ldi	r25, 0x03	; 3
    2740:	ed b7       	in	r30, 0x3d	; 61
    2742:	fe b7       	in	r31, 0x3e	; 62
    2744:	92 83       	std	Z+2, r25	; 0x02
    2746:	81 83       	std	Z+1, r24	; 0x01
    2748:	14 83       	std	Z+4, r17	; 0x04
    274a:	03 83       	std	Z+3, r16	; 0x03
    274c:	0e 94 20 19 	call	0x3240	; 0x3240 <usart_printf>
		USART_SendString_ETH(temp);
    2750:	0f 90       	pop	r0
    2752:	0f 90       	pop	r0
    2754:	0f 90       	pop	r0
    2756:	0f 90       	pop	r0
    2758:	c8 01       	movw	r24, r16
    275a:	0e 94 04 19 	call	0x3208	; 0x3208 <USART_SendString_ETH>
		waitForATAnswer("OK", 30);
    275e:	8a e8       	ldi	r24, 0x8A	; 138
    2760:	91 e0       	ldi	r25, 0x01	; 1
    2762:	6e e1       	ldi	r22, 0x1E	; 30
    2764:	70 e0       	ldi	r23, 0x00	; 0
    2766:	0e 94 55 19 	call	0x32aa	; 0x32aa <waitForATAnswer>
    276a:	0f c0       	rjmp	.+30     	; 0x278a <process_uartin+0xb4>
		//atcom
		break;
	case '@':
		usart_printf("\nint: ");
    276c:	00 d0       	rcall	.+0      	; 0x276e <process_uartin+0x98>
    276e:	83 eb       	ldi	r24, 0xB3	; 179
    2770:	93 e0       	ldi	r25, 0x03	; 3
    2772:	03 c0       	rjmp	.+6      	; 0x277a <process_uartin+0xa4>
		//internal
		break;
	default:
		//unknown
		usart_printf("\n???");
    2774:	00 d0       	rcall	.+0      	; 0x2776 <process_uartin+0xa0>
    2776:	8a eb       	ldi	r24, 0xBA	; 186
    2778:	93 e0       	ldi	r25, 0x03	; 3
    277a:	ed b7       	in	r30, 0x3d	; 61
    277c:	fe b7       	in	r31, 0x3e	; 62
    277e:	92 83       	std	Z+2, r25	; 0x02
    2780:	81 83       	std	Z+1, r24	; 0x01
    2782:	0e 94 20 19 	call	0x3240	; 0x3240 <usart_printf>
    2786:	0f 90       	pop	r0
    2788:	0f 90       	pop	r0
		break;
	}

	reset_rxbuffer_deb();
    278a:	0e 94 c4 19 	call	0x3388	; 0x3388 <reset_rxbuffer_deb>
	LED_DEB_OFF;
    278e:	df 98       	cbi	0x1b, 7	; 27
	sei();
    2790:	78 94       	sei
}
    2792:	e2 96       	adiw	r28, 0x32	; 50
    2794:	0f b6       	in	r0, 0x3f	; 63
    2796:	f8 94       	cli
    2798:	de bf       	out	0x3e, r29	; 62
    279a:	0f be       	out	0x3f, r0	; 63
    279c:	cd bf       	out	0x3d, r28	; 61
    279e:	cf 91       	pop	r28
    27a0:	df 91       	pop	r29
    27a2:	1f 91       	pop	r17
    27a4:	0f 91       	pop	r16
    27a6:	08 95       	ret

000027a8 <lcd_write>:
static void lcd_write(uint8_t data,uint8_t rs) 
{
    unsigned char dataBits ;


    if (rs) {   /* write data        (RS=1, RW=0) */
    27a8:	66 23       	and	r22, r22
    27aa:	11 f0       	breq	.+4      	; 0x27b0 <lcd_write+0x8>
       lcd_rs_high();
    27ac:	de 9a       	sbi	0x1b, 6	; 27
    27ae:	01 c0       	rjmp	.+2      	; 0x27b2 <lcd_write+0xa>
    } else {    /* write instruction (RS=0, RW=0) */
       lcd_rs_low();
    27b0:	de 98       	cbi	0x1b, 6	; 27
    }
    lcd_rw_low();
    27b2:	dd 98       	cbi	0x1b, 5	; 27
        LCD_DATA0_PORT = dataBits | 0x0F;
    }
    else
    {
        /* configure data pins as output */
        DDR(LCD_DATA0_PORT) |= _BV(LCD_DATA0_PIN);
    27b4:	d3 9a       	sbi	0x1a, 3	; 26
        DDR(LCD_DATA1_PORT) |= _BV(LCD_DATA1_PIN);
    27b6:	d0 9a       	sbi	0x1a, 0	; 26
        DDR(LCD_DATA2_PORT) |= _BV(LCD_DATA2_PIN);
    27b8:	d2 9a       	sbi	0x1a, 2	; 26
        DDR(LCD_DATA3_PORT) |= _BV(LCD_DATA3_PIN);
    27ba:	d1 9a       	sbi	0x1a, 1	; 26
        
        /* output high nibble first */
        LCD_DATA3_PORT &= ~_BV(LCD_DATA3_PIN);
    27bc:	d9 98       	cbi	0x1b, 1	; 27
        LCD_DATA2_PORT &= ~_BV(LCD_DATA2_PIN);
    27be:	da 98       	cbi	0x1b, 2	; 27
        LCD_DATA1_PORT &= ~_BV(LCD_DATA1_PIN);
    27c0:	d8 98       	cbi	0x1b, 0	; 27
        LCD_DATA0_PORT &= ~_BV(LCD_DATA0_PIN);
    27c2:	db 98       	cbi	0x1b, 3	; 27
    	if(data & 0x80) LCD_DATA3_PORT |= _BV(LCD_DATA3_PIN);
    27c4:	87 fd       	sbrc	r24, 7
    27c6:	d9 9a       	sbi	0x1b, 1	; 27
    	if(data & 0x40) LCD_DATA2_PORT |= _BV(LCD_DATA2_PIN);
    27c8:	86 fd       	sbrc	r24, 6
    27ca:	da 9a       	sbi	0x1b, 2	; 27
    	if(data & 0x20) LCD_DATA1_PORT |= _BV(LCD_DATA1_PIN);
    27cc:	85 fd       	sbrc	r24, 5
    27ce:	d8 9a       	sbi	0x1b, 0	; 27
    	if(data & 0x10) LCD_DATA0_PORT |= _BV(LCD_DATA0_PIN);   
    27d0:	84 fd       	sbrc	r24, 4
    27d2:	db 9a       	sbi	0x1b, 3	; 27

#if LCD_IO_MODE
/* toggle Enable Pin to initiate write */
static void toggle_e(void)
{
    lcd_e_high();
    27d4:	dc 9a       	sbi	0x1b, 4	; 27
    lcd_e_delay();
    27d6:	00 c0       	rjmp	.+0      	; 0x27d8 <lcd_write+0x30>
    lcd_e_low();
    27d8:	dc 98       	cbi	0x1b, 4	; 27
    	if(data & 0x20) LCD_DATA1_PORT |= _BV(LCD_DATA1_PIN);
    	if(data & 0x10) LCD_DATA0_PORT |= _BV(LCD_DATA0_PIN);   
        lcd_e_toggle();
        
        /* output low nibble */
        LCD_DATA3_PORT &= ~_BV(LCD_DATA3_PIN);
    27da:	d9 98       	cbi	0x1b, 1	; 27
        LCD_DATA2_PORT &= ~_BV(LCD_DATA2_PIN);
    27dc:	da 98       	cbi	0x1b, 2	; 27
        LCD_DATA1_PORT &= ~_BV(LCD_DATA1_PIN);
    27de:	d8 98       	cbi	0x1b, 0	; 27
        LCD_DATA0_PORT &= ~_BV(LCD_DATA0_PIN);
    27e0:	db 98       	cbi	0x1b, 3	; 27
    	if(data & 0x08) LCD_DATA3_PORT |= _BV(LCD_DATA3_PIN);
    27e2:	83 fd       	sbrc	r24, 3
    27e4:	d9 9a       	sbi	0x1b, 1	; 27
    	if(data & 0x04) LCD_DATA2_PORT |= _BV(LCD_DATA2_PIN);
    27e6:	82 fd       	sbrc	r24, 2
    27e8:	da 9a       	sbi	0x1b, 2	; 27
    	if(data & 0x02) LCD_DATA1_PORT |= _BV(LCD_DATA1_PIN);
    27ea:	81 fd       	sbrc	r24, 1
    27ec:	d8 9a       	sbi	0x1b, 0	; 27
    	if(data & 0x01) LCD_DATA0_PORT |= _BV(LCD_DATA0_PIN);
    27ee:	80 fd       	sbrc	r24, 0
    27f0:	db 9a       	sbi	0x1b, 3	; 27

#if LCD_IO_MODE
/* toggle Enable Pin to initiate write */
static void toggle_e(void)
{
    lcd_e_high();
    27f2:	dc 9a       	sbi	0x1b, 4	; 27
    lcd_e_delay();
    27f4:	00 c0       	rjmp	.+0      	; 0x27f6 <lcd_write+0x4e>
    lcd_e_low();
    27f6:	dc 98       	cbi	0x1b, 4	; 27
    	if(data & 0x02) LCD_DATA1_PORT |= _BV(LCD_DATA1_PIN);
    	if(data & 0x01) LCD_DATA0_PORT |= _BV(LCD_DATA0_PIN);
        lcd_e_toggle();        
        
        /* all data pins high (inactive) */
        LCD_DATA0_PORT |= _BV(LCD_DATA0_PIN);
    27f8:	db 9a       	sbi	0x1b, 3	; 27
        LCD_DATA1_PORT |= _BV(LCD_DATA1_PIN);
    27fa:	d8 9a       	sbi	0x1b, 0	; 27
        LCD_DATA2_PORT |= _BV(LCD_DATA2_PIN);
    27fc:	da 9a       	sbi	0x1b, 2	; 27
        LCD_DATA3_PORT |= _BV(LCD_DATA3_PIN);
    27fe:	d9 9a       	sbi	0x1b, 1	; 27
    }
}
    2800:	08 95       	ret

00002802 <lcd_read>:
static uint8_t lcd_read(uint8_t rs) 
{
    uint8_t data;
    
    
    if (rs)
    2802:	88 23       	and	r24, r24
    2804:	11 f0       	breq	.+4      	; 0x280a <lcd_read+0x8>
        lcd_rs_high();                       /* RS=1: read data      */
    2806:	de 9a       	sbi	0x1b, 6	; 27
    2808:	01 c0       	rjmp	.+2      	; 0x280c <lcd_read+0xa>
    else
        lcd_rs_low();                        /* RS=0: read busy flag */
    280a:	de 98       	cbi	0x1b, 6	; 27
    lcd_rw_high();                           /* RW=1  read mode      */
    280c:	dd 9a       	sbi	0x1b, 5	; 27
        lcd_e_low();
    }
    else
    {
        /* configure data pins as input */
        DDR(LCD_DATA0_PORT) &= ~_BV(LCD_DATA0_PIN);
    280e:	d3 98       	cbi	0x1a, 3	; 26
        DDR(LCD_DATA1_PORT) &= ~_BV(LCD_DATA1_PIN);
    2810:	d0 98       	cbi	0x1a, 0	; 26
        DDR(LCD_DATA2_PORT) &= ~_BV(LCD_DATA2_PIN);
    2812:	d2 98       	cbi	0x1a, 2	; 26
        DDR(LCD_DATA3_PORT) &= ~_BV(LCD_DATA3_PIN);
    2814:	d1 98       	cbi	0x1a, 1	; 26
                
        /* read high nibble first */
        lcd_e_high();
    2816:	dc 9a       	sbi	0x1b, 4	; 27
        lcd_e_delay();        
    2818:	00 c0       	rjmp	.+0      	; 0x281a <lcd_read+0x18>
        data = 0;
        if ( PIN(LCD_DATA0_PORT) & _BV(LCD_DATA0_PIN) ) data |= 0x10;
    281a:	cb 9b       	sbis	0x19, 3	; 25
    281c:	02 c0       	rjmp	.+4      	; 0x2822 <lcd_read+0x20>
    281e:	80 e1       	ldi	r24, 0x10	; 16
    2820:	01 c0       	rjmp	.+2      	; 0x2824 <lcd_read+0x22>
    2822:	80 e0       	ldi	r24, 0x00	; 0
        if ( PIN(LCD_DATA1_PORT) & _BV(LCD_DATA1_PIN) ) data |= 0x20;
    2824:	c8 99       	sbic	0x19, 0	; 25
    2826:	80 62       	ori	r24, 0x20	; 32
        if ( PIN(LCD_DATA2_PORT) & _BV(LCD_DATA2_PIN) ) data |= 0x40;
    2828:	ca 99       	sbic	0x19, 2	; 25
    282a:	80 64       	ori	r24, 0x40	; 64
        if ( PIN(LCD_DATA3_PORT) & _BV(LCD_DATA3_PIN) ) data |= 0x80;
    282c:	c9 99       	sbic	0x19, 1	; 25
    282e:	80 68       	ori	r24, 0x80	; 128
        lcd_e_low();
    2830:	dc 98       	cbi	0x1b, 4	; 27

        lcd_e_delay();                       /* Enable 500ns low       */
    2832:	00 c0       	rjmp	.+0      	; 0x2834 <lcd_read+0x32>
    
        /* read low nibble */    
        lcd_e_high();
    2834:	dc 9a       	sbi	0x1b, 4	; 27
        lcd_e_delay();
    2836:	00 c0       	rjmp	.+0      	; 0x2838 <lcd_read+0x36>
        if ( PIN(LCD_DATA0_PORT) & _BV(LCD_DATA0_PIN) ) data |= 0x01;
    2838:	cb 99       	sbic	0x19, 3	; 25
    283a:	81 60       	ori	r24, 0x01	; 1
        if ( PIN(LCD_DATA1_PORT) & _BV(LCD_DATA1_PIN) ) data |= 0x02;
    283c:	c8 99       	sbic	0x19, 0	; 25
    283e:	82 60       	ori	r24, 0x02	; 2
        if ( PIN(LCD_DATA2_PORT) & _BV(LCD_DATA2_PIN) ) data |= 0x04;
    2840:	ca 99       	sbic	0x19, 2	; 25
    2842:	84 60       	ori	r24, 0x04	; 4
        if ( PIN(LCD_DATA3_PORT) & _BV(LCD_DATA3_PIN) ) data |= 0x08;        
    2844:	c9 99       	sbic	0x19, 1	; 25
    2846:	88 60       	ori	r24, 0x08	; 8
        lcd_e_low();
    2848:	dc 98       	cbi	0x1b, 4	; 27
    }
    return data;
}
    284a:	08 95       	ret

0000284c <lcd_waitbusy>:

{
    register uint8_t c;
    
    /* wait until busy flag is cleared */
    while ( (c=lcd_read(0)) & (1<<LCD_BUSY)) {}
    284c:	80 e0       	ldi	r24, 0x00	; 0
    284e:	0e 94 01 14 	call	0x2802	; 0x2802 <lcd_read>
    2852:	87 fd       	sbrc	r24, 7
    2854:	fb cf       	rjmp	.-10     	; 0x284c <lcd_waitbusy>
static inline void _delayFourCycles(unsigned int __count)
{
    if ( __count == 0 )    
        __asm__ __volatile__( "rjmp 1f\n 1:" );    // 2 cycles
    else
        __asm__ __volatile__ (
    2856:	88 e0       	ldi	r24, 0x08	; 8
    2858:	90 e0       	ldi	r25, 0x00	; 0
    285a:	01 97       	sbiw	r24, 0x01	; 1
    285c:	f1 f7       	brne	.-4      	; 0x285a <lcd_waitbusy+0xe>
    
    /* the address counter is updated 4us after the busy flag is cleared */
    delay(2);

    /* now read the address counter */
    return (lcd_read(0));  // return address counter
    285e:	80 e0       	ldi	r24, 0x00	; 0
    2860:	0e 94 01 14 	call	0x2802	; 0x2802 <lcd_read>
    
}/* lcd_waitbusy */
    2864:	08 95       	ret

00002866 <lcd_command>:
Send LCD controller instruction command
Input:   instruction to send to LCD controller, see HD44780 data sheet
Returns: none
*************************************************************************/
void lcd_command(uint8_t cmd)
{
    2866:	1f 93       	push	r17
    2868:	18 2f       	mov	r17, r24
    lcd_waitbusy();
    286a:	0e 94 26 14 	call	0x284c	; 0x284c <lcd_waitbusy>
    lcd_write(cmd,0);
    286e:	81 2f       	mov	r24, r17
    2870:	60 e0       	ldi	r22, 0x00	; 0
    2872:	0e 94 d4 13 	call	0x27a8	; 0x27a8 <lcd_write>
}
    2876:	1f 91       	pop	r17
    2878:	08 95       	ret

0000287a <lcd_data>:
Send data byte to LCD controller 
Input:   data to send to LCD controller, see HD44780 data sheet
Returns: none
*************************************************************************/
void lcd_data(uint8_t data)
{
    287a:	1f 93       	push	r17
    287c:	18 2f       	mov	r17, r24
    lcd_waitbusy();
    287e:	0e 94 26 14 	call	0x284c	; 0x284c <lcd_waitbusy>
    lcd_write(data,1);
    2882:	81 2f       	mov	r24, r17
    2884:	61 e0       	ldi	r22, 0x01	; 1
    2886:	0e 94 d4 13 	call	0x27a8	; 0x27a8 <lcd_write>
}
    288a:	1f 91       	pop	r17
    288c:	08 95       	ret

0000288e <lcd_gotoxy>:
        lcd_command((1<<LCD_DDRAM)+LCD_START_LINE1+x);
    else
        lcd_command((1<<LCD_DDRAM)+LCD_START_LINE2+x);
#endif
#if LCD_LINES==4
    if ( y==0 )
    288e:	66 23       	and	r22, r22
    2890:	11 f4       	brne	.+4      	; 0x2896 <lcd_gotoxy+0x8>
        lcd_command((1<<LCD_DDRAM)+LCD_START_LINE1+x);
    2892:	80 58       	subi	r24, 0x80	; 128
    2894:	09 c0       	rjmp	.+18     	; 0x28a8 <lcd_gotoxy+0x1a>
    else if ( y==1)
    2896:	61 30       	cpi	r22, 0x01	; 1
    2898:	11 f4       	brne	.+4      	; 0x289e <lcd_gotoxy+0x10>
        lcd_command((1<<LCD_DDRAM)+LCD_START_LINE2+x);
    289a:	80 54       	subi	r24, 0x40	; 64
    289c:	05 c0       	rjmp	.+10     	; 0x28a8 <lcd_gotoxy+0x1a>
    else if ( y==2)
    289e:	62 30       	cpi	r22, 0x02	; 2
    28a0:	11 f4       	brne	.+4      	; 0x28a6 <lcd_gotoxy+0x18>
        lcd_command((1<<LCD_DDRAM)+LCD_START_LINE3+x);
    28a2:	8c 56       	subi	r24, 0x6C	; 108
    28a4:	01 c0       	rjmp	.+2      	; 0x28a8 <lcd_gotoxy+0x1a>
    else /* y==3 */
        lcd_command((1<<LCD_DDRAM)+LCD_START_LINE4+x);
    28a6:	8c 52       	subi	r24, 0x2C	; 44
    28a8:	0e 94 33 14 	call	0x2866	; 0x2866 <lcd_command>
    28ac:	08 95       	ret

000028ae <lcd_getxy>:

/*************************************************************************
*************************************************************************/
int lcd_getxy(void)
{
    return lcd_waitbusy();
    28ae:	0e 94 26 14 	call	0x284c	; 0x284c <lcd_waitbusy>
}
    28b2:	90 e0       	ldi	r25, 0x00	; 0
    28b4:	08 95       	ret

000028b6 <lcd_clrscr>:
/*************************************************************************
Clear display and set cursor to home position
*************************************************************************/
void lcd_clrscr(void)
{
    lcd_command(1<<LCD_CLR);
    28b6:	81 e0       	ldi	r24, 0x01	; 1
    28b8:	0e 94 33 14 	call	0x2866	; 0x2866 <lcd_command>
}
    28bc:	08 95       	ret

000028be <lcd_home>:
/*************************************************************************
Set cursor to home position
*************************************************************************/
void lcd_home(void)
{
    lcd_command(1<<LCD_HOME);
    28be:	82 e0       	ldi	r24, 0x02	; 2
    28c0:	0e 94 33 14 	call	0x2866	; 0x2866 <lcd_command>
}
    28c4:	08 95       	ret

000028c6 <lcd_putc>:
Display character at current cursor position 
Input:    character to be displayed                                       
Returns:  none
*************************************************************************/
void lcd_putc(char c)
{
    28c6:	1f 93       	push	r17
    28c8:	18 2f       	mov	r17, r24
    uint8_t pos;


    pos = lcd_waitbusy();   // read busy-flag and address counter
    28ca:	0e 94 26 14 	call	0x284c	; 0x284c <lcd_waitbusy>
    28ce:	98 2f       	mov	r25, r24
    if (c=='\n')
    28d0:	1a 30       	cpi	r17, 0x0A	; 10
    28d2:	99 f4       	brne	.+38     	; 0x28fa <lcd_putc+0x34>
    else if ( (pos >= LCD_START_LINE3) && (pos < LCD_START_LINE4) )
        addressCounter = LCD_START_LINE4;
    else 
        addressCounter = LCD_START_LINE1;
#else
    if ( pos < LCD_START_LINE3 )
    28d4:	84 31       	cpi	r24, 0x14	; 20
    28d6:	10 f4       	brcc	.+4      	; 0x28dc <lcd_putc+0x16>
    28d8:	80 e4       	ldi	r24, 0x40	; 64
    28da:	0b c0       	rjmp	.+22     	; 0x28f2 <lcd_putc+0x2c>
        addressCounter = LCD_START_LINE2;
    else if ( (pos >= LCD_START_LINE2) && (pos < LCD_START_LINE4) )
    28dc:	80 54       	subi	r24, 0x40	; 64
    28de:	84 31       	cpi	r24, 0x14	; 20
    28e0:	10 f4       	brcc	.+4      	; 0x28e6 <lcd_putc+0x20>
    28e2:	84 e1       	ldi	r24, 0x14	; 20
    28e4:	06 c0       	rjmp	.+12     	; 0x28f2 <lcd_putc+0x2c>
        addressCounter = LCD_START_LINE3;
    else if ( (pos >= LCD_START_LINE3) && (pos < LCD_START_LINE2) )
    28e6:	94 51       	subi	r25, 0x14	; 20
    28e8:	9c 32       	cpi	r25, 0x2C	; 44
    28ea:	10 f0       	brcs	.+4      	; 0x28f0 <lcd_putc+0x2a>
    28ec:	80 e0       	ldi	r24, 0x00	; 0
    28ee:	01 c0       	rjmp	.+2      	; 0x28f2 <lcd_putc+0x2c>
    28f0:	84 e5       	ldi	r24, 0x54	; 84
        addressCounter = LCD_START_LINE4;
    else 
        addressCounter = LCD_START_LINE1;
#endif
#endif
    lcd_command((1<<LCD_DDRAM)+addressCounter);
    28f2:	80 58       	subi	r24, 0x80	; 128
    28f4:	0e 94 33 14 	call	0x2866	; 0x2866 <lcd_command>
    28f8:	04 c0       	rjmp	.+8      	; 0x2902 <lcd_putc+0x3c>
            lcd_write((1<<LCD_DDRAM)+LCD_START_LINE1,0);
        }
#endif
        lcd_waitbusy();
#endif
        lcd_write(c, 1);
    28fa:	81 2f       	mov	r24, r17
    28fc:	61 e0       	ldi	r22, 0x01	; 1
    28fe:	0e 94 d4 13 	call	0x27a8	; 0x27a8 <lcd_write>
    }

}/* lcd_putc */
    2902:	1f 91       	pop	r17
    2904:	08 95       	ret

00002906 <lcd_puts>:
Input:    string to be displayed
Returns:  none
*************************************************************************/
void lcd_puts(const char *s)
/* print string on lcd (no auto linefeed) */
{
    2906:	cf 93       	push	r28
    2908:	df 93       	push	r29
    290a:	ec 01       	movw	r28, r24
    290c:	02 c0       	rjmp	.+4      	; 0x2912 <lcd_puts+0xc>
    register char c;

    while ( (c = *s++) ) {
        lcd_putc(c);
    290e:	0e 94 63 14 	call	0x28c6	; 0x28c6 <lcd_putc>
void lcd_puts(const char *s)
/* print string on lcd (no auto linefeed) */
{
    register char c;

    while ( (c = *s++) ) {
    2912:	89 91       	ld	r24, Y+
    2914:	88 23       	and	r24, r24
    2916:	d9 f7       	brne	.-10     	; 0x290e <lcd_puts+0x8>
        lcd_putc(c);
    }

}/* lcd_puts */
    2918:	df 91       	pop	r29
    291a:	cf 91       	pop	r28
    291c:	08 95       	ret

0000291e <lcd_uputs>:
Input:    string to be displayed
Returns:  none
*************************************************************************/
void lcd_uputs(const unsigned char *s)
/* print string on lcd (no auto linefeed) */
{
    291e:	cf 93       	push	r28
    2920:	df 93       	push	r29
    2922:	ec 01       	movw	r28, r24
    2924:	02 c0       	rjmp	.+4      	; 0x292a <lcd_uputs+0xc>
    register char c;

    while ( (c = *s++) ) {
        lcd_putc(c);
    2926:	0e 94 63 14 	call	0x28c6	; 0x28c6 <lcd_putc>
void lcd_uputs(const unsigned char *s)
/* print string on lcd (no auto linefeed) */
{
    register char c;

    while ( (c = *s++) ) {
    292a:	89 91       	ld	r24, Y+
    292c:	88 23       	and	r24, r24
    292e:	d9 f7       	brne	.-10     	; 0x2926 <lcd_uputs+0x8>
        lcd_putc(c);
    }

}/* lcd_puts */
    2930:	df 91       	pop	r29
    2932:	cf 91       	pop	r28
    2934:	08 95       	ret

00002936 <lcd_puts_p>:
Input:     string from program memory be be displayed                                        
Returns:   none
*************************************************************************/
void lcd_puts_p(const char *progmem_s)
/* print string from program memory on lcd (no auto linefeed) */
{
    2936:	cf 93       	push	r28
    2938:	df 93       	push	r29
    293a:	ec 01       	movw	r28, r24
    293c:	02 c0       	rjmp	.+4      	; 0x2942 <lcd_puts_p+0xc>
    register char c;

    while ( (c = pgm_read_byte(progmem_s++)) ) {
        lcd_putc(c);
    293e:	0e 94 63 14 	call	0x28c6	; 0x28c6 <lcd_putc>
    2942:	fe 01       	movw	r30, r28
void lcd_puts_p(const char *progmem_s)
/* print string from program memory on lcd (no auto linefeed) */
{
    register char c;

    while ( (c = pgm_read_byte(progmem_s++)) ) {
    2944:	21 96       	adiw	r28, 0x01	; 1
    2946:	84 91       	lpm	r24, Z+
    2948:	88 23       	and	r24, r24
    294a:	c9 f7       	brne	.-14     	; 0x293e <lcd_puts_p+0x8>
        lcd_putc(c);
    }

}/* lcd_puts_p */
    294c:	df 91       	pop	r29
    294e:	cf 91       	pop	r28
    2950:	08 95       	ret

00002952 <lcd_init>:
                   LCD_DISP_ON_CURSOR      display on, cursor on
                   LCD_DISP_CURSOR_BLINK   display on, cursor on flashing
Returns:  none
*************************************************************************/
void lcd_init(uint8_t dispAttr)
{
    2952:	1f 93       	push	r17
    2954:	18 2f       	mov	r17, r24
        DDR(LCD_E_PORT)     |= _BV(LCD_E_PIN);
    }
    else
    {
        /* configure all port bits as output (LCD data and control lines on different ports */
        DDR(LCD_RS_PORT)    |= _BV(LCD_RS_PIN);
    2956:	d6 9a       	sbi	0x1a, 6	; 26
        DDR(LCD_RW_PORT)    |= _BV(LCD_RW_PIN);
    2958:	d5 9a       	sbi	0x1a, 5	; 26
        DDR(LCD_E_PORT)     |= _BV(LCD_E_PIN);
    295a:	d4 9a       	sbi	0x1a, 4	; 26
        DDR(LCD_DATA0_PORT) |= _BV(LCD_DATA0_PIN);
    295c:	d3 9a       	sbi	0x1a, 3	; 26
        DDR(LCD_DATA1_PORT) |= _BV(LCD_DATA1_PIN);
    295e:	d0 9a       	sbi	0x1a, 0	; 26
        DDR(LCD_DATA2_PORT) |= _BV(LCD_DATA2_PIN);
    2960:	d2 9a       	sbi	0x1a, 2	; 26
        DDR(LCD_DATA3_PORT) |= _BV(LCD_DATA3_PIN);
    2962:	d1 9a       	sbi	0x1a, 1	; 26
static inline void _delayFourCycles(unsigned int __count)
{
    if ( __count == 0 )    
        __asm__ __volatile__( "rjmp 1f\n 1:" );    // 2 cycles
    else
        __asm__ __volatile__ (
    2964:	80 e0       	ldi	r24, 0x00	; 0
    2966:	9a ef       	ldi	r25, 0xFA	; 250
    2968:	01 97       	sbiw	r24, 0x01	; 1
    296a:	f1 f7       	brne	.-4      	; 0x2968 <lcd_init+0x16>
        DDR(LCD_DATA3_PORT) |= _BV(LCD_DATA3_PIN);
    }
    delay(16000);        /* wait 16ms or more after power-on       */
    
    /* initial write to lcd is 8bit */
    LCD_DATA1_PORT |= _BV(LCD_DATA1_PIN);  // _BV(LCD_FUNCTION)>>4;
    296c:	d8 9a       	sbi	0x1b, 0	; 27
    LCD_DATA0_PORT |= _BV(LCD_DATA0_PIN);  // _BV(LCD_FUNCTION_8BIT)>>4;
    296e:	db 9a       	sbi	0x1b, 3	; 27

#if LCD_IO_MODE
/* toggle Enable Pin to initiate write */
static void toggle_e(void)
{
    lcd_e_high();
    2970:	dc 9a       	sbi	0x1b, 4	; 27
    lcd_e_delay();
    2972:	00 c0       	rjmp	.+0      	; 0x2974 <lcd_init+0x22>
    lcd_e_low();
    2974:	dc 98       	cbi	0x1b, 4	; 27
static inline void _delayFourCycles(unsigned int __count)
{
    if ( __count == 0 )    
        __asm__ __volatile__( "rjmp 1f\n 1:" );    // 2 cycles
    else
        __asm__ __volatile__ (
    2976:	80 e0       	ldi	r24, 0x00	; 0
    2978:	9e e4       	ldi	r25, 0x4E	; 78
    297a:	01 97       	sbiw	r24, 0x01	; 1
    297c:	f1 f7       	brne	.-4      	; 0x297a <lcd_init+0x28>

#if LCD_IO_MODE
/* toggle Enable Pin to initiate write */
static void toggle_e(void)
{
    lcd_e_high();
    297e:	dc 9a       	sbi	0x1b, 4	; 27
    lcd_e_delay();
    2980:	00 c0       	rjmp	.+0      	; 0x2982 <lcd_init+0x30>
    lcd_e_low();
    2982:	dc 98       	cbi	0x1b, 4	; 27
static inline void _delayFourCycles(unsigned int __count)
{
    if ( __count == 0 )    
        __asm__ __volatile__( "rjmp 1f\n 1:" );    // 2 cycles
    else
        __asm__ __volatile__ (
    2984:	80 e0       	ldi	r24, 0x00	; 0
    2986:	91 e0       	ldi	r25, 0x01	; 1
    2988:	fc 01       	movw	r30, r24
    298a:	31 97       	sbiw	r30, 0x01	; 1
    298c:	f1 f7       	brne	.-4      	; 0x298a <lcd_init+0x38>

#if LCD_IO_MODE
/* toggle Enable Pin to initiate write */
static void toggle_e(void)
{
    lcd_e_high();
    298e:	dc 9a       	sbi	0x1b, 4	; 27
    lcd_e_delay();
    2990:	00 c0       	rjmp	.+0      	; 0x2992 <lcd_init+0x40>
    lcd_e_low();
    2992:	dc 98       	cbi	0x1b, 4	; 27
static inline void _delayFourCycles(unsigned int __count)
{
    if ( __count == 0 )    
        __asm__ __volatile__( "rjmp 1f\n 1:" );    // 2 cycles
    else
        __asm__ __volatile__ (
    2994:	fc 01       	movw	r30, r24
    2996:	31 97       	sbiw	r30, 0x01	; 1
    2998:	f1 f7       	brne	.-4      	; 0x2996 <lcd_init+0x44>
    /* repeat last command a third time */
    lcd_e_toggle();      
    delay(64);           /* delay, busy flag can't be checked here */

    /* now configure for 4bit mode */
    LCD_DATA0_PORT &= ~_BV(LCD_DATA0_PIN);   // LCD_FUNCTION_4BIT_1LINE>>4
    299a:	db 98       	cbi	0x1b, 3	; 27

#if LCD_IO_MODE
/* toggle Enable Pin to initiate write */
static void toggle_e(void)
{
    lcd_e_high();
    299c:	dc 9a       	sbi	0x1b, 4	; 27
    lcd_e_delay();
    299e:	00 c0       	rjmp	.+0      	; 0x29a0 <lcd_init+0x4e>
    lcd_e_low();
    29a0:	dc 98       	cbi	0x1b, 4	; 27
static inline void _delayFourCycles(unsigned int __count)
{
    if ( __count == 0 )    
        __asm__ __volatile__( "rjmp 1f\n 1:" );    // 2 cycles
    else
        __asm__ __volatile__ (
    29a2:	01 97       	sbiw	r24, 0x01	; 1
    29a4:	f1 f7       	brne	.-4      	; 0x29a2 <lcd_init+0x50>
    /* Display with KS0073 controller requires special commands for enabling 4 line mode */
	lcd_command(KS0073_EXTENDED_FUNCTION_REGISTER_ON);
	lcd_command(KS0073_4LINES_MODE);
	lcd_command(KS0073_EXTENDED_FUNCTION_REGISTER_OFF);
#else
    lcd_command(LCD_FUNCTION_DEFAULT);      /* function set: display lines  */
    29a6:	88 e2       	ldi	r24, 0x28	; 40
    29a8:	0e 94 33 14 	call	0x2866	; 0x2866 <lcd_command>
#endif
    lcd_command(LCD_DISP_OFF);              /* display off                  */
    29ac:	88 e0       	ldi	r24, 0x08	; 8
    29ae:	0e 94 33 14 	call	0x2866	; 0x2866 <lcd_command>
    lcd_clrscr();                           /* display clear                */ 
    29b2:	0e 94 5b 14 	call	0x28b6	; 0x28b6 <lcd_clrscr>
    lcd_command(LCD_MODE_DEFAULT);          /* set entry mode               */
    29b6:	86 e0       	ldi	r24, 0x06	; 6
    29b8:	0e 94 33 14 	call	0x2866	; 0x2866 <lcd_command>
    lcd_command(dispAttr);                  /* display/cursor control       */
    29bc:	81 2f       	mov	r24, r17
    29be:	0e 94 33 14 	call	0x2866	; 0x2866 <lcd_command>

}/* lcd_init */
    29c2:	1f 91       	pop	r17
    29c4:	08 95       	ret

000029c6 <config_io_nixie>:
#include "mynixie.h"
#include <stdbool.h>
#include <avr/pgmspace.h>

void config_io_nixie() {
	SELECTOR_DDR |= (1 << GLOW_MINUS) | (1 << GLOW_DOT) | (1 << NIXIE_1)
    29c6:	84 b3       	in	r24, 0x14	; 20
    29c8:	88 6f       	ori	r24, 0xF8	; 248
    29ca:	84 bb       	out	0x14, r24	; 20
			| (1 << NIXIE_2) | (1 << NIXIE_3);
	SELECTOR_DDR_SYM |= (1 << NIXIE_4);
    29cc:	e1 e6       	ldi	r30, 0x61	; 97
    29ce:	f0 e0       	ldi	r31, 0x00	; 0
    29d0:	80 81       	ld	r24, Z
    29d2:	80 64       	ori	r24, 0x40	; 64
    29d4:	80 83       	st	Z, r24
	NUM_DDR |= (1 << BCD_A) | (1 << BCD_B) | (1 << BCD_D);
    29d6:	84 b3       	in	r24, 0x14	; 20
    29d8:	87 60       	ori	r24, 0x07	; 7
    29da:	84 bb       	out	0x14, r24	; 20
	DDRD |= (1 << BCD_C);
    29dc:	8f 9a       	sbi	0x11, 7	; 17
}
    29de:	08 95       	ret

000029e0 <set_nixie_rgb>:
		0xFD, 0xFD, 0xFD, 0xFD, 0xFD, 0xFD, 0xFD, 0xFD, 0xFD, 0xFD, 0xFD, 0xFD,
		0xFD, 0xFE, 0xFE, 0xFE, 0xFE, 0xFE, 0xFE, 0xFE, 0xFF, 0xFF };

///------------nixie_led_driving------------------------------------------
void set_nixie_rgb(uint16_t r, uint16_t g, uint16_t b) {
	NIXIE_LED_RED_PWM = r;
    29e0:	90 93 79 00 	sts	0x0079, r25
    29e4:	80 93 78 00 	sts	0x0078, r24
	NIXIE_LED_GREEN_PWM = g;
    29e8:	7b bd       	out	0x2b, r23	; 43
    29ea:	6a bd       	out	0x2a, r22	; 42
	NIXIE_LED_BLUE_PWM = b;
    29ec:	59 bd       	out	0x29, r21	; 41
    29ee:	48 bd       	out	0x28, r20	; 40
}
    29f0:	08 95       	ret

000029f2 <nixie_digit>:

void nixie_digit(uint8_t nixie, uint8_t value) {
	switch (nixie) {
    29f2:	82 30       	cpi	r24, 0x02	; 2
    29f4:	d9 f0       	breq	.+54     	; 0x2a2c <nixie_digit+0x3a>
    29f6:	83 30       	cpi	r24, 0x03	; 3
    29f8:	28 f4       	brcc	.+10     	; 0x2a04 <nixie_digit+0x12>
    29fa:	88 23       	and	r24, r24
    29fc:	41 f0       	breq	.+16     	; 0x2a0e <nixie_digit+0x1c>
    29fe:	81 30       	cpi	r24, 0x01	; 1
    2a00:	b9 f5       	brne	.+110    	; 0x2a70 <nixie_digit+0x7e>
    2a02:	0c c0       	rjmp	.+24     	; 0x2a1c <nixie_digit+0x2a>
    2a04:	83 30       	cpi	r24, 0x03	; 3
    2a06:	e9 f0       	breq	.+58     	; 0x2a42 <nixie_digit+0x50>
    2a08:	84 30       	cpi	r24, 0x04	; 4
    2a0a:	91 f5       	brne	.+100    	; 0x2a70 <nixie_digit+0x7e>
    2a0c:	2c c0       	rjmp	.+88     	; 0x2a66 <nixie_digit+0x74>
	case 0:
		if (nixie_enable_mask & (1 << 3)) {
    2a0e:	80 91 15 07 	lds	r24, 0x0715
    2a12:	83 ff       	sbrs	r24, 3
    2a14:	23 c0       	rjmp	.+70     	; 0x2a5c <nixie_digit+0x6a>
			NIXIE_1_ENABLE;
    2a16:	ab 9a       	sbi	0x15, 3	; 21
			NIXIE_2_DISABLE;
    2a18:	ac 98       	cbi	0x15, 4	; 21
    2a1a:	06 c0       	rjmp	.+12     	; 0x2a28 <nixie_digit+0x36>
			NIXIE_3_DISABLE;
		}
		break;

	case 1:
		if (nixie_enable_mask & (1 << 2)) {
    2a1c:	80 91 15 07 	lds	r24, 0x0715
    2a20:	82 ff       	sbrs	r24, 2
    2a22:	1c c0       	rjmp	.+56     	; 0x2a5c <nixie_digit+0x6a>
			NIXIE_1_DISABLE;
    2a24:	ab 98       	cbi	0x15, 3	; 21
			NIXIE_2_ENABLE;
    2a26:	ac 9a       	sbi	0x15, 4	; 21
			NIXIE_3_DISABLE;
    2a28:	ad 98       	cbi	0x15, 5	; 21
    2a2a:	07 c0       	rjmp	.+14     	; 0x2a3a <nixie_digit+0x48>
			NIXIE_3_DISABLE;
		}
		break;

	case 2:
		if (nixie_enable_mask & (1 << 1)) {
    2a2c:	80 91 15 07 	lds	r24, 0x0715
    2a30:	81 ff       	sbrs	r24, 1
    2a32:	14 c0       	rjmp	.+40     	; 0x2a5c <nixie_digit+0x6a>
			NIXIE_1_DISABLE;
    2a34:	ab 98       	cbi	0x15, 3	; 21
			NIXIE_2_DISABLE;
    2a36:	ac 98       	cbi	0x15, 4	; 21
			NIXIE_3_ENABLE;
    2a38:	ad 9a       	sbi	0x15, 5	; 21
			NIXIE_4_DISABLE;
    2a3a:	80 91 62 00 	lds	r24, 0x0062
    2a3e:	8f 7b       	andi	r24, 0xBF	; 191
    2a40:	0a c0       	rjmp	.+20     	; 0x2a56 <nixie_digit+0x64>
			NIXIE_3_DISABLE;
		}
		break;

	case 3:
		if (nixie_enable_mask & (1 << 0)) {
    2a42:	80 91 15 07 	lds	r24, 0x0715
    2a46:	80 ff       	sbrs	r24, 0
    2a48:	09 c0       	rjmp	.+18     	; 0x2a5c <nixie_digit+0x6a>
			NIXIE_1_DISABLE;
    2a4a:	ab 98       	cbi	0x15, 3	; 21
			NIXIE_2_DISABLE;
    2a4c:	ac 98       	cbi	0x15, 4	; 21
			NIXIE_3_DISABLE;
    2a4e:	ad 98       	cbi	0x15, 5	; 21
			NIXIE_4_ENABLE;
    2a50:	80 91 62 00 	lds	r24, 0x0062
    2a54:	80 64       	ori	r24, 0x40	; 64
    2a56:	80 93 62 00 	sts	0x0062, r24
    2a5a:	0d c0       	rjmp	.+26     	; 0x2a76 <nixie_digit+0x84>
		} else {
			NIXIE_1_DISABLE;
    2a5c:	ab 98       	cbi	0x15, 3	; 21
			NIXIE_2_DISABLE;
    2a5e:	ac 98       	cbi	0x15, 4	; 21
			NIXIE_3_DISABLE;
    2a60:	ad 98       	cbi	0x15, 5	; 21
			NIXIE_3_DISABLE;
    2a62:	ad 98       	cbi	0x15, 5	; 21
    2a64:	08 c0       	rjmp	.+16     	; 0x2a76 <nixie_digit+0x84>
		}
		break;

	case 4:
		NIXIE_1_DISABLE;
    2a66:	ab 98       	cbi	0x15, 3	; 21
		NIXIE_2_DISABLE;
    2a68:	ac 98       	cbi	0x15, 4	; 21
		NIXIE_3_DISABLE;
    2a6a:	ad 98       	cbi	0x15, 5	; 21
		NIXIE_3_DISABLE;
    2a6c:	ad 98       	cbi	0x15, 5	; 21
    2a6e:	08 95       	ret
		break;
	}

	if (nixie != 4) {
    2a70:	84 30       	cpi	r24, 0x04	; 4
    2a72:	09 f4       	brne	.+2      	; 0x2a76 <nixie_digit+0x84>
    2a74:	4c c0       	rjmp	.+152    	; 0x2b0e <nixie_digit+0x11c>
		switch (value) {
    2a76:	64 30       	cpi	r22, 0x04	; 4
    2a78:	61 f1       	breq	.+88     	; 0x2ad2 <nixie_digit+0xe0>
    2a7a:	65 30       	cpi	r22, 0x05	; 5
    2a7c:	50 f4       	brcc	.+20     	; 0x2a92 <nixie_digit+0xa0>
    2a7e:	61 30       	cpi	r22, 0x01	; 1
    2a80:	c9 f0       	breq	.+50     	; 0x2ab4 <nixie_digit+0xc2>
    2a82:	61 30       	cpi	r22, 0x01	; 1
    2a84:	a0 f0       	brcs	.+40     	; 0x2aae <nixie_digit+0xbc>
    2a86:	62 30       	cpi	r22, 0x02	; 2
    2a88:	d1 f0       	breq	.+52     	; 0x2abe <nixie_digit+0xcc>
    2a8a:	63 30       	cpi	r22, 0x03	; 3
    2a8c:	09 f0       	breq	.+2      	; 0x2a90 <nixie_digit+0x9e>
    2a8e:	3f c0       	rjmp	.+126    	; 0x2b0e <nixie_digit+0x11c>
    2a90:	1b c0       	rjmp	.+54     	; 0x2ac8 <nixie_digit+0xd6>
    2a92:	67 30       	cpi	r22, 0x07	; 7
    2a94:	59 f1       	breq	.+86     	; 0x2aec <nixie_digit+0xfa>
    2a96:	68 30       	cpi	r22, 0x08	; 8
    2a98:	28 f4       	brcc	.+10     	; 0x2aa4 <nixie_digit+0xb2>
    2a9a:	65 30       	cpi	r22, 0x05	; 5
    2a9c:	e9 f0       	breq	.+58     	; 0x2ad8 <nixie_digit+0xe6>
    2a9e:	66 30       	cpi	r22, 0x06	; 6
    2aa0:	b1 f5       	brne	.+108    	; 0x2b0e <nixie_digit+0x11c>
    2aa2:	1f c0       	rjmp	.+62     	; 0x2ae2 <nixie_digit+0xf0>
    2aa4:	68 30       	cpi	r22, 0x08	; 8
    2aa6:	41 f1       	breq	.+80     	; 0x2af8 <nixie_digit+0x106>
    2aa8:	69 30       	cpi	r22, 0x09	; 9
    2aaa:	89 f5       	brne	.+98     	; 0x2b0e <nixie_digit+0x11c>
    2aac:	2b c0       	rjmp	.+86     	; 0x2b04 <nixie_digit+0x112>
		case 0:
			NUM_PORT &= ~((1 << BCD_A) | (1 << BCD_B) | (1 << BCD_D));
    2aae:	85 b3       	in	r24, 0x15	; 21
    2ab0:	88 7f       	andi	r24, 0xF8	; 248
    2ab2:	0d c0       	rjmp	.+26     	; 0x2ace <nixie_digit+0xdc>
			PORTD &= ~(1 << BCD_C);
			break;
		case 1:
			NUM_PORT &= ~((1 << BCD_B) | (1 << BCD_D));
    2ab4:	85 b3       	in	r24, 0x15	; 21
    2ab6:	8c 7f       	andi	r24, 0xFC	; 252
    2ab8:	85 bb       	out	0x15, r24	; 21
			NUM_PORT |= (1 << BCD_A);
    2aba:	aa 9a       	sbi	0x15, 2	; 21
    2abc:	21 c0       	rjmp	.+66     	; 0x2b00 <nixie_digit+0x10e>
			PORTD &= ~(1 << BCD_C);
			break;
		case 2:
			NUM_PORT &= ~((1 << BCD_A) | (1 << BCD_D));
    2abe:	85 b3       	in	r24, 0x15	; 21
    2ac0:	89 7f       	andi	r24, 0xF9	; 249
    2ac2:	85 bb       	out	0x15, r24	; 21
			NUM_PORT |= (1 << BCD_B);
    2ac4:	a8 9a       	sbi	0x15, 0	; 21
    2ac6:	1c c0       	rjmp	.+56     	; 0x2b00 <nixie_digit+0x10e>
			PORTD &= ~(1 << BCD_C);
			break;
		case 3:
			NUM_PORT &= ~(1 << BCD_D);
    2ac8:	a9 98       	cbi	0x15, 1	; 21
			NUM_PORT |= (1 << BCD_A) | (1 << BCD_B);
    2aca:	85 b3       	in	r24, 0x15	; 21
    2acc:	85 60       	ori	r24, 0x05	; 5
    2ace:	85 bb       	out	0x15, r24	; 21
    2ad0:	17 c0       	rjmp	.+46     	; 0x2b00 <nixie_digit+0x10e>
			PORTD &= ~(1 << BCD_C);
			break;
		case 4:
			NUM_PORT &= ~((1 << BCD_A) | (1 << BCD_B) | (1 << BCD_D));
    2ad2:	85 b3       	in	r24, 0x15	; 21
    2ad4:	88 7f       	andi	r24, 0xF8	; 248
    2ad6:	0d c0       	rjmp	.+26     	; 0x2af2 <nixie_digit+0x100>
			PORTD |= (1 << BCD_C);
			break;
		case 5:
			NUM_PORT &= ~((1 << BCD_B) | (1 << BCD_D));
    2ad8:	85 b3       	in	r24, 0x15	; 21
    2ada:	8c 7f       	andi	r24, 0xFC	; 252
    2adc:	85 bb       	out	0x15, r24	; 21
			NUM_PORT |= (1 << BCD_A);
    2ade:	aa 9a       	sbi	0x15, 2	; 21
    2ae0:	09 c0       	rjmp	.+18     	; 0x2af4 <nixie_digit+0x102>
			PORTD |= (1 << BCD_C);
			break;
		case 6:
			NUM_PORT &= ~((1 << BCD_A) | (1 << BCD_D));
    2ae2:	85 b3       	in	r24, 0x15	; 21
    2ae4:	89 7f       	andi	r24, 0xF9	; 249
    2ae6:	85 bb       	out	0x15, r24	; 21
			NUM_PORT |= (1 << BCD_B);
    2ae8:	a8 9a       	sbi	0x15, 0	; 21
    2aea:	04 c0       	rjmp	.+8      	; 0x2af4 <nixie_digit+0x102>
			PORTD |= (1 << BCD_C);
			break;
		case 7:
			NUM_PORT &= ~(1 << BCD_D);
    2aec:	a9 98       	cbi	0x15, 1	; 21
			NUM_PORT |= (1 << BCD_A) | (1 << BCD_B);
    2aee:	85 b3       	in	r24, 0x15	; 21
    2af0:	85 60       	ori	r24, 0x05	; 5
    2af2:	85 bb       	out	0x15, r24	; 21
			PORTD |= (1 << BCD_C);
    2af4:	97 9a       	sbi	0x12, 7	; 18
    2af6:	08 95       	ret
			break;
		case 8:
			NUM_PORT &= ~((1 << BCD_B) | (1 << BCD_A));
    2af8:	85 b3       	in	r24, 0x15	; 21
    2afa:	8a 7f       	andi	r24, 0xFA	; 250
    2afc:	85 bb       	out	0x15, r24	; 21
			NUM_PORT |= (1 << BCD_D);
    2afe:	a9 9a       	sbi	0x15, 1	; 21
			PORTD &= ~(1 << BCD_C);
    2b00:	97 98       	cbi	0x12, 7	; 18
    2b02:	08 95       	ret
			break;
		case 9:
			NUM_PORT &= ~(1 << BCD_B);
    2b04:	a8 98       	cbi	0x15, 0	; 21
			NUM_PORT |= (1 << BCD_A) | (1 << BCD_D);
    2b06:	85 b3       	in	r24, 0x15	; 21
    2b08:	86 60       	ori	r24, 0x06	; 6
    2b0a:	85 bb       	out	0x15, r24	; 21
			PORTD &= ~(1 << BCD_C);
    2b0c:	97 98       	cbi	0x12, 7	; 18
    2b0e:	08 95       	ret

00002b10 <all_nixies_on>:
		}
	}
}

void all_nixies_on(void) {
	NIXIE_1_ENABLE;
    2b10:	ab 9a       	sbi	0x15, 3	; 21
	NIXIE_2_ENABLE;
    2b12:	ac 9a       	sbi	0x15, 4	; 21
	NIXIE_3_ENABLE;
    2b14:	ad 9a       	sbi	0x15, 5	; 21
	NIXIE_4_ENABLE;
    2b16:	e2 e6       	ldi	r30, 0x62	; 98
    2b18:	f0 e0       	ldi	r31, 0x00	; 0
    2b1a:	80 81       	ld	r24, Z
    2b1c:	80 64       	ori	r24, 0x40	; 64
    2b1e:	80 83       	st	Z, r24
	NIXIES_ENABLE;
    2b20:	87 b7       	in	r24, 0x37	; 55
    2b22:	80 64       	ori	r24, 0x40	; 64
    2b24:	87 bf       	out	0x37, r24	; 55
	GLOW_DOT_ON;
    2b26:	af 9a       	sbi	0x15, 7	; 21
	GLOW_MINUS_ON;
    2b28:	ae 9a       	sbi	0x15, 6	; 21
}
    2b2a:	08 95       	ret

00002b2c <all_nixies_off>:

void all_nixies_off(void) {
	NIXIE_1_DISABLE;
    2b2c:	ab 98       	cbi	0x15, 3	; 21
	NIXIE_2_DISABLE;
    2b2e:	ac 98       	cbi	0x15, 4	; 21
	NIXIE_3_DISABLE;
    2b30:	ad 98       	cbi	0x15, 5	; 21
	NIXIE_4_DISABLE;
    2b32:	e2 e6       	ldi	r30, 0x62	; 98
    2b34:	f0 e0       	ldi	r31, 0x00	; 0
    2b36:	80 81       	ld	r24, Z
    2b38:	8f 7b       	andi	r24, 0xBF	; 191
    2b3a:	80 83       	st	Z, r24
	NIXIES_DISABLE;
    2b3c:	87 b7       	in	r24, 0x37	; 55
    2b3e:	8f 7b       	andi	r24, 0xBF	; 191
    2b40:	87 bf       	out	0x37, r24	; 55
	GLOW_DOT_OFF;
    2b42:	af 98       	cbi	0x15, 7	; 21
	GLOW_MINUS_OFF;
    2b44:	ae 98       	cbi	0x15, 6	; 21
}
    2b46:	08 95       	ret

00002b48 <nixie_print>:

void nixie_print(char* value, bool dot, bool minus) {
    2b48:	fc 01       	movw	r30, r24
	digit[0] = (uint8_t) value[0] - '0';
    2b4a:	80 81       	ld	r24, Z
    2b4c:	80 53       	subi	r24, 0x30	; 48
    2b4e:	80 93 2f 07 	sts	0x072F, r24
	digit[1] = (uint8_t) value[1] - '0';
    2b52:	81 81       	ldd	r24, Z+1	; 0x01
    2b54:	80 53       	subi	r24, 0x30	; 48
    2b56:	80 93 30 07 	sts	0x0730, r24
	digit[2] = (uint8_t) value[2] - '0';
    2b5a:	82 81       	ldd	r24, Z+2	; 0x02
    2b5c:	80 53       	subi	r24, 0x30	; 48
    2b5e:	80 93 31 07 	sts	0x0731, r24
	digit[3] = (uint8_t) value[3] - '0';
    2b62:	83 81       	ldd	r24, Z+3	; 0x03
    2b64:	80 53       	subi	r24, 0x30	; 48
    2b66:	80 93 32 07 	sts	0x0732, r24

	if (dot)
    2b6a:	66 23       	and	r22, r22
    2b6c:	11 f0       	breq	.+4      	; 0x2b72 <nixie_print+0x2a>
		GLOW_DOT_ON;
    2b6e:	af 9a       	sbi	0x15, 7	; 21
    2b70:	01 c0       	rjmp	.+2      	; 0x2b74 <nixie_print+0x2c>
	else
		GLOW_DOT_OFF;
    2b72:	af 98       	cbi	0x15, 7	; 21

	if (minus)
    2b74:	44 23       	and	r20, r20
    2b76:	11 f0       	breq	.+4      	; 0x2b7c <nixie_print+0x34>
		GLOW_MINUS_ON;
    2b78:	ae 9a       	sbi	0x15, 6	; 21
    2b7a:	08 95       	ret
	else
		GLOW_MINUS_OFF;
    2b7c:	ae 98       	cbi	0x15, 6	; 21
    2b7e:	08 95       	ret

00002b80 <nixie_suppy>:
}

void nixie_suppy(uint8_t value) {
	switch (value) {
    2b80:	81 30       	cpi	r24, 0x01	; 1
    2b82:	59 f0       	breq	.+22     	; 0x2b9a <nixie_suppy+0x1a>
    2b84:	81 30       	cpi	r24, 0x01	; 1
    2b86:	28 f0       	brcs	.+10     	; 0x2b92 <nixie_suppy+0x12>
    2b88:	82 30       	cpi	r24, 0x02	; 2
    2b8a:	51 f0       	breq	.+20     	; 0x2ba0 <nixie_suppy+0x20>
    2b8c:	83 30       	cpi	r24, 0x03	; 3
    2b8e:	71 f4       	brne	.+28     	; 0x2bac <nixie_suppy+0x2c>
    2b90:	0a c0       	rjmp	.+20     	; 0x2ba6 <nixie_suppy+0x26>
	case 0:
		PORTD |= (1 << NIXIE_SUPPLY_A) | (1 << NIXIE_SUPPLY_B);
    2b92:	82 b3       	in	r24, 0x12	; 18
    2b94:	80 66       	ori	r24, 0x60	; 96
    2b96:	82 bb       	out	0x12, r24	; 18
    2b98:	08 95       	ret
		break;

	case 1:
		PORTD |= (1 << NIXIE_SUPPLY_A);
    2b9a:	95 9a       	sbi	0x12, 5	; 18
		PORTD &= ~(1 << NIXIE_SUPPLY_B);
    2b9c:	96 98       	cbi	0x12, 6	; 18
    2b9e:	08 95       	ret
		break;

	case 2:
		PORTD &= ~(1 << NIXIE_SUPPLY_A);
    2ba0:	95 98       	cbi	0x12, 5	; 18
		PORTD |= (1 << NIXIE_SUPPLY_B);
    2ba2:	96 9a       	sbi	0x12, 6	; 18
    2ba4:	08 95       	ret
		break;

	case 3:
		PORTD &= ~((1 << NIXIE_SUPPLY_A) | (1 << NIXIE_SUPPLY_B));
    2ba6:	82 b3       	in	r24, 0x12	; 18
    2ba8:	8f 79       	andi	r24, 0x9F	; 159
    2baa:	82 bb       	out	0x12, r24	; 18
    2bac:	08 95       	ret

00002bae <nixie_display_change>:

	nixie_print(data, true, isminus);
}

void nixie_display_change(uint8_t val) {
	GLOW_MINUS_OFF;
    2bae:	ae 98       	cbi	0x15, 6	; 21
	GLOW_DOT_OFF;
    2bb0:	af 98       	cbi	0x15, 7	; 21
	uint8_t r = NIXIE_LED_RED_PWM;
    2bb2:	80 91 78 00 	lds	r24, 0x0078
    2bb6:	90 91 79 00 	lds	r25, 0x0079
	uint8_t g = NIXIE_LED_GREEN_PWM;
    2bba:	8a b5       	in	r24, 0x2a	; 42
    2bbc:	9b b5       	in	r25, 0x2b	; 43
	uint8_t b = NIXIE_LED_BLUE_PWM;
    2bbe:	88 b5       	in	r24, 0x28	; 40
    2bc0:	99 b5       	in	r25, 0x29	; 41

}
    2bc2:	08 95       	ret

00002bc4 <nixie_dislpay_fadeout>:

void nixie_dislpay_fadeout(void) {
    2bc4:	ef 92       	push	r14
    2bc6:	ff 92       	push	r15
    2bc8:	0f 93       	push	r16
    2bca:	1f 93       	push	r17
    2bcc:	cf 93       	push	r28
    2bce:	df 93       	push	r29
	GLOW_MINUS_OFF;
    2bd0:	ae 98       	cbi	0x15, 6	; 21
	GLOW_DOT_OFF;
    2bd2:	af 98       	cbi	0x15, 7	; 21
	uint8_t r = NIXIE_LED_RED_PWM;
    2bd4:	80 91 78 00 	lds	r24, 0x0078
    2bd8:	90 91 79 00 	lds	r25, 0x0079
    2bdc:	e8 2e       	mov	r14, r24
	uint8_t g = NIXIE_LED_GREEN_PWM;
    2bde:	8a b5       	in	r24, 0x2a	; 42
    2be0:	9b b5       	in	r25, 0x2b	; 43
    2be2:	f8 2e       	mov	r15, r24
	uint8_t b = NIXIE_LED_BLUE_PWM;
    2be4:	88 b5       	in	r24, 0x28	; 40
    2be6:	99 b5       	in	r25, 0x29	; 41
    2be8:	08 2f       	mov	r16, r24
//	uint8_t a[] = { 1, 2, 3, 6, 7, 9, 0, 1, 2, 3, 6, 7, 9, 0, 1, 2, 3, 6, 7, 9,
//			0, 1, 2, 3, 6, 7, 9 };

	nixie_enable_mask = 0b00001111;
    2bea:	8f e0       	ldi	r24, 0x0F	; 15
    2bec:	80 93 15 07 	sts	0x0715, r24
    2bf0:	1f ef       	ldi	r17, 0xFF	; 255
    2bf2:	c0 e8       	ldi	r28, 0x80	; 128
    2bf4:	de e3       	ldi	r29, 0x3E	; 62

	for (uint8_t i = 255; i > 0; i--) {
		if (r > 0)
    2bf6:	e1 10       	cpse	r14, r1
			r--;
    2bf8:	ea 94       	dec	r14
		if (g > 0)
    2bfa:	f1 10       	cpse	r15, r1
			g--;
    2bfc:	fa 94       	dec	r15
		if (b > 0)
    2bfe:	01 11       	cpse	r16, r1
			b--;
    2c00:	01 50       	subi	r16, 0x01	; 1
		set_nixie_rgb(r, g, b);
    2c02:	8e 2d       	mov	r24, r14
    2c04:	90 e0       	ldi	r25, 0x00	; 0
    2c06:	2f 2d       	mov	r18, r15
    2c08:	30 e0       	ldi	r19, 0x00	; 0
    2c0a:	40 2f       	mov	r20, r16
    2c0c:	50 e0       	ldi	r21, 0x00	; 0
		0xFD, 0xFD, 0xFD, 0xFD, 0xFD, 0xFD, 0xFD, 0xFD, 0xFD, 0xFD, 0xFD, 0xFD,
		0xFD, 0xFE, 0xFE, 0xFE, 0xFE, 0xFE, 0xFE, 0xFE, 0xFF, 0xFF };

///------------nixie_led_driving------------------------------------------
void set_nixie_rgb(uint16_t r, uint16_t g, uint16_t b) {
	NIXIE_LED_RED_PWM = r;
    2c0e:	90 93 79 00 	sts	0x0079, r25
    2c12:	80 93 78 00 	sts	0x0078, r24
	NIXIE_LED_GREEN_PWM = g;
    2c16:	3b bd       	out	0x2b, r19	; 43
    2c18:	2a bd       	out	0x2a, r18	; 42
	NIXIE_LED_BLUE_PWM = b;
    2c1a:	59 bd       	out	0x29, r21	; 41
    2c1c:	48 bd       	out	0x28, r20	; 40
    2c1e:	ce 01       	movw	r24, r28
    2c20:	01 97       	sbiw	r24, 0x01	; 1
    2c22:	f1 f7       	brne	.-4      	; 0x2c20 <nixie_dislpay_fadeout+0x5c>
		if (b > 0)
			b--;
		set_nixie_rgb(r, g, b);
		_delay_ms(4);

		if (i % 25 == 0) {
    2c24:	81 2f       	mov	r24, r17
    2c26:	69 e1       	ldi	r22, 0x19	; 25
    2c28:	0e 94 38 22 	call	0x4470	; 0x4470 <__udivmodqi4>
    2c2c:	99 23       	and	r25, r25
    2c2e:	01 f5       	brne	.+64     	; 0x2c70 <nixie_dislpay_fadeout+0xac>
			digit[0] = rand() % 9;
    2c30:	0e 94 19 24 	call	0x4832	; 0x4832 <rand>
    2c34:	69 e0       	ldi	r22, 0x09	; 9
    2c36:	70 e0       	ldi	r23, 0x00	; 0
    2c38:	0e 94 44 22 	call	0x4488	; 0x4488 <__divmodhi4>
    2c3c:	80 93 2f 07 	sts	0x072F, r24
			digit[1] = rand() % 9;
    2c40:	0e 94 19 24 	call	0x4832	; 0x4832 <rand>
    2c44:	69 e0       	ldi	r22, 0x09	; 9
    2c46:	70 e0       	ldi	r23, 0x00	; 0
    2c48:	0e 94 44 22 	call	0x4488	; 0x4488 <__divmodhi4>
    2c4c:	80 93 30 07 	sts	0x0730, r24
			digit[2] = rand() % 9;
    2c50:	0e 94 19 24 	call	0x4832	; 0x4832 <rand>
    2c54:	69 e0       	ldi	r22, 0x09	; 9
    2c56:	70 e0       	ldi	r23, 0x00	; 0
    2c58:	0e 94 44 22 	call	0x4488	; 0x4488 <__divmodhi4>
    2c5c:	80 93 31 07 	sts	0x0731, r24
			digit[3] = rand() % 9;
    2c60:	0e 94 19 24 	call	0x4832	; 0x4832 <rand>
    2c64:	69 e0       	ldi	r22, 0x09	; 9
    2c66:	70 e0       	ldi	r23, 0x00	; 0
    2c68:	0e 94 44 22 	call	0x4488	; 0x4488 <__divmodhi4>
    2c6c:	80 93 32 07 	sts	0x0732, r24
//	uint8_t a[] = { 1, 2, 3, 6, 7, 9, 0, 1, 2, 3, 6, 7, 9, 0, 1, 2, 3, 6, 7, 9,
//			0, 1, 2, 3, 6, 7, 9 };

	nixie_enable_mask = 0b00001111;

	for (uint8_t i = 255; i > 0; i--) {
    2c70:	11 50       	subi	r17, 0x01	; 1
    2c72:	09 f0       	breq	.+2      	; 0x2c76 <nixie_dislpay_fadeout+0xb2>
    2c74:	c0 cf       	rjmp	.-128    	; 0x2bf6 <nixie_dislpay_fadeout+0x32>
		0xFD, 0xFD, 0xFD, 0xFD, 0xFD, 0xFD, 0xFD, 0xFD, 0xFD, 0xFD, 0xFD, 0xFD,
		0xFD, 0xFE, 0xFE, 0xFE, 0xFE, 0xFE, 0xFE, 0xFE, 0xFF, 0xFF };

///------------nixie_led_driving------------------------------------------
void set_nixie_rgb(uint16_t r, uint16_t g, uint16_t b) {
	NIXIE_LED_RED_PWM = r;
    2c76:	10 92 79 00 	sts	0x0079, r1
    2c7a:	10 92 78 00 	sts	0x0078, r1
	NIXIE_LED_GREEN_PWM = g;
    2c7e:	1b bc       	out	0x2b, r1	; 43
    2c80:	1a bc       	out	0x2a, r1	; 42
	NIXIE_LED_BLUE_PWM = b;
    2c82:	19 bc       	out	0x29, r1	; 41
    2c84:	18 bc       	out	0x28, r1	; 40
			//GLOW_DOT_TOGGLE;
		}
	}

	set_nixie_rgb(0, 0, 0);
	nixie_enable_mask = 0b00000000;
    2c86:	10 92 15 07 	sts	0x0715, r1
	GLOW_MINUS_OFF;
    2c8a:	ae 98       	cbi	0x15, 6	; 21
	GLOW_DOT_OFF;
    2c8c:	af 98       	cbi	0x15, 7	; 21
    2c8e:	80 e4       	ldi	r24, 0x40	; 64
    2c90:	9c e9       	ldi	r25, 0x9C	; 156
    2c92:	01 97       	sbiw	r24, 0x01	; 1
    2c94:	f1 f7       	brne	.-4      	; 0x2c92 <nixie_dislpay_fadeout+0xce>

	_delay_ms(10);
}
    2c96:	df 91       	pop	r29
    2c98:	cf 91       	pop	r28
    2c9a:	1f 91       	pop	r17
    2c9c:	0f 91       	pop	r16
    2c9e:	ff 90       	pop	r15
    2ca0:	ef 90       	pop	r14
    2ca2:	08 95       	ret

00002ca4 <nixie_print_value>:
	default:
		break;
	}
}

void nixie_print_value(char* data, char sign, uint8_t minus) {
    2ca4:	0f 93       	push	r16
    2ca6:	1f 93       	push	r17
    2ca8:	cf 93       	push	r28
    2caa:	df 93       	push	r29
    2cac:	ec 01       	movw	r28, r24
    2cae:	16 2f       	mov	r17, r22
    2cb0:	04 2f       	mov	r16, r20
	bool isminus;

	float tmp = atof(data);
    2cb2:	0e 94 29 24 	call	0x4852	; 0x4852 <atof>

	if (tmp > 10) {
    2cb6:	20 e0       	ldi	r18, 0x00	; 0
    2cb8:	30 e0       	ldi	r19, 0x00	; 0
    2cba:	40 e2       	ldi	r20, 0x20	; 32
    2cbc:	51 e4       	ldi	r21, 0x41	; 65
    2cbe:	0e 94 ac 02 	call	0x558	; 0x558 <__gtsf2>
    2cc2:	18 16       	cp	r1, r24
    2cc4:	34 f4       	brge	.+12     	; 0x2cd2 <nixie_print_value+0x2e>

		//if (data[0] == 32)
		//	data[0] = '0';
		data[2] = data[3];
    2cc6:	8b 81       	ldd	r24, Y+3	; 0x03
    2cc8:	8a 83       	std	Y+2, r24	; 0x02
		data[3] = sign;
    2cca:	1b 83       	std	Y+3, r17	; 0x03
		data[4] = '\0';
    2ccc:	1c 82       	std	Y+4, r1	; 0x04
		nixie_enable_mask = 0b0001111;
    2cce:	8f e0       	ldi	r24, 0x0F	; 15
    2cd0:	0a c0       	rjmp	.+20     	; 0x2ce6 <nixie_print_value+0x42>
	} else {
		if (data[0] == 32)
    2cd2:	88 81       	ld	r24, Y
    2cd4:	80 32       	cpi	r24, 0x20	; 32
    2cd6:	11 f4       	brne	.+4      	; 0x2cdc <nixie_print_value+0x38>
			data[0] = '0';
    2cd8:	80 e3       	ldi	r24, 0x30	; 48
    2cda:	88 83       	st	Y, r24
		//data[1] = data[0];
		//data[0] = '0';
		data[2] = data[3];
    2cdc:	8b 81       	ldd	r24, Y+3	; 0x03
    2cde:	8a 83       	std	Y+2, r24	; 0x02
		//data[3] = sign;
		data[3] = sign;
    2ce0:	1b 83       	std	Y+3, r17	; 0x03
		data[4] = '\0';
    2ce2:	1c 82       	std	Y+4, r1	; 0x04
		nixie_enable_mask = 0b0000111;
    2ce4:	87 e0       	ldi	r24, 0x07	; 7
    2ce6:	80 93 15 07 	sts	0x0715, r24
	}

	if (minus > 0)
    2cea:	40 e0       	ldi	r20, 0x00	; 0
    2cec:	01 11       	cpse	r16, r1
    2cee:	41 e0       	ldi	r20, 0x01	; 1
    2cf0:	ce 01       	movw	r24, r28
    2cf2:	61 e0       	ldi	r22, 0x01	; 1
    2cf4:	0e 94 a4 15 	call	0x2b48	; 0x2b48 <nixie_print>
		isminus = true;
	else
		isminus = false;

	nixie_print(data, true, isminus);
}
    2cf8:	df 91       	pop	r29
    2cfa:	cf 91       	pop	r28
    2cfc:	1f 91       	pop	r17
    2cfe:	0f 91       	pop	r16
    2d00:	08 95       	ret

00002d02 <nrf24l01_getstatus>:
/*
 * get status register
 */
uint8_t nrf24l01_getstatus() {
	uint8_t status = 0;
	nrf24l01_CSNlo; //low CSN
    2d02:	c0 98       	cbi	0x18, 0	; 24
	status = spi_writereadbyte(NRF24L01_CMD_NOP); //get status, send NOP request
    2d04:	8f ef       	ldi	r24, 0xFF	; 255
    2d06:	0e 94 72 18 	call	0x30e4	; 0x30e4 <spi_writereadbyte>
	nrf24l01_CSNhi; //high CSN
    2d0a:	c0 9a       	sbi	0x18, 0	; 24
	return status;
}
    2d0c:	08 95       	ret

00002d0e <nrf24l01_readready>:

/*
 * check if there is data ready
 */
uint8_t nrf24l01_readready(uint8_t* pipe) {
    2d0e:	cf 93       	push	r28
    2d10:	df 93       	push	r29
    2d12:	ec 01       	movw	r28, r24
    uint8_t status = nrf24l01_getstatus();
    2d14:	0e 94 81 16 	call	0x2d02	; 0x2d02 <nrf24l01_getstatus>
    uint8_t ret = status & (1<<NRF24L01_REG_RX_DR);
    if(ret) {
    2d18:	98 2f       	mov	r25, r24
    2d1a:	90 74       	andi	r25, 0x40	; 64
    2d1c:	86 ff       	sbrs	r24, 6
    2d1e:	05 c0       	rjmp	.+10     	; 0x2d2a <nrf24l01_readready+0x1c>
		//get the pipe number
		if(pipe)
    2d20:	20 97       	sbiw	r28, 0x00	; 0
    2d22:	19 f0       	breq	.+6      	; 0x2d2a <nrf24l01_readready+0x1c>
			*pipe = (status >> NRF24L01_REG_RX_P_NO) & 0b111;
    2d24:	86 95       	lsr	r24
    2d26:	87 70       	andi	r24, 0x07	; 7
    2d28:	88 83       	st	Y, r24
    }
    return ret;
}
    2d2a:	89 2f       	mov	r24, r25
    2d2c:	df 91       	pop	r29
    2d2e:	cf 91       	pop	r28
    2d30:	08 95       	ret

00002d32 <nrf24l01_flushTXfifo>:

/*
 * flush TX fifo
 */
void nrf24l01_flushTXfifo() {
	nrf24l01_CSNlo; //low CSN
    2d32:	c0 98       	cbi	0x18, 0	; 24
	spi_writereadbyte(NRF24L01_CMD_FLUSH_TX);
    2d34:	81 ee       	ldi	r24, 0xE1	; 225
    2d36:	0e 94 72 18 	call	0x30e4	; 0x30e4 <spi_writereadbyte>
	nrf24l01_CSNhi; //high CSN
    2d3a:	c0 9a       	sbi	0x18, 0	; 24
}
    2d3c:	08 95       	ret

00002d3e <nrf24l01_flushRXfifo>:

/*
 * flush RX fifo
 */
void nrf24l01_flushRXfifo() {
	nrf24l01_CSNlo; //low CSN
    2d3e:	c0 98       	cbi	0x18, 0	; 24
	spi_writereadbyte(NRF24L01_CMD_FLUSH_RX);
    2d40:	82 ee       	ldi	r24, 0xE2	; 226
    2d42:	0e 94 72 18 	call	0x30e4	; 0x30e4 <spi_writereadbyte>
	nrf24l01_CSNhi; //high CSN
    2d46:	c0 9a       	sbi	0x18, 0	; 24
}
    2d48:	08 95       	ret

00002d4a <nrf24l01_writeregisters>:
}

/*
 * write many registers
 */
void nrf24l01_writeregisters(uint8_t reg, uint8_t *value, uint8_t len) {
    2d4a:	ff 92       	push	r15
    2d4c:	0f 93       	push	r16
    2d4e:	1f 93       	push	r17
    2d50:	cf 93       	push	r28
    2d52:	df 93       	push	r29
    2d54:	16 2f       	mov	r17, r22
    2d56:	07 2f       	mov	r16, r23
    2d58:	f4 2e       	mov	r15, r20
	uint8_t i = 0;
	nrf24l01_CSNlo; //low CSN
    2d5a:	c0 98       	cbi	0x18, 0	; 24
    spi_writereadbyte(NRF24L01_CMD_W_REGISTER | (NRF24L01_CMD_REGISTER_MASK & reg));
    2d5c:	8f 71       	andi	r24, 0x1F	; 31
    2d5e:	80 62       	ori	r24, 0x20	; 32
    2d60:	0e 94 72 18 	call	0x30e4	; 0x30e4 <spi_writereadbyte>
    2d64:	21 2f       	mov	r18, r17
    2d66:	30 2f       	mov	r19, r16
    2d68:	c9 01       	movw	r24, r18
    2d6a:	ec 01       	movw	r28, r24
    2d6c:	10 e0       	ldi	r17, 0x00	; 0
    2d6e:	04 c0       	rjmp	.+8      	; 0x2d78 <nrf24l01_writeregisters+0x2e>
	for(i=0; i<len; i++)
		 spi_writereadbyte(value[i]); //write register
    2d70:	89 91       	ld	r24, Y+
    2d72:	0e 94 72 18 	call	0x30e4	; 0x30e4 <spi_writereadbyte>
 */
void nrf24l01_writeregisters(uint8_t reg, uint8_t *value, uint8_t len) {
	uint8_t i = 0;
	nrf24l01_CSNlo; //low CSN
    spi_writereadbyte(NRF24L01_CMD_W_REGISTER | (NRF24L01_CMD_REGISTER_MASK & reg));
	for(i=0; i<len; i++)
    2d76:	1f 5f       	subi	r17, 0xFF	; 255
    2d78:	1f 15       	cp	r17, r15
    2d7a:	d0 f3       	brcs	.-12     	; 0x2d70 <nrf24l01_writeregisters+0x26>
		 spi_writereadbyte(value[i]); //write register
	nrf24l01_CSNhi; //high CSN
    2d7c:	c0 9a       	sbi	0x18, 0	; 24
}
    2d7e:	df 91       	pop	r29
    2d80:	cf 91       	pop	r28
    2d82:	1f 91       	pop	r17
    2d84:	0f 91       	pop	r16
    2d86:	ff 90       	pop	r15
    2d88:	08 95       	ret

00002d8a <nrf24l01_writeregister>:
}

/*
 * write one register
 */
void nrf24l01_writeregister(uint8_t reg, uint8_t value) {
    2d8a:	1f 93       	push	r17
    2d8c:	16 2f       	mov	r17, r22
	nrf24l01_CSNlo; //low CSN
    2d8e:	c0 98       	cbi	0x18, 0	; 24
	spi_writereadbyte(NRF24L01_CMD_W_REGISTER | (NRF24L01_CMD_REGISTER_MASK & reg));
    2d90:	8f 71       	andi	r24, 0x1F	; 31
    2d92:	80 62       	ori	r24, 0x20	; 32
    2d94:	0e 94 72 18 	call	0x30e4	; 0x30e4 <spi_writereadbyte>
	spi_writereadbyte(value); //write register
    2d98:	81 2f       	mov	r24, r17
    2d9a:	0e 94 72 18 	call	0x30e4	; 0x30e4 <spi_writereadbyte>
	nrf24l01_CSNhi; //high CSN
    2d9e:	c0 9a       	sbi	0x18, 0	; 24
}
    2da0:	1f 91       	pop	r17
    2da2:	08 95       	ret

00002da4 <nrf24l01_read>:
}

/*
 * get data
 */
void nrf24l01_read(uint8_t *data) {
    2da4:	0f 93       	push	r16
    2da6:	1f 93       	push	r17
    2da8:	cf 93       	push	r28
    2daa:	df 93       	push	r29
    2dac:	8c 01       	movw	r16, r24
	uint8_t i = 0;
	//read rx register
	nrf24l01_CSNlo; //low CSN
    2dae:	c0 98       	cbi	0x18, 0	; 24
    spi_writereadbyte(NRF24L01_CMD_R_RX_PAYLOAD);
    2db0:	81 e6       	ldi	r24, 0x61	; 97
    2db2:	0e 94 72 18 	call	0x30e4	; 0x30e4 <spi_writereadbyte>
    2db6:	c0 e0       	ldi	r28, 0x00	; 0
    2db8:	d0 e0       	ldi	r29, 0x00	; 0
    for(i=0; i<NRF24L01_PAYLOAD; i++)
    	data[i] = spi_writereadbyte(NRF24L01_CMD_NOP);
    2dba:	8f ef       	ldi	r24, 0xFF	; 255
    2dbc:	0e 94 72 18 	call	0x30e4	; 0x30e4 <spi_writereadbyte>
    2dc0:	f8 01       	movw	r30, r16
    2dc2:	ec 0f       	add	r30, r28
    2dc4:	fd 1f       	adc	r31, r29
    2dc6:	80 83       	st	Z, r24
    2dc8:	21 96       	adiw	r28, 0x01	; 1
void nrf24l01_read(uint8_t *data) {
	uint8_t i = 0;
	//read rx register
	nrf24l01_CSNlo; //low CSN
    spi_writereadbyte(NRF24L01_CMD_R_RX_PAYLOAD);
    for(i=0; i<NRF24L01_PAYLOAD; i++)
    2dca:	c0 32       	cpi	r28, 0x20	; 32
    2dcc:	d1 05       	cpc	r29, r1
    2dce:	a9 f7       	brne	.-22     	; 0x2dba <nrf24l01_read+0x16>
    	data[i] = spi_writereadbyte(NRF24L01_CMD_NOP);
    nrf24l01_CSNhi; //high CSN
    2dd0:	c0 9a       	sbi	0x18, 0	; 24
    //reset register
    nrf24l01_writeregister(NRF24L01_REG_STATUS, (1<<NRF24L01_REG_RX_DR));
    2dd2:	87 e0       	ldi	r24, 0x07	; 7
    2dd4:	60 e4       	ldi	r22, 0x40	; 64
    2dd6:	0e 94 c5 16 	call	0x2d8a	; 0x2d8a <nrf24l01_writeregister>
    //handle ack payload receipt
	if (nrf24l01_getstatus() & (1<<NRF24L01_REG_TX_DS))
    2dda:	0e 94 81 16 	call	0x2d02	; 0x2d02 <nrf24l01_getstatus>
    2dde:	85 ff       	sbrs	r24, 5
    2de0:	04 c0       	rjmp	.+8      	; 0x2dea <nrf24l01_read+0x46>
		nrf24l01_writeregister(NRF24L01_REG_STATUS, (1<<NRF24L01_REG_TX_DS));
    2de2:	87 e0       	ldi	r24, 0x07	; 7
    2de4:	60 e2       	ldi	r22, 0x20	; 32
    2de6:	0e 94 c5 16 	call	0x2d8a	; 0x2d8a <nrf24l01_writeregister>
}
    2dea:	df 91       	pop	r29
    2dec:	cf 91       	pop	r28
    2dee:	1f 91       	pop	r17
    2df0:	0f 91       	pop	r16
    2df2:	08 95       	ret

00002df4 <nrf24l01_readregisters>:
}

/*
 * read many registers
 */
void nrf24l01_readregisters(uint8_t reg, uint8_t *value, uint8_t len) {
    2df4:	ff 92       	push	r15
    2df6:	0f 93       	push	r16
    2df8:	1f 93       	push	r17
    2dfa:	cf 93       	push	r28
    2dfc:	df 93       	push	r29
    2dfe:	16 2f       	mov	r17, r22
    2e00:	07 2f       	mov	r16, r23
    2e02:	f4 2e       	mov	r15, r20
	uint8_t i = 0;
	nrf24l01_CSNlo; //low CSN
    2e04:	c0 98       	cbi	0x18, 0	; 24
	spi_writereadbyte(NRF24L01_CMD_R_REGISTER | (NRF24L01_CMD_REGISTER_MASK & reg));
    2e06:	8f 71       	andi	r24, 0x1F	; 31
    2e08:	0e 94 72 18 	call	0x30e4	; 0x30e4 <spi_writereadbyte>
    2e0c:	21 2f       	mov	r18, r17
    2e0e:	30 2f       	mov	r19, r16
    2e10:	c9 01       	movw	r24, r18
    2e12:	ec 01       	movw	r28, r24
    2e14:	10 e0       	ldi	r17, 0x00	; 0
    2e16:	05 c0       	rjmp	.+10     	; 0x2e22 <nrf24l01_readregisters+0x2e>
	for(i=0; i<len; i++)
		value[i] = spi_writereadbyte(NRF24L01_CMD_NOP); //read write register
    2e18:	8f ef       	ldi	r24, 0xFF	; 255
    2e1a:	0e 94 72 18 	call	0x30e4	; 0x30e4 <spi_writereadbyte>
    2e1e:	89 93       	st	Y+, r24
 */
void nrf24l01_readregisters(uint8_t reg, uint8_t *value, uint8_t len) {
	uint8_t i = 0;
	nrf24l01_CSNlo; //low CSN
	spi_writereadbyte(NRF24L01_CMD_R_REGISTER | (NRF24L01_CMD_REGISTER_MASK & reg));
	for(i=0; i<len; i++)
    2e20:	1f 5f       	subi	r17, 0xFF	; 255
    2e22:	1f 15       	cp	r17, r15
    2e24:	c8 f3       	brcs	.-14     	; 0x2e18 <nrf24l01_readregisters+0x24>
		value[i] = spi_writereadbyte(NRF24L01_CMD_NOP); //read write register
	nrf24l01_CSNhi; //high CSN
    2e26:	c0 9a       	sbi	0x18, 0	; 24
}
    2e28:	df 91       	pop	r29
    2e2a:	cf 91       	pop	r28
    2e2c:	1f 91       	pop	r17
    2e2e:	0f 91       	pop	r16
    2e30:	ff 90       	pop	r15
    2e32:	08 95       	ret

00002e34 <nrf24l01_readregister>:

/*
 * read one register
 */
uint8_t nrf24l01_readregister(uint8_t reg) {
	nrf24l01_CSNlo; //low CSN
    2e34:	c0 98       	cbi	0x18, 0	; 24
	spi_writereadbyte(NRF24L01_CMD_R_REGISTER | (NRF24L01_CMD_REGISTER_MASK & reg));
    2e36:	8f 71       	andi	r24, 0x1F	; 31
    2e38:	0e 94 72 18 	call	0x30e4	; 0x30e4 <spi_writereadbyte>
    uint8_t result = spi_writereadbyte(NRF24L01_CMD_NOP); //read write register
    2e3c:	8f ef       	ldi	r24, 0xFF	; 255
    2e3e:	0e 94 72 18 	call	0x30e4	; 0x30e4 <spi_writereadbyte>
    nrf24l01_CSNhi; //high CSN
    2e42:	c0 9a       	sbi	0x18, 0	; 24
    return result;
}
    2e44:	08 95       	ret

00002e46 <nrf24l01_setcrclength>:

/*
 * set crc length
 */
void nrf24l01_setcrclength() {
  uint8_t config = nrf24l01_readregister(NRF24L01_REG_CONFIG) & ~((1<<NRF24L01_REG_CRCO) | (1<<NRF24L01_REG_EN_CRC));
    2e46:	80 e0       	ldi	r24, 0x00	; 0
    2e48:	0e 94 1a 17 	call	0x2e34	; 0x2e34 <nrf24l01_readregister>
	  config |= (1<<NRF24L01_REG_CRCO);
  } else {
	  //default is disabled
  }

  nrf24l01_writeregister(NRF24L01_REG_CONFIG, config);
    2e4c:	68 2f       	mov	r22, r24
    2e4e:	6c 60       	ori	r22, 0x0C	; 12
    2e50:	80 e0       	ldi	r24, 0x00	; 0
    2e52:	0e 94 c5 16 	call	0x2d8a	; 0x2d8a <nrf24l01_writeregister>
}
    2e56:	08 95       	ret

00002e58 <nrf24l01_setdatarate>:

/*
 * set datarate
 */
void nrf24l01_setdatarate() {
  uint8_t setup = nrf24l01_readregister(NRF24L01_REG_RF_SETUP) ;
    2e58:	86 e0       	ldi	r24, 0x06	; 6
    2e5a:	0e 94 1a 17 	call	0x2e34	; 0x2e34 <nrf24l01_readregister>

  setup &= ~((1<<NRF24L01_REG_RF_DR_LOW) | (1<<NRF24L01_REG_RF_DR_HIGH));
    2e5e:	68 2f       	mov	r22, r24
    2e60:	67 7d       	andi	r22, 0xD7	; 215
    } else {
    	//default is 1Mbps
    }
  }

  nrf24l01_writeregister(NRF24L01_REG_RF_SETUP, setup);
    2e62:	60 62       	ori	r22, 0x20	; 32
    2e64:	86 e0       	ldi	r24, 0x06	; 6
    2e66:	0e 94 c5 16 	call	0x2d8a	; 0x2d8a <nrf24l01_writeregister>
}
    2e6a:	08 95       	ret

00002e6c <nrf24l01_setpalevel>:

/*
 * set power level
 */
void nrf24l01_setpalevel() {
  uint8_t setup = nrf24l01_readregister(NRF24L01_REG_RF_SETUP);
    2e6c:	86 e0       	ldi	r24, 0x06	; 6
    2e6e:	0e 94 1a 17 	call	0x2e34	; 0x2e34 <nrf24l01_readregister>
  } else {
	  //default is max power
	  setup |= (1<<NRF24L01_REG_RF_PWR_LOW) | (1<<NRF24L01_REG_RF_PWR_HIGH);
  }

  nrf24l01_writeregister(NRF24L01_REG_RF_SETUP, setup);
    2e72:	68 2f       	mov	r22, r24
    2e74:	66 60       	ori	r22, 0x06	; 6
    2e76:	86 e0       	ldi	r24, 0x06	; 6
    2e78:	0e 94 c5 16 	call	0x2d8a	; 0x2d8a <nrf24l01_writeregister>
}
    2e7c:	08 95       	ret

00002e7e <nrf24l01_setTX>:

/*
 * set chip as TX
 */
void nrf24l01_setTX() {
	nrf24l01_CElo; //stop listening
    2e7e:	94 98       	cbi	0x12, 4	; 18
	nrf24l01_writeregister(NRF24L01_REG_CONFIG, nrf24l01_readregister(NRF24L01_REG_CONFIG) & ~(1<<NRF24L01_REG_PRIM_RX)); //ptx mode
    2e80:	80 e0       	ldi	r24, 0x00	; 0
    2e82:	0e 94 1a 17 	call	0x2e34	; 0x2e34 <nrf24l01_readregister>
    2e86:	68 2f       	mov	r22, r24
    2e88:	6e 7f       	andi	r22, 0xFE	; 254
    2e8a:	80 e0       	ldi	r24, 0x00	; 0
    2e8c:	0e 94 c5 16 	call	0x2d8a	; 0x2d8a <nrf24l01_writeregister>
	nrf24l01_writeregister(NRF24L01_REG_CONFIG, nrf24l01_readregister(NRF24L01_REG_CONFIG) | (1<<NRF24L01_REG_PWR_UP)); //power up
    2e90:	80 e0       	ldi	r24, 0x00	; 0
    2e92:	0e 94 1a 17 	call	0x2e34	; 0x2e34 <nrf24l01_readregister>
    2e96:	68 2f       	mov	r22, r24
    2e98:	62 60       	ori	r22, 0x02	; 2
    2e9a:	80 e0       	ldi	r24, 0x00	; 0
    2e9c:	0e 94 c5 16 	call	0x2d8a	; 0x2d8a <nrf24l01_writeregister>
	nrf24l01_writeregister(NRF24L01_REG_STATUS, (1<<NRF24L01_REG_RX_DR) | (1<<NRF24L01_REG_TX_DS) | (1<<NRF24L01_REG_MAX_RT)); //reset status
    2ea0:	87 e0       	ldi	r24, 0x07	; 7
    2ea2:	60 e7       	ldi	r22, 0x70	; 112
    2ea4:	0e 94 c5 16 	call	0x2d8a	; 0x2d8a <nrf24l01_writeregister>
	nrf24l01_flushTXfifo(); //flush tx fifo
    2ea8:	0e 94 99 16 	call	0x2d32	; 0x2d32 <nrf24l01_flushTXfifo>
    2eac:	88 e5       	ldi	r24, 0x58	; 88
    2eae:	92 e0       	ldi	r25, 0x02	; 2
    2eb0:	01 97       	sbiw	r24, 0x01	; 1
    2eb2:	f1 f7       	brne	.-4      	; 0x2eb0 <nrf24l01_setTX+0x32>
	_delay_us(150); //wait for the radio to power up
}
    2eb4:	08 95       	ret

00002eb6 <nrf24l01_revaddress>:
}

/*
 * reverse an array, NRF24L01 expects LSB first
 */
void nrf24l01_revaddress(uint8_t *addr, uint8_t *addrrev) {
    2eb6:	dc 01       	movw	r26, r24
    2eb8:	14 96       	adiw	r26, 0x04	; 4
    2eba:	20 e0       	ldi	r18, 0x00	; 0
    2ebc:	30 e0       	ldi	r19, 0x00	; 0
	//reverse address
	uint8_t i = 0;
	for(i=0; i<NRF24L01_ADDRSIZE; i++)
		memcpy(&addrrev[i], &addr[NRF24L01_ADDRSIZE-1-i], 1);
    2ebe:	fb 01       	movw	r30, r22
    2ec0:	e2 0f       	add	r30, r18
    2ec2:	f3 1f       	adc	r31, r19
    2ec4:	8c 91       	ld	r24, X
    2ec6:	80 83       	st	Z, r24
    2ec8:	2f 5f       	subi	r18, 0xFF	; 255
    2eca:	3f 4f       	sbci	r19, 0xFF	; 255
    2ecc:	11 97       	sbiw	r26, 0x01	; 1
 * reverse an array, NRF24L01 expects LSB first
 */
void nrf24l01_revaddress(uint8_t *addr, uint8_t *addrrev) {
	//reverse address
	uint8_t i = 0;
	for(i=0; i<NRF24L01_ADDRSIZE; i++)
    2ece:	25 30       	cpi	r18, 0x05	; 5
    2ed0:	31 05       	cpc	r19, r1
    2ed2:	a9 f7       	brne	.-22     	; 0x2ebe <nrf24l01_revaddress+0x8>
		memcpy(&addrrev[i], &addr[NRF24L01_ADDRSIZE-1-i], 1);
}
    2ed4:	08 95       	ret

00002ed6 <nrf24l01_settxaddr>:
}

/*
 * set tx address
 */
void nrf24l01_settxaddr(uint8_t *addr) {
    2ed6:	0f 93       	push	r16
    2ed8:	1f 93       	push	r17
    2eda:	df 93       	push	r29
    2edc:	cf 93       	push	r28
    2ede:	00 d0       	rcall	.+0      	; 0x2ee0 <nrf24l01_settxaddr+0xa>
    2ee0:	00 d0       	rcall	.+0      	; 0x2ee2 <nrf24l01_settxaddr+0xc>
    2ee2:	0f 92       	push	r0
    2ee4:	cd b7       	in	r28, 0x3d	; 61
    2ee6:	de b7       	in	r29, 0x3e	; 62
    2ee8:	ac 01       	movw	r20, r24
	memcpy(&nrf24l01_addrtx, addr, NRF24L01_ADDRSIZE); //cache address
    2eea:	a0 e1       	ldi	r26, 0x10	; 16
    2eec:	b7 e0       	ldi	r27, 0x07	; 7
    2eee:	fc 01       	movw	r30, r24
    2ef0:	85 e0       	ldi	r24, 0x05	; 5
    2ef2:	01 90       	ld	r0, Z+
    2ef4:	0d 92       	st	X+, r0
    2ef6:	81 50       	subi	r24, 0x01	; 1
    2ef8:	e1 f7       	brne	.-8      	; 0x2ef2 <nrf24l01_settxaddr+0x1c>
	uint8_t addrrev[NRF24L01_ADDRSIZE];
	nrf24l01_revaddress(addr, (uint8_t *)addrrev);
    2efa:	ca 01       	movw	r24, r20
    2efc:	8e 01       	movw	r16, r28
    2efe:	0f 5f       	subi	r16, 0xFF	; 255
    2f00:	1f 4f       	sbci	r17, 0xFF	; 255
    2f02:	b8 01       	movw	r22, r16
    2f04:	0e 94 5b 17 	call	0x2eb6	; 0x2eb6 <nrf24l01_revaddress>
	nrf24l01_writeregisters(NRF24L01_REG_RX_ADDR_P0, addrrev, NRF24L01_ADDRSIZE); //set rx address for ack on pipe 0
    2f08:	8a e0       	ldi	r24, 0x0A	; 10
    2f0a:	b8 01       	movw	r22, r16
    2f0c:	45 e0       	ldi	r20, 0x05	; 5
    2f0e:	0e 94 a5 16 	call	0x2d4a	; 0x2d4a <nrf24l01_writeregisters>
	nrf24l01_writeregisters(NRF24L01_REG_TX_ADDR, addrrev, NRF24L01_ADDRSIZE); //set tx address
    2f12:	80 e1       	ldi	r24, 0x10	; 16
    2f14:	b8 01       	movw	r22, r16
    2f16:	45 e0       	ldi	r20, 0x05	; 5
    2f18:	0e 94 a5 16 	call	0x2d4a	; 0x2d4a <nrf24l01_writeregisters>
}
    2f1c:	0f 90       	pop	r0
    2f1e:	0f 90       	pop	r0
    2f20:	0f 90       	pop	r0
    2f22:	0f 90       	pop	r0
    2f24:	0f 90       	pop	r0
    2f26:	cf 91       	pop	r28
    2f28:	df 91       	pop	r29
    2f2a:	1f 91       	pop	r17
    2f2c:	0f 91       	pop	r16
    2f2e:	08 95       	ret

00002f30 <nrf24l01_setrxaddr>:
}

/*
 * set rx address
 */
void nrf24l01_setrxaddr(uint8_t pipe, uint8_t *addr) {
    2f30:	0f 93       	push	r16
    2f32:	1f 93       	push	r17
    2f34:	df 93       	push	r29
    2f36:	cf 93       	push	r28
    2f38:	00 d0       	rcall	.+0      	; 0x2f3a <nrf24l01_setrxaddr+0xa>
    2f3a:	00 d0       	rcall	.+0      	; 0x2f3c <nrf24l01_setrxaddr+0xc>
    2f3c:	0f 92       	push	r0
    2f3e:	cd b7       	in	r28, 0x3d	; 61
    2f40:	de b7       	in	r29, 0x3e	; 62
	if(pipe == 0) {
    2f42:	88 23       	and	r24, r24
    2f44:	a1 f4       	brne	.+40     	; 0x2f6e <nrf24l01_setrxaddr+0x3e>
		memcpy(&nrf24l01_addr0, addr, NRF24L01_ADDRSIZE); //cache address
    2f46:	ab e0       	ldi	r26, 0x0B	; 11
    2f48:	b7 e0       	ldi	r27, 0x07	; 7
    2f4a:	fb 01       	movw	r30, r22
    2f4c:	85 e0       	ldi	r24, 0x05	; 5
    2f4e:	01 90       	ld	r0, Z+
    2f50:	0d 92       	st	X+, r0
    2f52:	81 50       	subi	r24, 0x01	; 1
    2f54:	e1 f7       	brne	.-8      	; 0x2f4e <nrf24l01_setrxaddr+0x1e>
		uint8_t addrrev[NRF24L01_ADDRSIZE];
		nrf24l01_revaddress(addr, (uint8_t *)addrrev);
    2f56:	cb 01       	movw	r24, r22
    2f58:	8e 01       	movw	r16, r28
    2f5a:	0f 5f       	subi	r16, 0xFF	; 255
    2f5c:	1f 4f       	sbci	r17, 0xFF	; 255
    2f5e:	b8 01       	movw	r22, r16
    2f60:	0e 94 5b 17 	call	0x2eb6	; 0x2eb6 <nrf24l01_revaddress>
    	nrf24l01_writeregisters(NRF24L01_REG_RX_ADDR_P0, addrrev, NRF24L01_ADDRSIZE);
    2f64:	8a e0       	ldi	r24, 0x0A	; 10
    2f66:	b8 01       	movw	r22, r16
    2f68:	45 e0       	ldi	r20, 0x05	; 5
    2f6a:	0e 94 a5 16 	call	0x2d4a	; 0x2d4a <nrf24l01_writeregisters>
		//nrf24l01_writeregister(NRF24L01_REG_RX_ADDR_P4, addr[NRF24L01_ADDRSIZE-1]); //write only LSB MSBytes are equal to RX_ADDR_P
	//} else if(pipe == 5) {
		//memcpy(&nrf24l01_addr5, addr, NRF24L01_ADDRSIZE); //cache address
		//nrf24l01_writeregister(NRF24L01_REG_RX_ADDR_P5, addr[NRF24L01_ADDRSIZE-1]); //write only LSB MSBytes are equal to RX_ADDR_P
	//}
}
    2f6e:	0f 90       	pop	r0
    2f70:	0f 90       	pop	r0
    2f72:	0f 90       	pop	r0
    2f74:	0f 90       	pop	r0
    2f76:	0f 90       	pop	r0
    2f78:	cf 91       	pop	r28
    2f7a:	df 91       	pop	r29
    2f7c:	1f 91       	pop	r17
    2f7e:	0f 91       	pop	r16
    2f80:	08 95       	ret

00002f82 <nrf24l01_setRX>:

/*
 * set chip as RX
 */
void nrf24l01_setRX() {
	nrf24l01_setrxaddr(0, nrf24l01_addr0); //restore pipe 0 address
    2f82:	80 e0       	ldi	r24, 0x00	; 0
    2f84:	6b e0       	ldi	r22, 0x0B	; 11
    2f86:	77 e0       	ldi	r23, 0x07	; 7
    2f88:	0e 94 98 17 	call	0x2f30	; 0x2f30 <nrf24l01_setrxaddr>
	nrf24l01_writeregister(NRF24L01_REG_CONFIG, nrf24l01_readregister(NRF24L01_REG_CONFIG) | (1<<NRF24L01_REG_PRIM_RX)); //prx mode
    2f8c:	80 e0       	ldi	r24, 0x00	; 0
    2f8e:	0e 94 1a 17 	call	0x2e34	; 0x2e34 <nrf24l01_readregister>
    2f92:	68 2f       	mov	r22, r24
    2f94:	61 60       	ori	r22, 0x01	; 1
    2f96:	80 e0       	ldi	r24, 0x00	; 0
    2f98:	0e 94 c5 16 	call	0x2d8a	; 0x2d8a <nrf24l01_writeregister>
	nrf24l01_writeregister(NRF24L01_REG_CONFIG, nrf24l01_readregister(NRF24L01_REG_CONFIG) | (1<<NRF24L01_REG_PWR_UP)); //power up
    2f9c:	80 e0       	ldi	r24, 0x00	; 0
    2f9e:	0e 94 1a 17 	call	0x2e34	; 0x2e34 <nrf24l01_readregister>
    2fa2:	68 2f       	mov	r22, r24
    2fa4:	62 60       	ori	r22, 0x02	; 2
    2fa6:	80 e0       	ldi	r24, 0x00	; 0
    2fa8:	0e 94 c5 16 	call	0x2d8a	; 0x2d8a <nrf24l01_writeregister>
	nrf24l01_writeregister(NRF24L01_REG_STATUS, (1<<NRF24L01_REG_RX_DR) | (1<<NRF24L01_REG_TX_DS) | (1<<NRF24L01_REG_MAX_RT)); //reset status
    2fac:	87 e0       	ldi	r24, 0x07	; 7
    2fae:	60 e7       	ldi	r22, 0x70	; 112
    2fb0:	0e 94 c5 16 	call	0x2d8a	; 0x2d8a <nrf24l01_writeregister>
	nrf24l01_flushRXfifo(); //flush rx fifo
    2fb4:	0e 94 9f 16 	call	0x2d3e	; 0x2d3e <nrf24l01_flushRXfifo>
	nrf24l01_flushTXfifo(); //flush tx fifo
    2fb8:	0e 94 99 16 	call	0x2d32	; 0x2d32 <nrf24l01_flushTXfifo>
	nrf24l01_CEhi; //start listening
    2fbc:	94 9a       	sbi	0x12, 4	; 18
    2fbe:	88 e5       	ldi	r24, 0x58	; 88
    2fc0:	92 e0       	ldi	r25, 0x02	; 2
    2fc2:	01 97       	sbiw	r24, 0x01	; 1
    2fc4:	f1 f7       	brne	.-4      	; 0x2fc2 <nrf24l01_setRX+0x40>
	_delay_us(150); //wait for the radio to power up
}
    2fc6:	08 95       	ret

00002fc8 <nrf24l01_write>:
}

/*
 * put data
 */
uint8_t nrf24l01_write(uint8_t *data) {
    2fc8:	0f 93       	push	r16
    2fca:	1f 93       	push	r17
    2fcc:	cf 93       	push	r28
    2fce:	df 93       	push	r29
    2fd0:	8c 01       	movw	r16, r24
	uint8_t i = 0;
	uint8_t ret = 0;

	//set tx mode
	nrf24l01_setTX();
    2fd2:	0e 94 3f 17 	call	0x2e7e	; 0x2e7e <nrf24l01_setTX>

	//write data
	nrf24l01_CSNlo; //low CSN
    2fd6:	c0 98       	cbi	0x18, 0	; 24
	spi_writereadbyte(NRF24L01_CMD_W_TX_PAYLOAD);
    2fd8:	80 ea       	ldi	r24, 0xA0	; 160
    2fda:	0e 94 72 18 	call	0x30e4	; 0x30e4 <spi_writereadbyte>
    2fde:	c0 e0       	ldi	r28, 0x00	; 0
    2fe0:	d0 e0       	ldi	r29, 0x00	; 0
	for (i=0; i<NRF24L01_PAYLOAD; i++)
		spi_writereadbyte(data[i]);
    2fe2:	f8 01       	movw	r30, r16
    2fe4:	ec 0f       	add	r30, r28
    2fe6:	fd 1f       	adc	r31, r29
    2fe8:	80 81       	ld	r24, Z
    2fea:	0e 94 72 18 	call	0x30e4	; 0x30e4 <spi_writereadbyte>
    2fee:	21 96       	adiw	r28, 0x01	; 1
	nrf24l01_setTX();

	//write data
	nrf24l01_CSNlo; //low CSN
	spi_writereadbyte(NRF24L01_CMD_W_TX_PAYLOAD);
	for (i=0; i<NRF24L01_PAYLOAD; i++)
    2ff0:	c0 32       	cpi	r28, 0x20	; 32
    2ff2:	d1 05       	cpc	r29, r1
    2ff4:	b1 f7       	brne	.-20     	; 0x2fe2 <nrf24l01_write+0x1a>
		spi_writereadbyte(data[i]);
	nrf24l01_CSNhi; //high CSN
    2ff6:	c0 9a       	sbi	0x18, 0	; 24

	//start transmission
	nrf24l01_CEhi; //high CE
    2ff8:	94 9a       	sbi	0x12, 4	; 18
    can be achieved.
*/
void
_delay_loop_1(uint8_t __count)
{
	__asm__ volatile (
    2ffa:	80 e5       	ldi	r24, 0x50	; 80
    2ffc:	8a 95       	dec	r24
    2ffe:	f1 f7       	brne	.-4      	; 0x2ffc <nrf24l01_write+0x34>
	_delay_us(15);
	nrf24l01_CElo; //low CE
    3000:	94 98       	cbi	0x12, 4	; 18
    3002:	15 e3       	ldi	r17, 0x35	; 53
    3004:	81 2f       	mov	r24, r17
    3006:	8a 95       	dec	r24
    3008:	f1 f7       	brne	.-4      	; 0x3006 <nrf24l01_write+0x3e>

	//stop if max_retries reached or send is ok
	do {
		_delay_us(10);
	}
	while( !(nrf24l01_getstatus() & (1<<NRF24L01_REG_MAX_RT | 1<<NRF24L01_REG_TX_DS)) );
    300a:	0e 94 81 16 	call	0x2d02	; 0x2d02 <nrf24l01_getstatus>
    300e:	80 73       	andi	r24, 0x30	; 48
    3010:	c9 f3       	breq	.-14     	; 0x3004 <nrf24l01_write+0x3c>

	if(nrf24l01_getstatus() & 1<<NRF24L01_REG_TX_DS)
    3012:	0e 94 81 16 	call	0x2d02	; 0x2d02 <nrf24l01_getstatus>
    3016:	08 2f       	mov	r16, r24
		ret = 1;

	//reset PLOS_CNT
	nrf24l01_writeregister(NRF24L01_REG_RF_CH, NRF24L01_CH);
    3018:	85 e0       	ldi	r24, 0x05	; 5
    301a:	6c e4       	ldi	r22, 0x4C	; 76
    301c:	0e 94 c5 16 	call	0x2d8a	; 0x2d8a <nrf24l01_writeregister>

	//power down
	nrf24l01_writeregister(NRF24L01_REG_CONFIG, nrf24l01_readregister(NRF24L01_REG_CONFIG) & ~(1<<NRF24L01_REG_PWR_UP));
    3020:	80 e0       	ldi	r24, 0x00	; 0
    3022:	0e 94 1a 17 	call	0x2e34	; 0x2e34 <nrf24l01_readregister>
    3026:	68 2f       	mov	r22, r24
    3028:	6d 7f       	andi	r22, 0xFD	; 253
    302a:	80 e0       	ldi	r24, 0x00	; 0
    302c:	0e 94 c5 16 	call	0x2d8a	; 0x2d8a <nrf24l01_writeregister>

	//set rx mode
	nrf24l01_setRX();
    3030:	0e 94 c1 17 	call	0x2f82	; 0x2f82 <nrf24l01_setRX>
    3034:	10 e0       	ldi	r17, 0x00	; 0
    3036:	85 e0       	ldi	r24, 0x05	; 5
    3038:	16 95       	lsr	r17
    303a:	07 95       	ror	r16
    303c:	8a 95       	dec	r24
    303e:	e1 f7       	brne	.-8      	; 0x3038 <nrf24l01_write+0x70>

	return ret;
}
    3040:	80 2f       	mov	r24, r16
    3042:	81 70       	andi	r24, 0x01	; 1
    3044:	df 91       	pop	r29
    3046:	cf 91       	pop	r28
    3048:	1f 91       	pop	r17
    304a:	0f 91       	pop	r16
    304c:	08 95       	ret

0000304e <nrf24l01_init>:
/*
 * init nrf24l01
 */
void nrf24l01_init() {
	//setup port
	NRF24L01_CSN_DDR |= (1<<NRF24L01_CSN); //output
    304e:	b8 9a       	sbi	0x17, 0	; 23
	NRF24L01_CE_DDR |= (1<<NRF24L01_CE); //output
    3050:	8c 9a       	sbi	0x11, 4	; 17

    spi_init(); //init spi
    3052:	0e 94 67 18 	call	0x30ce	; 0x30ce <spi_init>

    nrf24l01_CElo; //low CE
    3056:	94 98       	cbi	0x12, 4	; 18
    nrf24l01_CSNhi; //high CSN
    3058:	c0 9a       	sbi	0x18, 0	; 24
    milliseconds can be achieved.
 */
void
_delay_loop_2(uint16_t __count)
{
	__asm__ volatile (
    305a:	80 e2       	ldi	r24, 0x20	; 32
    305c:	9e e4       	ldi	r25, 0x4E	; 78
    305e:	01 97       	sbiw	r24, 0x01	; 1
    3060:	f1 f7       	brne	.-4      	; 0x305e <nrf24l01_init+0x10>

    _delay_ms(5); //wait for the radio to init

    nrf24l01_setpalevel(); //set power level
    3062:	0e 94 36 17 	call	0x2e6c	; 0x2e6c <nrf24l01_setpalevel>
    nrf24l01_setdatarate(); //set data rate
    3066:	0e 94 2c 17 	call	0x2e58	; 0x2e58 <nrf24l01_setdatarate>
    nrf24l01_setcrclength(); //set crc length
    306a:	0e 94 23 17 	call	0x2e46	; 0x2e46 <nrf24l01_setcrclength>
    nrf24l01_writeregister(NRF24L01_REG_SETUP_RETR, NRF24L01_RETR); // set retries
    306e:	84 e0       	ldi	r24, 0x04	; 4
    3070:	67 e4       	ldi	r22, 0x47	; 71
    3072:	0e 94 c5 16 	call	0x2d8a	; 0x2d8a <nrf24l01_writeregister>
    nrf24l01_writeregister(NRF24L01_REG_DYNPD, 0); //disable dynamic payloads
    3076:	8c e1       	ldi	r24, 0x1C	; 28
    3078:	60 e0       	ldi	r22, 0x00	; 0
    307a:	0e 94 c5 16 	call	0x2d8a	; 0x2d8a <nrf24l01_writeregister>
    nrf24l01_writeregister(NRF24L01_REG_RF_CH, NRF24L01_CH); //set RF channel
    307e:	85 e0       	ldi	r24, 0x05	; 5
    3080:	6c e4       	ldi	r22, 0x4C	; 76
    3082:	0e 94 c5 16 	call	0x2d8a	; 0x2d8a <nrf24l01_writeregister>

	//payload size
	#if NRF24L01_ENABLEDP0 == 1
		nrf24l01_writeregister(NRF24L01_REG_RX_PW_P0, NRF24L01_PAYLOAD);
    3086:	81 e1       	ldi	r24, 0x11	; 17
    3088:	60 e2       	ldi	r22, 0x20	; 32
    308a:	0e 94 c5 16 	call	0x2d8a	; 0x2d8a <nrf24l01_writeregister>
	//#if NRF24L01_ENABLEDP5 == 1
		//nrf24l01_writeregister(NRF24L01_REG_RX_PW_P5, NRF24L01_PAYLOAD);
	//#endif

	//enable pipe
	nrf24l01_writeregister(NRF24L01_REG_EN_RXADDR, 0);
    308e:	82 e0       	ldi	r24, 0x02	; 2
    3090:	60 e0       	ldi	r22, 0x00	; 0
    3092:	0e 94 c5 16 	call	0x2d8a	; 0x2d8a <nrf24l01_writeregister>
	#if NRF24L01_ENABLEDP0 == 1
		nrf24l01_writeregister(NRF24L01_REG_EN_RXADDR, nrf24l01_readregister(NRF24L01_REG_EN_RXADDR) | (1<<NRF24L01_REG_ERX_P0));
    3096:	82 e0       	ldi	r24, 0x02	; 2
    3098:	0e 94 1a 17 	call	0x2e34	; 0x2e34 <nrf24l01_readregister>
    309c:	68 2f       	mov	r22, r24
    309e:	61 60       	ori	r22, 0x01	; 1
    30a0:	82 e0       	ldi	r24, 0x02	; 2
    30a2:	0e 94 c5 16 	call	0x2d8a	; 0x2d8a <nrf24l01_writeregister>
		//nrf24l01_writeregister(NRF24L01_REG_EN_RXADDR, nrf24l01_readregister(NRF24L01_REG_EN_RXADDR) | (1<<NRF24L01_REG_ERX_P5));
	//#endif
//
	//auto ack
	#if NRF24L01_ACK == 1
		nrf24l01_writeregister(NRF24L01_REG_EN_AA, nrf24l01_readregister(NRF24L01_REG_EN_AA) | (1<<NRF24L01_REG_ENAA_P0));
    30a6:	81 e0       	ldi	r24, 0x01	; 1
    30a8:	0e 94 1a 17 	call	0x2e34	; 0x2e34 <nrf24l01_readregister>
    30ac:	68 2f       	mov	r22, r24
    30ae:	61 60       	ori	r22, 0x01	; 1
    30b0:	81 e0       	ldi	r24, 0x01	; 1
    30b2:	0e 94 c5 16 	call	0x2d8a	; 0x2d8a <nrf24l01_writeregister>
		//nrf24l01_writeregister(NRF24L01_REG_EN_AA, nrf24l01_readregister(NRF24L01_REG_EN_AA) & ~(1<<NRF24L01_REG_ENAA_P4));
		//nrf24l01_writeregister(NRF24L01_REG_EN_AA, nrf24l01_readregister(NRF24L01_REG_EN_AA) & ~(1<<NRF24L01_REG_ENAA_P5));
	#endif

	//rx address
	nrf24l01_setrxaddr(0, nrf24l01_addr0);
    30b6:	80 e0       	ldi	r24, 0x00	; 0
    30b8:	6b e0       	ldi	r22, 0x0B	; 11
    30ba:	77 e0       	ldi	r23, 0x07	; 7
    30bc:	0e 94 98 17 	call	0x2f30	; 0x2f30 <nrf24l01_setrxaddr>
	//nrf24l01_setrxaddr(3, nrf24l01_addr3);
	//nrf24l01_setrxaddr(4, nrf24l01_addr4);
	//nrf24l01_setrxaddr(5, nrf24l01_addr5);

	//tx address
	nrf24l01_settxaddr(nrf24l01_addrtx);
    30c0:	80 e1       	ldi	r24, 0x10	; 16
    30c2:	97 e0       	ldi	r25, 0x07	; 7
    30c4:	0e 94 6b 17 	call	0x2ed6	; 0x2ed6 <nrf24l01_settxaddr>

	//set rx mode
	nrf24l01_setRX();
    30c8:	0e 94 c1 17 	call	0x2f82	; 0x2f82 <nrf24l01_setRX>
}
    30cc:	08 95       	ret

000030ce <spi_init>:

/*
 * spi initialize
 */
void spi_init() {
    SPI_DDR &= ~((1<<SPI_MOSI) | (1<<SPI_MISO) | (1<<SPI_SS) | (1<<SPI_SCK)); //input
    30ce:	87 b3       	in	r24, 0x17	; 23
    30d0:	80 7f       	andi	r24, 0xF0	; 240
    30d2:	87 bb       	out	0x17, r24	; 23
    SPI_DDR |= ((1<<SPI_MOSI) | (1<<SPI_SS) | (1<<SPI_SCK)); //output
    30d4:	87 b3       	in	r24, 0x17	; 23
    30d6:	87 60       	ori	r24, 0x07	; 7
    30d8:	87 bb       	out	0x17, r24	; 23

    SPCR = ((1<<SPE)|               // SPI Enable
    30da:	82 e5       	ldi	r24, 0x52	; 82
    30dc:	8d b9       	out	0x0d, r24	; 13
            (1<<MSTR)|              // Master/Slave select
            (1<<SPR1)|(0<<SPR1)|    // SPI Clock Rate
            (0<<CPOL)|              // Clock Polarity (0:SCK low / 1:SCK hi when idle)
            (0<<CPHA));             // Clock Phase (0:leading / 1:trailing edge sampling)

    SPSR = (1<<SPI2X); // Double SPI Speed Bit
    30de:	81 e0       	ldi	r24, 0x01	; 1
    30e0:	8e b9       	out	0x0e, r24	; 14
}
    30e2:	08 95       	ret

000030e4 <spi_writereadbyte>:

/*
 * spi write one byte and read it back
 */
uint8_t spi_writereadbyte(uint8_t data) {
    SPDR = data;
    30e4:	8f b9       	out	0x0f, r24	; 15
    while((SPSR & (1<<SPIF)) == 0);
    30e6:	77 9b       	sbis	0x0e, 7	; 14
    30e8:	fe cf       	rjmp	.-4      	; 0x30e6 <spi_writereadbyte+0x2>
    return SPDR;
    30ea:	8f b1       	in	r24, 0x0f	; 15
}
    30ec:	08 95       	ret

000030ee <init_USART_ETH>:
volatile uint8_t wastx_uart_deb = 0;

//---------------UART------------------------------------------------
void init_USART_ETH(uint16_t ubrr) {
	/* Set baud rate */
	UBRR0H = (uint8_t) (ubrr >> 8);
    30ee:	90 93 90 00 	sts	0x0090, r25
	UBRR0L = (uint8_t) ubrr;
    30f2:	89 b9       	out	0x09, r24	; 9

	/* Enable receiver and transmitter */UCSR0B = (1 << TXEN0) | (1 << RXEN0)
    30f4:	88 e9       	ldi	r24, 0x98	; 152
    30f6:	8a b9       	out	0x0a, r24	; 10
			| (1 << RXCIE0);

	/* Set frame format: Async, Parity-Disabled, 1 Stop bit, 8 data bits */
	UCSR0C = (1 << UCSZ00) | (1 << UCSZ01);
    30f8:	86 e0       	ldi	r24, 0x06	; 6
    30fa:	80 93 95 00 	sts	0x0095, r24
}
    30fe:	08 95       	ret

00003100 <init_USART_DEB>:

void init_USART_DEB(uint16_t ubrr) {
	/* Set baud rate */
	UBRR1H = (uint8_t) (ubrr >> 8);
    3100:	90 93 98 00 	sts	0x0098, r25
	UBRR1L = (uint8_t) ubrr;
    3104:	80 93 99 00 	sts	0x0099, r24

	/* Enable receiver and transmitter */UCSR1B =  (1 << RXEN1)
    3108:	88 e9       	ldi	r24, 0x98	; 152
    310a:	80 93 9a 00 	sts	0x009A, r24
			| (1 << RXCIE1)| (1 << TXEN1);// | (1 << TXEN1); //|(1<<TXCIE1); (1 << TXEN1) |

	/* Set frame format: Async, Parity-Disabled, 1 Stop bit, 8 data bits */
	UCSR1C = (1 << UCSZ10) | (1 << UCSZ11);
    310e:	86 e0       	ldi	r24, 0x06	; 6
    3110:	80 93 9d 00 	sts	0x009D, r24
}
    3114:	08 95       	ret

00003116 <USART_receive_ETH>:

char USART_receive_ETH(void) {
	while (!(UCSR0A & (1 << RXC0)))
    3116:	5f 9b       	sbis	0x0b, 7	; 11
    3118:	fe cf       	rjmp	.-4      	; 0x3116 <USART_receive_ETH>
		;
	return UDR0 ;
    311a:	8c b1       	in	r24, 0x0c	; 12
}
    311c:	08 95       	ret

0000311e <USART_receive_DEB>:

char USART_receive_DEB(void) {
	while (!(UCSR1A & (1 << RXC1)))
    311e:	80 91 9b 00 	lds	r24, 0x009B
    3122:	87 ff       	sbrs	r24, 7
    3124:	fc cf       	rjmp	.-8      	; 0x311e <USART_receive_DEB>
		;
	return UDR1 ;
    3126:	80 91 9c 00 	lds	r24, 0x009C
}
    312a:	08 95       	ret

0000312c <USART_Transmit_ETH>:

void USART_Transmit_ETH(uint8_t data) {
	/* Wait for empty transmit buffer */
	while (!(UCSR0A & (1 << UDRE0)))
    312c:	5d 9b       	sbis	0x0b, 5	; 11
    312e:	fe cf       	rjmp	.-4      	; 0x312c <USART_Transmit_ETH>
		;
	/* Put data into buffer, sends the data */
	UDR0 = data;
    3130:	8c b9       	out	0x0c, r24	; 12
}
    3132:	08 95       	ret

00003134 <USART_Transmit_DEB>:

void USART_Transmit_DEB(uint8_t data) {
    3134:	98 2f       	mov	r25, r24
	/* Wait for empty transmit buffer */
	while (!(UCSR1A & (1 << UDRE1)))
    3136:	80 91 9b 00 	lds	r24, 0x009B
    313a:	85 ff       	sbrs	r24, 5
    313c:	fc cf       	rjmp	.-8      	; 0x3136 <USART_Transmit_DEB+0x2>
		;
	/* Put data into buffer, sends the data */
	UDR1 = data;
    313e:	90 93 9c 00 	sts	0x009C, r25
}
    3142:	08 95       	ret

00003144 <USART_SendString_DEB_num>:
	}

	USART_Transmit_DEB(' ');
}

void USART_SendString_DEB_num(const char* str, uint8_t len) {
    3144:	ac 01       	movw	r20, r24
    3146:	20 e0       	ldi	r18, 0x00	; 0
    3148:	30 e0       	ldi	r19, 0x00	; 0
	for (int i = 0; i < len; i++) {
    314a:	70 e0       	ldi	r23, 0x00	; 0
    314c:	0c c0       	rjmp	.+24     	; 0x3166 <USART_SendString_DEB_num+0x22>
		USART_Transmit_DEB(str[i]);
    314e:	fa 01       	movw	r30, r20
    3150:	e2 0f       	add	r30, r18
    3152:	f3 1f       	adc	r31, r19
    3154:	e0 81       	ld	r30, Z
	UDR0 = data;
}

void USART_Transmit_DEB(uint8_t data) {
	/* Wait for empty transmit buffer */
	while (!(UCSR1A & (1 << UDRE1)))
    3156:	80 91 9b 00 	lds	r24, 0x009B
    315a:	85 ff       	sbrs	r24, 5
    315c:	fc cf       	rjmp	.-8      	; 0x3156 <USART_SendString_DEB_num+0x12>
		;
	/* Put data into buffer, sends the data */
	UDR1 = data;
    315e:	e0 93 9c 00 	sts	0x009C, r30

	USART_Transmit_DEB(' ');
}

void USART_SendString_DEB_num(const char* str, uint8_t len) {
	for (int i = 0; i < len; i++) {
    3162:	2f 5f       	subi	r18, 0xFF	; 255
    3164:	3f 4f       	sbci	r19, 0xFF	; 255
    3166:	26 17       	cp	r18, r22
    3168:	37 07       	cpc	r19, r23
    316a:	8c f3       	brlt	.-30     	; 0x314e <USART_SendString_DEB_num+0xa>
	UDR0 = data;
}

void USART_Transmit_DEB(uint8_t data) {
	/* Wait for empty transmit buffer */
	while (!(UCSR1A & (1 << UDRE1)))
    316c:	80 91 9b 00 	lds	r24, 0x009B
    3170:	85 ff       	sbrs	r24, 5
    3172:	fc cf       	rjmp	.-8      	; 0x316c <USART_SendString_DEB_num+0x28>
		;
	/* Put data into buffer, sends the data */
	UDR1 = data;
    3174:	80 e2       	ldi	r24, 0x20	; 32
    3176:	80 93 9c 00 	sts	0x009C, r24
	for (int i = 0; i < len; i++) {
		USART_Transmit_DEB(str[i]);
	}

	USART_Transmit_DEB(' ');
}
    317a:	08 95       	ret

0000317c <reset_rxbuffer_eth>:

void reset_rxbuffer_eth() {
    317c:	80 e0       	ldi	r24, 0x00	; 0
    317e:	90 e0       	ldi	r25, 0x00	; 0
	for (int k = 0; k < RX_BUFFER_SIZE_ETH; k++) {
		rx_buffer_eth[k] = 0;
    3180:	fc 01       	movw	r30, r24
    3182:	e2 51       	subi	r30, 0x12	; 18
    3184:	f8 4f       	sbci	r31, 0xF8	; 248
    3186:	10 82       	st	Z, r1

	USART_Transmit_DEB(' ');
}

void reset_rxbuffer_eth() {
	for (int k = 0; k < RX_BUFFER_SIZE_ETH; k++) {
    3188:	01 96       	adiw	r24, 0x01	; 1
    318a:	21 e0       	ldi	r18, 0x01	; 1
    318c:	82 3c       	cpi	r24, 0xC2	; 194
    318e:	92 07       	cpc	r25, r18
    3190:	b9 f7       	brne	.-18     	; 0x3180 <reset_rxbuffer_eth+0x4>
		rx_buffer_eth[k] = 0;
	}
	//memset(rx_buffer_eth, 0, RX_BUFFER_SIZE_ETH);
	eth_i = 0;
    3192:	10 92 1d 07 	sts	0x071D, r1
    3196:	10 92 1c 07 	sts	0x071C, r1
}
    319a:	08 95       	ret

0000319c <sendCRLF>:
	return UDR1 ;
}

void USART_Transmit_ETH(uint8_t data) {
	/* Wait for empty transmit buffer */
	while (!(UCSR0A & (1 << UDRE0)))
    319c:	5d 9b       	sbis	0x0b, 5	; 11
    319e:	fe cf       	rjmp	.-4      	; 0x319c <sendCRLF>
		;
	/* Put data into buffer, sends the data */
	UDR0 = data;
    31a0:	8d e0       	ldi	r24, 0x0D	; 13
    31a2:	8c b9       	out	0x0c, r24	; 12
	return UDR1 ;
}

void USART_Transmit_ETH(uint8_t data) {
	/* Wait for empty transmit buffer */
	while (!(UCSR0A & (1 << UDRE0)))
    31a4:	5d 9b       	sbis	0x0b, 5	; 11
    31a6:	fe cf       	rjmp	.-4      	; 0x31a4 <sendCRLF+0x8>
		;
	/* Put data into buffer, sends the data */
	UDR0 = data;
    31a8:	8a e0       	ldi	r24, 0x0A	; 10
    31aa:	8c b9       	out	0x0c, r24	; 12

void sendCRLF(void) {
	USART_Transmit_ETH('\r');
	USART_Transmit_ETH('\n');
	//USART_Transmit_ETH('\0');
}
    31ac:	08 95       	ret

000031ae <sendAT>:
	return UDR1 ;
}

void USART_Transmit_ETH(uint8_t data) {
	/* Wait for empty transmit buffer */
	while (!(UCSR0A & (1 << UDRE0)))
    31ae:	5d 9b       	sbis	0x0b, 5	; 11
    31b0:	fe cf       	rjmp	.-4      	; 0x31ae <sendAT>
		;
	/* Put data into buffer, sends the data */
	UDR0 = data;
    31b2:	81 e4       	ldi	r24, 0x41	; 65
    31b4:	8c b9       	out	0x0c, r24	; 12
	return UDR1 ;
}

void USART_Transmit_ETH(uint8_t data) {
	/* Wait for empty transmit buffer */
	while (!(UCSR0A & (1 << UDRE0)))
    31b6:	5d 9b       	sbis	0x0b, 5	; 11
    31b8:	fe cf       	rjmp	.-4      	; 0x31b6 <sendAT+0x8>
		;
	/* Put data into buffer, sends the data */
	UDR0 = data;
    31ba:	84 e5       	ldi	r24, 0x54	; 84
    31bc:	8c b9       	out	0x0c, r24	; 12
}

void sendAT(void) {
	USART_Transmit_ETH('A');
	USART_Transmit_ETH('T');
	sendCRLF();
    31be:	0e 94 ce 18 	call	0x319c	; 0x319c <sendCRLF>
}
    31c2:	08 95       	ret

000031c4 <USART_SendString_DEB>:
	}

	//USART_Transmit_ETH(' ');
}

void USART_SendString_DEB(char* str) {
    31c4:	ac 01       	movw	r20, r24
	int len = strlen(str);
    31c6:	dc 01       	movw	r26, r24
    31c8:	0d 90       	ld	r0, X+
    31ca:	00 20       	and	r0, r0
    31cc:	e9 f7       	brne	.-6      	; 0x31c8 <USART_SendString_DEB+0x4>
    31ce:	11 97       	sbiw	r26, 0x01	; 1
    31d0:	a8 1b       	sub	r26, r24
    31d2:	b9 0b       	sbc	r27, r25
    31d4:	20 e0       	ldi	r18, 0x00	; 0
    31d6:	30 e0       	ldi	r19, 0x00	; 0
    31d8:	0c c0       	rjmp	.+24     	; 0x31f2 <USART_SendString_DEB+0x2e>

	for (int i = 0; i < len; i++) {
		USART_Transmit_DEB(str[i]);
    31da:	fa 01       	movw	r30, r20
    31dc:	e2 0f       	add	r30, r18
    31de:	f3 1f       	adc	r31, r19
    31e0:	e0 81       	ld	r30, Z
	UDR0 = data;
}

void USART_Transmit_DEB(uint8_t data) {
	/* Wait for empty transmit buffer */
	while (!(UCSR1A & (1 << UDRE1)))
    31e2:	80 91 9b 00 	lds	r24, 0x009B
    31e6:	85 ff       	sbrs	r24, 5
    31e8:	fc cf       	rjmp	.-8      	; 0x31e2 <USART_SendString_DEB+0x1e>
		;
	/* Put data into buffer, sends the data */
	UDR1 = data;
    31ea:	e0 93 9c 00 	sts	0x009C, r30
}

void USART_SendString_DEB(char* str) {
	int len = strlen(str);

	for (int i = 0; i < len; i++) {
    31ee:	2f 5f       	subi	r18, 0xFF	; 255
    31f0:	3f 4f       	sbci	r19, 0xFF	; 255
    31f2:	2a 17       	cp	r18, r26
    31f4:	3b 07       	cpc	r19, r27
    31f6:	8c f3       	brlt	.-30     	; 0x31da <USART_SendString_DEB+0x16>
	UDR0 = data;
}

void USART_Transmit_DEB(uint8_t data) {
	/* Wait for empty transmit buffer */
	while (!(UCSR1A & (1 << UDRE1)))
    31f8:	80 91 9b 00 	lds	r24, 0x009B
    31fc:	85 ff       	sbrs	r24, 5
    31fe:	fc cf       	rjmp	.-8      	; 0x31f8 <USART_SendString_DEB+0x34>
		;
	/* Put data into buffer, sends the data */
	UDR1 = data;
    3200:	80 e2       	ldi	r24, 0x20	; 32
    3202:	80 93 9c 00 	sts	0x009C, r24
	for (int i = 0; i < len; i++) {
		USART_Transmit_DEB(str[i]);
	}

	USART_Transmit_DEB(' ');
}
    3206:	08 95       	ret

00003208 <USART_SendString_ETH>:
	UDR1 = data;
}

void USART_SendString_ETH(char* str) {
	int lng = 0;
	lng = strlen(str);
    3208:	dc 01       	movw	r26, r24
    320a:	0d 90       	ld	r0, X+
    320c:	00 20       	and	r0, r0
    320e:	e9 f7       	brne	.-6      	; 0x320a <USART_SendString_ETH+0x2>
    3210:	11 97       	sbiw	r26, 0x01	; 1
    3212:	a8 1b       	sub	r26, r24
    3214:	b9 0b       	sbc	r27, r25
    3216:	20 e0       	ldi	r18, 0x00	; 0
    3218:	30 e0       	ldi	r19, 0x00	; 0
    321a:	09 c0       	rjmp	.+18     	; 0x322e <USART_SendString_ETH+0x26>

	for (int i = 0; i < lng; i++) {
		USART_Transmit_ETH(str[i]);
    321c:	fc 01       	movw	r30, r24
    321e:	e2 0f       	add	r30, r18
    3220:	f3 1f       	adc	r31, r19
    3222:	e0 81       	ld	r30, Z
	return UDR1 ;
}

void USART_Transmit_ETH(uint8_t data) {
	/* Wait for empty transmit buffer */
	while (!(UCSR0A & (1 << UDRE0)))
    3224:	5d 9b       	sbis	0x0b, 5	; 11
    3226:	fe cf       	rjmp	.-4      	; 0x3224 <USART_SendString_ETH+0x1c>
		;
	/* Put data into buffer, sends the data */
	UDR0 = data;
    3228:	ec b9       	out	0x0c, r30	; 12

void USART_SendString_ETH(char* str) {
	int lng = 0;
	lng = strlen(str);

	for (int i = 0; i < lng; i++) {
    322a:	2f 5f       	subi	r18, 0xFF	; 255
    322c:	3f 4f       	sbci	r19, 0xFF	; 255
    322e:	2a 17       	cp	r18, r26
    3230:	3b 07       	cpc	r19, r27
    3232:	a4 f3       	brlt	.-24     	; 0x321c <USART_SendString_ETH+0x14>
		USART_Transmit_ETH(str[i]);
	}

	//USART_Transmit_ETH(' ');
}
    3234:	08 95       	ret

00003236 <sendATCOM>:
	USART_Transmit_ETH('T');
	sendCRLF();
}

void sendATCOM(char* atcmd) {
	USART_SendString_ETH(atcmd);
    3236:	0e 94 04 19 	call	0x3208	; 0x3208 <USART_SendString_ETH>
	sendCRLF();
    323a:	0e 94 ce 18 	call	0x319c	; 0x319c <sendCRLF>
}
    323e:	08 95       	ret

00003240 <usart_printf>:
	deb_i = 0;
}

//debugMSG
void usart_printf(const char *fmt, ...) // <a href="http://en.wikipedia.org/wiki/Stdarg.h">variadic function </a>
{
    3240:	ef 92       	push	r14
    3242:	ff 92       	push	r15
    3244:	0f 93       	push	r16
    3246:	1f 93       	push	r17
    3248:	df 93       	push	r29
    324a:	cf 93       	push	r28
    324c:	cd b7       	in	r28, 0x3d	; 61
    324e:	de b7       	in	r29, 0x3e	; 62
    3250:	19 85       	ldd	r17, Y+9	; 0x09
    3252:	0a 85       	ldd	r16, Y+10	; 0x0a
//#ifdef DEBUGENABLED
	int num_chars;
	char *uart_buff;
	num_chars = strlen(fmt) + 1; //get size of our string
    3254:	e1 2f       	mov	r30, r17
    3256:	f0 2f       	mov	r31, r16
    3258:	df 01       	movw	r26, r30
    325a:	0d 90       	ld	r0, X+
    325c:	00 20       	and	r0, r0
    325e:	e9 f7       	brne	.-6      	; 0x325a <usart_printf+0x1a>
	uart_buff = (char *) malloc(sizeof(char) * num_chars); //allocate num_chars of character
    3260:	cd 01       	movw	r24, r26
    3262:	8e 1b       	sub	r24, r30
    3264:	9f 0b       	sbc	r25, r31
    3266:	0e 94 c3 22 	call	0x4586	; 0x4586 <malloc>
    326a:	f8 2e       	mov	r15, r24
    326c:	e9 2e       	mov	r14, r25
	deb_i = 0;
}

//debugMSG
void usart_printf(const char *fmt, ...) // <a href="http://en.wikipedia.org/wiki/Stdarg.h">variadic function </a>
{
    326e:	9e 01       	movw	r18, r28
    3270:	25 5f       	subi	r18, 0xF5	; 245
    3272:	3f 4f       	sbci	r19, 0xFF	; 255
	num_chars = strlen(fmt) + 1; //get size of our string
	uart_buff = (char *) malloc(sizeof(char) * num_chars); //allocate num_chars of character

	va_list args;
	va_start(args, fmt);
	vsprintf(uart_buff, fmt, args);
    3274:	61 2f       	mov	r22, r17
    3276:	70 2f       	mov	r23, r16
    3278:	a9 01       	movw	r20, r18
    327a:	0e 94 b8 24 	call	0x4970	; 0x4970 <vsprintf>
	UDR0 = data;
}

void USART_Transmit_DEB(uint8_t data) {
	/* Wait for empty transmit buffer */
	while (!(UCSR1A & (1 << UDRE1)))
    327e:	80 91 9b 00 	lds	r24, 0x009B
    3282:	85 ff       	sbrs	r24, 5
    3284:	fc cf       	rjmp	.-8      	; 0x327e <usart_printf+0x3e>
		;
	/* Put data into buffer, sends the data */
	UDR1 = data;
    3286:	8d e0       	ldi	r24, 0x0D	; 13
    3288:	80 93 9c 00 	sts	0x009C, r24

	va_list args;
	va_start(args, fmt);
	vsprintf(uart_buff, fmt, args);
	USART_Transmit_DEB('\r'); //send CR
	USART_SendString_DEB(uart_buff); //send msg
    328c:	8f 2d       	mov	r24, r15
    328e:	9e 2d       	mov	r25, r14
    3290:	0e 94 e2 18 	call	0x31c4	; 0x31c4 <USART_SendString_DEB>
	va_end(args);
	free(uart_buff); //deallocation array
    3294:	8f 2d       	mov	r24, r15
    3296:	9e 2d       	mov	r25, r14
    3298:	0e 94 70 23 	call	0x46e0	; 0x46e0 <free>
//#endif
}
    329c:	cf 91       	pop	r28
    329e:	df 91       	pop	r29
    32a0:	1f 91       	pop	r17
    32a2:	0f 91       	pop	r16
    32a4:	ff 90       	pop	r15
    32a6:	ef 90       	pop	r14
    32a8:	08 95       	ret

000032aa <waitForATAnswer>:

uint8_t waitForATAnswer(char* what, int16_t timer) {
    32aa:	af 92       	push	r10
    32ac:	bf 92       	push	r11
    32ae:	cf 92       	push	r12
    32b0:	df 92       	push	r13
    32b2:	ef 92       	push	r14
    32b4:	ff 92       	push	r15
    32b6:	0f 93       	push	r16
    32b8:	1f 93       	push	r17
    32ba:	df 93       	push	r29
    32bc:	cf 93       	push	r28
    32be:	0f 92       	push	r0
    32c0:	cd b7       	in	r28, 0x3d	; 61
    32c2:	de b7       	in	r29, 0x3e	; 62
    32c4:	7c 01       	movw	r14, r24
    32c6:	8b 01       	movw	r16, r22
	//uint16_t timer = howmany;
	volatile uint8_t ret = 0;
    32c8:	19 82       	std	Y+1, r1	; 0x01
    32ca:	90 e9       	ldi	r25, 0x90	; 144
    32cc:	a9 2e       	mov	r10, r25
    32ce:	91 e0       	ldi	r25, 0x01	; 1
    32d0:	b9 2e       	mov	r11, r25
	while (!strstr((const char*) rx_buffer_eth, what) && timer != 0) {
		_delay_ms(100);
		//USART_Transmit_DEB(timer);
		usart_printf("%d", timer);
    32d2:	8f eb       	ldi	r24, 0xBF	; 191
    32d4:	c8 2e       	mov	r12, r24
    32d6:	83 e0       	ldi	r24, 0x03	; 3
    32d8:	d8 2e       	mov	r13, r24
    32da:	17 c0       	rjmp	.+46     	; 0x330a <waitForATAnswer+0x60>
}

uint8_t waitForATAnswer(char* what, int16_t timer) {
	//uint16_t timer = howmany;
	volatile uint8_t ret = 0;
	while (!strstr((const char*) rx_buffer_eth, what) && timer != 0) {
    32dc:	88 ee       	ldi	r24, 0xE8	; 232
    32de:	93 e0       	ldi	r25, 0x03	; 3
    32e0:	f5 01       	movw	r30, r10
    32e2:	31 97       	sbiw	r30, 0x01	; 1
    32e4:	f1 f7       	brne	.-4      	; 0x32e2 <waitForATAnswer+0x38>
		{
			// wait 1/10 ms
			_delay_loop_2(((F_CPU) / 4e3) / 10);
			__ticks --;
    32e6:	01 97       	sbiw	r24, 0x01	; 1
		__ticks = 1;
	else if (__tmp > 65535)
	{
		//	__ticks = requested delay in 1/10 ms
		__ticks = (uint16_t) (__ms * 10.0);
		while(__ticks)
    32e8:	d9 f7       	brne	.-10     	; 0x32e0 <waitForATAnswer+0x36>
		_delay_ms(100);
		//USART_Transmit_DEB(timer);
		usart_printf("%d", timer);
    32ea:	00 d0       	rcall	.+0      	; 0x32ec <waitForATAnswer+0x42>
    32ec:	00 d0       	rcall	.+0      	; 0x32ee <waitForATAnswer+0x44>
    32ee:	ed b7       	in	r30, 0x3d	; 61
    32f0:	fe b7       	in	r31, 0x3e	; 62
    32f2:	d2 82       	std	Z+2, r13	; 0x02
    32f4:	c1 82       	std	Z+1, r12	; 0x01
    32f6:	14 83       	std	Z+4, r17	; 0x04
    32f8:	03 83       	std	Z+3, r16	; 0x03
    32fa:	0e 94 20 19 	call	0x3240	; 0x3240 <usart_printf>
		timer--;
    32fe:	01 50       	subi	r16, 0x01	; 1
    3300:	10 40       	sbci	r17, 0x00	; 0
    3302:	0f 90       	pop	r0
    3304:	0f 90       	pop	r0
    3306:	0f 90       	pop	r0
    3308:	0f 90       	pop	r0
}

uint8_t waitForATAnswer(char* what, int16_t timer) {
	//uint16_t timer = howmany;
	volatile uint8_t ret = 0;
	while (!strstr((const char*) rx_buffer_eth, what) && timer != 0) {
    330a:	8e ee       	ldi	r24, 0xEE	; 238
    330c:	97 e0       	ldi	r25, 0x07	; 7
    330e:	b7 01       	movw	r22, r14
    3310:	0e 94 75 24 	call	0x48ea	; 0x48ea <strstr>
    3314:	00 97       	sbiw	r24, 0x00	; 0
    3316:	19 f4       	brne	.+6      	; 0x331e <waitForATAnswer+0x74>
    3318:	01 15       	cp	r16, r1
    331a:	11 05       	cpc	r17, r1
    331c:	f9 f6       	brne	.-66     	; 0x32dc <waitForATAnswer+0x32>
//		usart_printf("\nfound");
//	else
//		usart_printf("\nnot found");


	usart_printf("\n %s", rx_buffer_eth);
    331e:	00 d0       	rcall	.+0      	; 0x3320 <waitForATAnswer+0x76>
    3320:	00 d0       	rcall	.+0      	; 0x3322 <waitForATAnswer+0x78>
    3322:	82 ec       	ldi	r24, 0xC2	; 194
    3324:	93 e0       	ldi	r25, 0x03	; 3
    3326:	ed b7       	in	r30, 0x3d	; 61
    3328:	fe b7       	in	r31, 0x3e	; 62
    332a:	92 83       	std	Z+2, r25	; 0x02
    332c:	81 83       	std	Z+1, r24	; 0x01
    332e:	8e ee       	ldi	r24, 0xEE	; 238
    3330:	97 e0       	ldi	r25, 0x07	; 7
    3332:	94 83       	std	Z+4, r25	; 0x04
    3334:	83 83       	std	Z+3, r24	; 0x03
    3336:	0e 94 20 19 	call	0x3240	; 0x3240 <usart_printf>
    333a:	80 e0       	ldi	r24, 0x00	; 0
    333c:	90 e0       	ldi	r25, 0x00	; 0
    333e:	0f 90       	pop	r0
    3340:	0f 90       	pop	r0
    3342:	0f 90       	pop	r0
    3344:	0f 90       	pop	r0
	USART_Transmit_DEB(' ');
}

void reset_rxbuffer_eth() {
	for (int k = 0; k < RX_BUFFER_SIZE_ETH; k++) {
		rx_buffer_eth[k] = 0;
    3346:	fc 01       	movw	r30, r24
    3348:	e2 51       	subi	r30, 0x12	; 18
    334a:	f8 4f       	sbci	r31, 0xF8	; 248
    334c:	10 82       	st	Z, r1

	USART_Transmit_DEB(' ');
}

void reset_rxbuffer_eth() {
	for (int k = 0; k < RX_BUFFER_SIZE_ETH; k++) {
    334e:	01 96       	adiw	r24, 0x01	; 1
    3350:	f1 e0       	ldi	r31, 0x01	; 1
    3352:	82 3c       	cpi	r24, 0xC2	; 194
    3354:	9f 07       	cpc	r25, r31
    3356:	b9 f7       	brne	.-18     	; 0x3346 <waitForATAnswer+0x9c>
		rx_buffer_eth[k] = 0;
	}
	//memset(rx_buffer_eth, 0, RX_BUFFER_SIZE_ETH);
	eth_i = 0;
    3358:	10 92 1d 07 	sts	0x071D, r1
    335c:	10 92 1c 07 	sts	0x071C, r1


	usart_printf("\n %s", rx_buffer_eth);
	reset_rxbuffer_eth();

	if (timer > 0) {
    3360:	10 16       	cp	r1, r16
    3362:	11 06       	cpc	r1, r17
    3364:	1c f4       	brge	.+6      	; 0x336c <waitForATAnswer+0xc2>
		ret = 1;
    3366:	81 e0       	ldi	r24, 0x01	; 1
    3368:	89 83       	std	Y+1, r24	; 0x01
    336a:	01 c0       	rjmp	.+2      	; 0x336e <waitForATAnswer+0xc4>
	} else {
		ret = 0;
    336c:	19 82       	std	Y+1, r1	; 0x01
	}
	return ret;
    336e:	89 81       	ldd	r24, Y+1	; 0x01

}
    3370:	0f 90       	pop	r0
    3372:	cf 91       	pop	r28
    3374:	df 91       	pop	r29
    3376:	1f 91       	pop	r17
    3378:	0f 91       	pop	r16
    337a:	ff 90       	pop	r15
    337c:	ef 90       	pop	r14
    337e:	df 90       	pop	r13
    3380:	cf 90       	pop	r12
    3382:	bf 90       	pop	r11
    3384:	af 90       	pop	r10
    3386:	08 95       	ret

00003388 <reset_rxbuffer_deb>:

void reset_rxbuffer_deb() {
	//for (deb_i = 0; deb_i < RX_BUFFER_SIZE_DEB; deb_i++) {
	//	rx_buffer_deb[deb_i] = 0;
	//}
	memset(rx_buffer_deb, 0, RX_BUFFER_SIZE_DEB);
    3388:	8e e1       	ldi	r24, 0x1E	; 30
    338a:	e0 ed       	ldi	r30, 0xD0	; 208
    338c:	f7 e0       	ldi	r31, 0x07	; 7
    338e:	df 01       	movw	r26, r30
    3390:	1d 92       	st	X+, r1
    3392:	8a 95       	dec	r24
    3394:	e9 f7       	brne	.-6      	; 0x3390 <reset_rxbuffer_deb+0x8>
	deb_i = 0;
    3396:	10 92 1b 07 	sts	0x071B, r1
    339a:	10 92 1a 07 	sts	0x071A, r1
}
    339e:	08 95       	ret

000033a0 <__vector_32>:
	//	USART_Transmit_DEB(USART_receive_ETH());
	//}
	sei();
}

ISR(USART1_TX_vect) {
    33a0:	1f 92       	push	r1
    33a2:	0f 92       	push	r0
    33a4:	0f b6       	in	r0, 0x3f	; 63
    33a6:	0f 92       	push	r0
    33a8:	11 24       	eor	r1, r1
    33aa:	8f 93       	push	r24
	wastx_uart_deb = 1;
    33ac:	81 e0       	ldi	r24, 0x01	; 1
    33ae:	80 93 20 07 	sts	0x0720, r24
}
    33b2:	8f 91       	pop	r24
    33b4:	0f 90       	pop	r0
    33b6:	0f be       	out	0x3f, r0	; 63
    33b8:	0f 90       	pop	r0
    33ba:	1f 90       	pop	r1
    33bc:	18 95       	reti

000033be <__vector_6>:
	DISP_BACKLIGHT = LCD_light_level;
	sei();
}

//button 1
ISR(INT5_vect) {
    33be:	1f 92       	push	r1
    33c0:	0f 92       	push	r0
    33c2:	0f b6       	in	r0, 0x3f	; 63
    33c4:	0f 92       	push	r0
    33c6:	11 24       	eor	r1, r1
    33c8:	8f 93       	push	r24
	TOUCH_BUTTON_1_ID;
    33ca:	89 b7       	in	r24, 0x39	; 57
    33cc:	8f 7d       	andi	r24, 0xDF	; 223
    33ce:	89 bf       	out	0x39, r24	; 57
	cli();
    33d0:	f8 94       	cli
	was_butt1_int = true;
    33d2:	81 e0       	ldi	r24, 0x01	; 1
    33d4:	80 93 29 07 	sts	0x0729, r24
	SET_SYSCTRL_INT;
    33d8:	80 93 2c 07 	sts	0x072C, r24
//lcd_printf("b1");
//mainStateNext = NONPERIODIC;
	nonperiodicTasks = SYS_CTRL;
    33dc:	10 92 25 07 	sts	0x0725, r1
	sei();
    33e0:	78 94       	sei
}
    33e2:	8f 91       	pop	r24
    33e4:	0f 90       	pop	r0
    33e6:	0f be       	out	0x3f, r0	; 63
    33e8:	0f 90       	pop	r0
    33ea:	1f 90       	pop	r1
    33ec:	18 95       	reti

000033ee <__vector_7>:

//button 2
ISR(INT6_vect) {
    33ee:	1f 92       	push	r1
    33f0:	0f 92       	push	r0
    33f2:	0f b6       	in	r0, 0x3f	; 63
    33f4:	0f 92       	push	r0
    33f6:	11 24       	eor	r1, r1
    33f8:	8f 93       	push	r24
	TOUCH_BUTTON_2_ID;
    33fa:	89 b7       	in	r24, 0x39	; 57
    33fc:	8f 7b       	andi	r24, 0xBF	; 191
    33fe:	89 bf       	out	0x39, r24	; 57
	cli();
    3400:	f8 94       	cli
	was_butt2_int = true;
    3402:	81 e0       	ldi	r24, 0x01	; 1
    3404:	80 93 2a 07 	sts	0x072A, r24
	SET_SYSCTRL_INT;
    3408:	80 93 2c 07 	sts	0x072C, r24
//lcd_printf("b2");
//mainStateNext = NONPERIODIC;
	nonperiodicTasks = SYS_CTRL;
    340c:	10 92 25 07 	sts	0x0725, r1
	sei();
    3410:	78 94       	sei
}
    3412:	8f 91       	pop	r24
    3414:	0f 90       	pop	r0
    3416:	0f be       	out	0x3f, r0	; 63
    3418:	0f 90       	pop	r0
    341a:	1f 90       	pop	r1
    341c:	18 95       	reti

0000341e <__vector_default>:

ISR(BADISR_vect) {
    341e:	1f 92       	push	r1
    3420:	0f 92       	push	r0
    3422:	0f b6       	in	r0, 0x3f	; 63
    3424:	0f 92       	push	r0
    3426:	11 24       	eor	r1, r1
    3428:	2f 93       	push	r18
    342a:	3f 93       	push	r19
    342c:	4f 93       	push	r20
    342e:	5f 93       	push	r21
    3430:	6f 93       	push	r22
    3432:	7f 93       	push	r23
    3434:	8f 93       	push	r24
    3436:	9f 93       	push	r25
    3438:	af 93       	push	r26
    343a:	bf 93       	push	r27
    343c:	ef 93       	push	r30
    343e:	ff 93       	push	r31

//for (;;) UDR0='!';
	usart_printf("\n!!!!");
    3440:	00 d0       	rcall	.+0      	; 0x3442 <__vector_default+0x24>
    3442:	87 ec       	ldi	r24, 0xC7	; 199
    3444:	93 e0       	ldi	r25, 0x03	; 3
    3446:	ed b7       	in	r30, 0x3d	; 61
    3448:	fe b7       	in	r31, 0x3e	; 62
    344a:	92 83       	std	Z+2, r25	; 0x02
    344c:	81 83       	std	Z+1, r24	; 0x01
    344e:	0e 94 20 19 	call	0x3240	; 0x3240 <usart_printf>
	LED_DEB_TOGGLE;
    3452:	8b b3       	in	r24, 0x1b	; 27
    3454:	80 58       	subi	r24, 0x80	; 128
    3456:	8b bb       	out	0x1b, r24	; 27
    3458:	0f 90       	pop	r0
    345a:	0f 90       	pop	r0
//DEB_LED_TOGGLE;
}
    345c:	ff 91       	pop	r31
    345e:	ef 91       	pop	r30
    3460:	bf 91       	pop	r27
    3462:	af 91       	pop	r26
    3464:	9f 91       	pop	r25
    3466:	8f 91       	pop	r24
    3468:	7f 91       	pop	r23
    346a:	6f 91       	pop	r22
    346c:	5f 91       	pop	r21
    346e:	4f 91       	pop	r20
    3470:	3f 91       	pop	r19
    3472:	2f 91       	pop	r18
    3474:	0f 90       	pop	r0
    3476:	0f be       	out	0x3f, r0	; 63
    3478:	0f 90       	pop	r0
    347a:	1f 90       	pop	r1
    347c:	18 95       	reti

0000347e <__vector_2>:
	nixie_digit(nix, digit[nix]);
	sei();
//usart_printf("\nx");
}

ISR(INT1_vect) {
    347e:	1f 92       	push	r1
    3480:	0f 92       	push	r0
    3482:	0f b6       	in	r0, 0x3f	; 63
    3484:	0f 92       	push	r0
    3486:	11 24       	eor	r1, r1
    3488:	2f 93       	push	r18
    348a:	3f 93       	push	r19
    348c:	4f 93       	push	r20
    348e:	5f 93       	push	r21
    3490:	6f 93       	push	r22
    3492:	7f 93       	push	r23
    3494:	8f 93       	push	r24
    3496:	9f 93       	push	r25
    3498:	af 93       	push	r26
    349a:	bf 93       	push	r27
    349c:	ef 93       	push	r30
    349e:	ff 93       	push	r31
	cli();
    34a0:	f8 94       	cli
	was_pir_int = true;
    34a2:	81 e0       	ldi	r24, 0x01	; 1
    34a4:	80 93 2b 07 	sts	0x072B, r24
	usart_printf("\nPIR INT");
    34a8:	00 d0       	rcall	.+0      	; 0x34aa <__vector_2+0x2c>
    34aa:	8d ec       	ldi	r24, 0xCD	; 205
    34ac:	93 e0       	ldi	r25, 0x03	; 3
    34ae:	ed b7       	in	r30, 0x3d	; 61
    34b0:	fe b7       	in	r31, 0x3e	; 62
    34b2:	92 83       	std	Z+2, r25	; 0x02
    34b4:	81 83       	std	Z+1, r24	; 0x01
    34b6:	0e 94 20 19 	call	0x3240	; 0x3240 <usart_printf>
	DISP_BACKLIGHT = LCD_light_level;
    34ba:	80 91 18 07 	lds	r24, 0x0718
    34be:	81 bf       	out	0x31, r24	; 49
	sei();
    34c0:	78 94       	sei
    34c2:	0f 90       	pop	r0
    34c4:	0f 90       	pop	r0
}
    34c6:	ff 91       	pop	r31
    34c8:	ef 91       	pop	r30
    34ca:	bf 91       	pop	r27
    34cc:	af 91       	pop	r26
    34ce:	9f 91       	pop	r25
    34d0:	8f 91       	pop	r24
    34d2:	7f 91       	pop	r23
    34d4:	6f 91       	pop	r22
    34d6:	5f 91       	pop	r21
    34d8:	4f 91       	pop	r20
    34da:	3f 91       	pop	r19
    34dc:	2f 91       	pop	r18
    34de:	0f 90       	pop	r0
    34e0:	0f be       	out	0x3f, r0	; 63
    34e2:	0f 90       	pop	r0
    34e4:	1f 90       	pop	r1
    34e6:	18 95       	reti

000034e8 <__vector_10>:

ISR(USART1_TX_vect) {
	wastx_uart_deb = 1;
}

ISR(TIMER2_OVF_vect) {
    34e8:	1f 92       	push	r1
    34ea:	0f 92       	push	r0
    34ec:	0f b6       	in	r0, 0x3f	; 63
    34ee:	0f 92       	push	r0
    34f0:	11 24       	eor	r1, r1
    34f2:	2f 93       	push	r18
    34f4:	3f 93       	push	r19
    34f6:	4f 93       	push	r20
    34f8:	5f 93       	push	r21
    34fa:	6f 93       	push	r22
    34fc:	7f 93       	push	r23
    34fe:	8f 93       	push	r24
    3500:	9f 93       	push	r25
    3502:	af 93       	push	r26
    3504:	bf 93       	push	r27
    3506:	ef 93       	push	r30
    3508:	ff 93       	push	r31
	cli();
    350a:	f8 94       	cli
	LED_DEB_TOGGLE;
    350c:	8b b3       	in	r24, 0x1b	; 27
    350e:	80 58       	subi	r24, 0x80	; 128
    3510:	8b bb       	out	0x1b, r24	; 27
	if (nix < 3)
    3512:	80 91 27 07 	lds	r24, 0x0727
    3516:	90 91 28 07 	lds	r25, 0x0728
    351a:	03 97       	sbiw	r24, 0x03	; 3
    351c:	50 f4       	brcc	.+20     	; 0x3532 <__vector_10+0x4a>
		nix++;
    351e:	80 91 27 07 	lds	r24, 0x0727
    3522:	90 91 28 07 	lds	r25, 0x0728
    3526:	01 96       	adiw	r24, 0x01	; 1
    3528:	90 93 28 07 	sts	0x0728, r25
    352c:	80 93 27 07 	sts	0x0727, r24
    3530:	04 c0       	rjmp	.+8      	; 0x353a <__vector_10+0x52>
	else
		nix = 0;
    3532:	10 92 28 07 	sts	0x0728, r1
    3536:	10 92 27 07 	sts	0x0727, r1
	nixie_digit(nix, digit[nix]);
    353a:	80 91 27 07 	lds	r24, 0x0727
    353e:	90 91 28 07 	lds	r25, 0x0728
    3542:	e0 91 27 07 	lds	r30, 0x0727
    3546:	f0 91 28 07 	lds	r31, 0x0728
    354a:	e1 5d       	subi	r30, 0xD1	; 209
    354c:	f8 4f       	sbci	r31, 0xF8	; 248
    354e:	60 81       	ld	r22, Z
    3550:	0e 94 f9 14 	call	0x29f2	; 0x29f2 <nixie_digit>
	sei();
    3554:	78 94       	sei
//usart_printf("\nx");
}
    3556:	ff 91       	pop	r31
    3558:	ef 91       	pop	r30
    355a:	bf 91       	pop	r27
    355c:	af 91       	pop	r26
    355e:	9f 91       	pop	r25
    3560:	8f 91       	pop	r24
    3562:	7f 91       	pop	r23
    3564:	6f 91       	pop	r22
    3566:	5f 91       	pop	r21
    3568:	4f 91       	pop	r20
    356a:	3f 91       	pop	r19
    356c:	2f 91       	pop	r18
    356e:	0f 90       	pop	r0
    3570:	0f be       	out	0x3f, r0	; 63
    3572:	0f 90       	pop	r0
    3574:	1f 90       	pop	r1
    3576:	18 95       	reti

00003578 <__vector_18>:
	deb_i++;

	sei();
}

ISR(USART0_RX_vect) {
    3578:	1f 92       	push	r1
    357a:	0f 92       	push	r0
    357c:	0f b6       	in	r0, 0x3f	; 63
    357e:	0f 92       	push	r0
    3580:	11 24       	eor	r1, r1
    3582:	2f 93       	push	r18
    3584:	3f 93       	push	r19
    3586:	4f 93       	push	r20
    3588:	5f 93       	push	r21
    358a:	6f 93       	push	r22
    358c:	7f 93       	push	r23
    358e:	8f 93       	push	r24
    3590:	9f 93       	push	r25
    3592:	af 93       	push	r26
    3594:	bf 93       	push	r27
    3596:	ef 93       	push	r30
    3598:	ff 93       	push	r31
	cli();
    359a:	f8 94       	cli
//	rx_buffer_eth[eth_i] = data_eth;
//	if (data_eth == USART_EOF_CHAR_ETH)
//		wasrx_uart_eth = 1;
//	eth_i++;

	char last_rx_byte = USART_receive_ETH();
    359c:	0e 94 8b 18 	call	0x3116	; 0x3116 <USART_receive_ETH>
	//if (last_rx_byte) {
	if (last_rx_byte == 0)
    35a0:	88 23       	and	r24, r24
    35a2:	41 f0       	breq	.+16     	; 0x35b4 <__vector_18+0x3c>
		last_rx_byte = '_';

	if (last_rx_byte == 0xA) {
    35a4:	8a 30       	cpi	r24, 0x0A	; 10
    35a6:	21 f4       	brne	.+8      	; 0x35b0 <__vector_18+0x38>
		last_rx_byte = '_';
		wasrx_uart_eth = 1;
    35a8:	81 e0       	ldi	r24, 0x01	; 1
    35aa:	80 93 1f 07 	sts	0x071F, r24
    35ae:	02 c0       	rjmp	.+4      	; 0x35b4 <__vector_18+0x3c>
	}

	if (last_rx_byte == 0xD)
    35b0:	8d 30       	cpi	r24, 0x0D	; 13
    35b2:	09 f4       	brne	.+2      	; 0x35b6 <__vector_18+0x3e>
    35b4:	8f e5       	ldi	r24, 0x5F	; 95
		last_rx_byte = '_';

	rx_buffer_eth[eth_i] = last_rx_byte;
    35b6:	e0 91 1c 07 	lds	r30, 0x071C
    35ba:	f0 91 1d 07 	lds	r31, 0x071D
    35be:	e2 51       	subi	r30, 0x12	; 18
    35c0:	f8 4f       	sbci	r31, 0xF8	; 248
    35c2:	80 83       	st	Z, r24
	eth_i++;
    35c4:	80 91 1c 07 	lds	r24, 0x071C
    35c8:	90 91 1d 07 	lds	r25, 0x071D
    35cc:	01 96       	adiw	r24, 0x01	; 1
    35ce:	90 93 1d 07 	sts	0x071D, r25
    35d2:	80 93 1c 07 	sts	0x071C, r24
	//}

	//if (servoce_mode) {
	//	USART_Transmit_DEB(USART_receive_ETH());
	//}
	sei();
    35d6:	78 94       	sei
}
    35d8:	ff 91       	pop	r31
    35da:	ef 91       	pop	r30
    35dc:	bf 91       	pop	r27
    35de:	af 91       	pop	r26
    35e0:	9f 91       	pop	r25
    35e2:	8f 91       	pop	r24
    35e4:	7f 91       	pop	r23
    35e6:	6f 91       	pop	r22
    35e8:	5f 91       	pop	r21
    35ea:	4f 91       	pop	r20
    35ec:	3f 91       	pop	r19
    35ee:	2f 91       	pop	r18
    35f0:	0f 90       	pop	r0
    35f2:	0f be       	out	0x3f, r0	; 63
    35f4:	0f 90       	pop	r0
    35f6:	1f 90       	pop	r1
    35f8:	18 95       	reti

000035fa <__vector_30>:
		nrf24l01_read(bufferin);
	}
	sei();
}

ISR(USART1_RX_vect) {
    35fa:	1f 92       	push	r1
    35fc:	0f 92       	push	r0
    35fe:	0f b6       	in	r0, 0x3f	; 63
    3600:	0f 92       	push	r0
    3602:	11 24       	eor	r1, r1
    3604:	2f 93       	push	r18
    3606:	3f 93       	push	r19
    3608:	4f 93       	push	r20
    360a:	5f 93       	push	r21
    360c:	6f 93       	push	r22
    360e:	7f 93       	push	r23
    3610:	8f 93       	push	r24
    3612:	9f 93       	push	r25
    3614:	af 93       	push	r26
    3616:	bf 93       	push	r27
    3618:	ef 93       	push	r30
    361a:	ff 93       	push	r31
	cli();
    361c:	f8 94       	cli
	LED_DEB_ON;
    361e:	df 9a       	sbi	0x1b, 7	; 27

	//USART_Transmit_ETH(USART_receive_DEB());

	char data_deb = USART_receive_DEB();
    3620:	0e 94 8f 18 	call	0x311e	; 0x311e <USART_receive_DEB>
    3624:	98 2f       	mov	r25, r24

	if (data_deb == 0xA)
    3626:	8a 30       	cpi	r24, 0x0A	; 10
    3628:	19 f4       	brne	.+6      	; 0x3630 <__vector_30+0x36>
		wasrx_uart_deb = 1;
    362a:	81 e0       	ldi	r24, 0x01	; 1
    362c:	80 93 1e 07 	sts	0x071E, r24

	rx_buffer_deb[deb_i] = data_deb;
    3630:	e0 91 1a 07 	lds	r30, 0x071A
    3634:	f0 91 1b 07 	lds	r31, 0x071B
    3638:	e0 53       	subi	r30, 0x30	; 48
    363a:	f8 4f       	sbci	r31, 0xF8	; 248
    363c:	90 83       	st	Z, r25
	deb_i++;
    363e:	80 91 1a 07 	lds	r24, 0x071A
    3642:	90 91 1b 07 	lds	r25, 0x071B
    3646:	01 96       	adiw	r24, 0x01	; 1
    3648:	90 93 1b 07 	sts	0x071B, r25
    364c:	80 93 1a 07 	sts	0x071A, r24

	sei();
    3650:	78 94       	sei
}
    3652:	ff 91       	pop	r31
    3654:	ef 91       	pop	r30
    3656:	bf 91       	pop	r27
    3658:	af 91       	pop	r26
    365a:	9f 91       	pop	r25
    365c:	8f 91       	pop	r24
    365e:	7f 91       	pop	r23
    3660:	6f 91       	pop	r22
    3662:	5f 91       	pop	r21
    3664:	4f 91       	pop	r20
    3666:	3f 91       	pop	r19
    3668:	2f 91       	pop	r18
    366a:	0f 90       	pop	r0
    366c:	0f be       	out	0x3f, r0	; 63
    366e:	0f 90       	pop	r0
    3670:	1f 90       	pop	r1
    3672:	18 95       	reti

00003674 <__vector_8>:
	} //end of while(1)
} //end of main
/////////////////////////////////////////////////////////////////////////
/////////////////////////////////////////////////////////////////////////
/////////////////////////////////////////////////////////////////////////
ISR(INT7_vect) {
    3674:	1f 92       	push	r1
    3676:	0f 92       	push	r0
    3678:	0f b6       	in	r0, 0x3f	; 63
    367a:	0f 92       	push	r0
    367c:	11 24       	eor	r1, r1
    367e:	2f 93       	push	r18
    3680:	3f 93       	push	r19
    3682:	4f 93       	push	r20
    3684:	5f 93       	push	r21
    3686:	6f 93       	push	r22
    3688:	7f 93       	push	r23
    368a:	8f 93       	push	r24
    368c:	9f 93       	push	r25
    368e:	af 93       	push	r26
    3690:	bf 93       	push	r27
    3692:	ef 93       	push	r30
    3694:	ff 93       	push	r31
//rx
	cli();
    3696:	f8 94       	cli
	was_nrf_int = true;
    3698:	81 e0       	ldi	r24, 0x01	; 1
    369a:	80 93 2d 07 	sts	0x072D, r24
	pipe = 0;
    369e:	10 92 4e 07 	sts	0x074E, r1
	if (nrf24l01_readready(&pipe)) { //if data is ready
    36a2:	8e e4       	ldi	r24, 0x4E	; 78
    36a4:	97 e0       	ldi	r25, 0x07	; 7
    36a6:	0e 94 87 16 	call	0x2d0e	; 0x2d0e <nrf24l01_readready>
    36aa:	88 23       	and	r24, r24
    36ac:	21 f0       	breq	.+8      	; 0x36b6 <__vector_8+0x42>
		nrf24l01_read(bufferin);
    36ae:	80 eb       	ldi	r24, 0xB0	; 176
    36b0:	99 e0       	ldi	r25, 0x09	; 9
    36b2:	0e 94 d2 16 	call	0x2da4	; 0x2da4 <nrf24l01_read>
	}
	sei();
    36b6:	78 94       	sei
}
    36b8:	ff 91       	pop	r31
    36ba:	ef 91       	pop	r30
    36bc:	bf 91       	pop	r27
    36be:	af 91       	pop	r26
    36c0:	9f 91       	pop	r25
    36c2:	8f 91       	pop	r24
    36c4:	7f 91       	pop	r23
    36c6:	6f 91       	pop	r22
    36c8:	5f 91       	pop	r21
    36ca:	4f 91       	pop	r20
    36cc:	3f 91       	pop	r19
    36ce:	2f 91       	pop	r18
    36d0:	0f 90       	pop	r0
    36d2:	0f be       	out	0x3f, r0	; 63
    36d4:	0f 90       	pop	r0
    36d6:	1f 90       	pop	r1
    36d8:	18 95       	reti

000036da <main>:
//char d[5] = { '1', '2', '3', '4', '\0' };
//////////////////////////////////////////////////////////////////////////

//////////////////////////////////////////////////////////////////////////
//////////////////////////////////////////////////////////////////////////
int main(void) {
    36da:	2f 92       	push	r2
    36dc:	3f 92       	push	r3
    36de:	4f 92       	push	r4
    36e0:	5f 92       	push	r5
    36e2:	6f 92       	push	r6
    36e4:	7f 92       	push	r7
    36e6:	8f 92       	push	r8
    36e8:	9f 92       	push	r9
    36ea:	af 92       	push	r10
    36ec:	bf 92       	push	r11
    36ee:	cf 92       	push	r12
    36f0:	df 92       	push	r13
    36f2:	ef 92       	push	r14
    36f4:	ff 92       	push	r15
    36f6:	0f 93       	push	r16
    36f8:	1f 93       	push	r17
    36fa:	df 93       	push	r29
    36fc:	cf 93       	push	r28
    36fe:	cd b7       	in	r28, 0x3d	; 61
    3700:	de b7       	in	r29, 0x3e	; 62
    3702:	a8 97       	sbiw	r28, 0x28	; 40
    3704:	0f b6       	in	r0, 0x3f	; 63
    3706:	f8 94       	cli
    3708:	de bf       	out	0x3e, r29	; 62
    370a:	0f be       	out	0x3f, r0	; 63
    370c:	cd bf       	out	0x3d, r28	; 61
	float humidity;
	uint8_t web_refresh_cnt = 0;
	bool stb_led_up = false;
	uint32_t butt_1_cnt = 0;
	uint32_t butt_2_cnt = 0;
	loc_measuredData.wifiErr = 0;
    370e:	10 92 ca 07 	sts	0x07CA, r1
    3712:	10 92 c9 07 	sts	0x07C9, r1
	loc_measuredData.NRFErr = 0;
    3716:	10 92 cc 07 	sts	0x07CC, r1
    371a:	10 92 cb 07 	sts	0x07CB, r1
	uint8_t RGB_light_correction = RGB_MAX_DIV;

	//struct rtc_time rtc;

	//IO
	init_IO();
    371e:	0e 94 8d 09 	call	0x131a	; 0x131a <init_IO>

	WIFI_RESET_ACT;
    3722:	80 91 62 00 	lds	r24, 0x0062
    3726:	8d 7f       	andi	r24, 0xFD	; 253
    3728:	80 93 62 00 	sts	0x0062, r24
    372c:	88 ee       	ldi	r24, 0xE8	; 232
    372e:	93 e0       	ldi	r25, 0x03	; 3
    3730:	20 e9       	ldi	r18, 0x90	; 144
    3732:	31 e0       	ldi	r19, 0x01	; 1
    3734:	f9 01       	movw	r30, r18
    3736:	31 97       	sbiw	r30, 0x01	; 1
    3738:	f1 f7       	brne	.-4      	; 0x3736 <main+0x5c>
		{
			// wait 1/10 ms
			_delay_loop_2(((F_CPU) / 4e3) / 10);
			__ticks --;
    373a:	01 97       	sbiw	r24, 0x01	; 1
		__ticks = 1;
	else if (__tmp > 65535)
	{
		//	__ticks = requested delay in 1/10 ms
		__ticks = (uint16_t) (__ms * 10.0);
		while(__ticks)
    373c:	d9 f7       	brne	.-10     	; 0x3734 <main+0x5a>
	_delay_ms(100);
	WIFI_RESET_DIS;
    373e:	80 91 62 00 	lds	r24, 0x0062
    3742:	82 60       	ori	r24, 0x02	; 2
    3744:	80 93 62 00 	sts	0x0062, r24
    3748:	88 ee       	ldi	r24, 0xE8	; 232
    374a:	93 e0       	ldi	r25, 0x03	; 3
    374c:	20 e9       	ldi	r18, 0x90	; 144
    374e:	31 e0       	ldi	r19, 0x01	; 1
    3750:	f9 01       	movw	r30, r18
    3752:	31 97       	sbiw	r30, 0x01	; 1
    3754:	f1 f7       	brne	.-4      	; 0x3752 <main+0x78>
		{
			// wait 1/10 ms
			_delay_loop_2(((F_CPU) / 4e3) / 10);
			__ticks --;
    3756:	01 97       	sbiw	r24, 0x01	; 1
		__ticks = 1;
	else if (__tmp > 65535)
	{
		//	__ticks = requested delay in 1/10 ms
		__ticks = (uint16_t) (__ms * 10.0);
		while(__ticks)
    3758:	d9 f7       	brne	.-10     	; 0x3750 <main+0x76>
	_delay_ms(100);

	LED_DEB_ON;
    375a:	df 9a       	sbi	0x1b, 7	; 27
//	PORTB |= (1<<NIXIE_LED_BLUE);
//
//	while(1);

	//USART
	init_USART_ETH(MYUBRR_ETH);
    375c:	89 e1       	ldi	r24, 0x19	; 25
    375e:	90 e0       	ldi	r25, 0x00	; 0
    3760:	0e 94 77 18 	call	0x30ee	; 0x30ee <init_USART_ETH>
	usart_printf("JTAG");

	MCUCSR = 0;

#endif
	usart_printf(STROUT_PR_NAME);
    3764:	00 d0       	rcall	.+0      	; 0x3766 <main+0x8c>
    3766:	86 ed       	ldi	r24, 0xD6	; 214
    3768:	93 e0       	ldi	r25, 0x03	; 3
    376a:	ad b7       	in	r26, 0x3d	; 61
    376c:	be b7       	in	r27, 0x3e	; 62
    376e:	12 96       	adiw	r26, 0x02	; 2
    3770:	9c 93       	st	X, r25
    3772:	8e 93       	st	-X, r24
    3774:	11 97       	sbiw	r26, 0x01	; 1
    3776:	0e 94 20 19 	call	0x3240	; 0x3240 <usart_printf>

	//LCD
	lcd_init(LCD_DISP_ON); //LCD initialization
    377a:	0f 90       	pop	r0
    377c:	0f 90       	pop	r0
    377e:	8c e0       	ldi	r24, 0x0C	; 12
    3780:	0e 94 a9 14 	call	0x2952	; 0x2952 <lcd_init>
	custom_chars();
    3784:	0e 94 7c 0e 	call	0x1cf8	; 0x1cf8 <custom_chars>
	lcd_clrscr(); //clear LCD screen
    3788:	0e 94 5b 14 	call	0x28b6	; 0x28b6 <lcd_clrscr>
	lcd_home(); //set LCD cursor to default position
    378c:	0e 94 5f 14 	call	0x28be	; 0x28be <lcd_home>
	lcd_gotoxy(3, 0);
    3790:	83 e0       	ldi	r24, 0x03	; 3
    3792:	60 e0       	ldi	r22, 0x00	; 0
    3794:	0e 94 47 14 	call	0x288e	; 0x288e <lcd_gotoxy>
	lcd_printf("System Start:");
    3798:	00 d0       	rcall	.+0      	; 0x379a <main+0xc0>
    379a:	89 ee       	ldi	r24, 0xE9	; 233
    379c:	93 e0       	ldi	r25, 0x03	; 3
    379e:	ed b7       	in	r30, 0x3d	; 61
    37a0:	fe b7       	in	r31, 0x3e	; 62
    37a2:	92 83       	std	Z+2, r25	; 0x02
    37a4:	81 83       	std	Z+1, r24	; 0x01
    37a6:	0e 94 e7 10 	call	0x21ce	; 0x21ce <lcd_printf>
	timers_lcdlight_init();
    37aa:	0f 90       	pop	r0
    37ac:	0f 90       	pop	r0
    37ae:	0e 94 b6 09 	call	0x136c	; 0x136c <timers_lcdlight_init>
	DISP_BACKLIGHT = LCD_light_level;
    37b2:	80 91 18 07 	lds	r24, 0x0718
    37b6:	81 bf       	out	0x31, r24	; 49
	usart_printf("\nLCD...");
    37b8:	00 d0       	rcall	.+0      	; 0x37ba <main+0xe0>
    37ba:	87 ef       	ldi	r24, 0xF7	; 247
    37bc:	93 e0       	ldi	r25, 0x03	; 3
    37be:	ad b7       	in	r26, 0x3d	; 61
    37c0:	be b7       	in	r27, 0x3e	; 62
    37c2:	12 96       	adiw	r26, 0x02	; 2
    37c4:	9c 93       	st	X, r25
    37c6:	8e 93       	st	-X, r24
    37c8:	11 97       	sbiw	r26, 0x01	; 1
    37ca:	0e 94 20 19 	call	0x3240	; 0x3240 <usart_printf>
	LCD_verticalScroll("LCD done");
    37ce:	0f 90       	pop	r0
    37d0:	0f 90       	pop	r0
    37d2:	8f ef       	ldi	r24, 0xFF	; 255
    37d4:	93 e0       	ldi	r25, 0x03	; 3
    37d6:	0e 94 15 11 	call	0x222a	; 0x222a <LCD_verticalScroll>

	sei();
    37da:	78 94       	sei
	usart_printf("\nsei()...");
    37dc:	00 d0       	rcall	.+0      	; 0x37de <main+0x104>
    37de:	88 e0       	ldi	r24, 0x08	; 8
    37e0:	94 e0       	ldi	r25, 0x04	; 4
    37e2:	ed b7       	in	r30, 0x3d	; 61
    37e4:	fe b7       	in	r31, 0x3e	; 62
    37e6:	92 83       	std	Z+2, r25	; 0x02
    37e8:	81 83       	std	Z+1, r24	; 0x01
    37ea:	0e 94 20 19 	call	0x3240	; 0x3240 <usart_printf>
	LCD_verticalScroll("IRQ enabled");
    37ee:	0f 90       	pop	r0
    37f0:	0f 90       	pop	r0
    37f2:	82 e1       	ldi	r24, 0x12	; 18
    37f4:	94 e0       	ldi	r25, 0x04	; 4
    37f6:	0e 94 15 11 	call	0x222a	; 0x222a <LCD_verticalScroll>

	LCD_verticalScroll("LED Test");
    37fa:	8e e1       	ldi	r24, 0x1E	; 30
    37fc:	94 e0       	ldi	r25, 0x04	; 4
    37fe:	0e 94 15 11 	call	0x222a	; 0x222a <LCD_verticalScroll>
	LED_RED_ON;
    3802:	80 91 62 00 	lds	r24, 0x0062
    3806:	80 61       	ori	r24, 0x10	; 16
    3808:	80 93 62 00 	sts	0x0062, r24
    380c:	88 eb       	ldi	r24, 0xB8	; 184
    380e:	9b e0       	ldi	r25, 0x0B	; 11
    3810:	20 e9       	ldi	r18, 0x90	; 144
    3812:	31 e0       	ldi	r19, 0x01	; 1
    3814:	f9 01       	movw	r30, r18
    3816:	31 97       	sbiw	r30, 0x01	; 1
    3818:	f1 f7       	brne	.-4      	; 0x3816 <main+0x13c>
		{
			// wait 1/10 ms
			_delay_loop_2(((F_CPU) / 4e3) / 10);
			__ticks --;
    381a:	01 97       	sbiw	r24, 0x01	; 1
		__ticks = 1;
	else if (__tmp > 65535)
	{
		//	__ticks = requested delay in 1/10 ms
		__ticks = (uint16_t) (__ms * 10.0);
		while(__ticks)
    381c:	d9 f7       	brne	.-10     	; 0x3814 <main+0x13a>
	_delay_ms(300);
	LED_YELLOW_ON;
    381e:	80 91 62 00 	lds	r24, 0x0062
    3822:	81 60       	ori	r24, 0x01	; 1
    3824:	80 93 62 00 	sts	0x0062, r24
    3828:	88 eb       	ldi	r24, 0xB8	; 184
    382a:	9b e0       	ldi	r25, 0x0B	; 11
    382c:	20 e9       	ldi	r18, 0x90	; 144
    382e:	31 e0       	ldi	r19, 0x01	; 1
    3830:	f9 01       	movw	r30, r18
    3832:	31 97       	sbiw	r30, 0x01	; 1
    3834:	f1 f7       	brne	.-4      	; 0x3832 <main+0x158>
		{
			// wait 1/10 ms
			_delay_loop_2(((F_CPU) / 4e3) / 10);
			__ticks --;
    3836:	01 97       	sbiw	r24, 0x01	; 1
		__ticks = 1;
	else if (__tmp > 65535)
	{
		//	__ticks = requested delay in 1/10 ms
		__ticks = (uint16_t) (__ms * 10.0);
		while(__ticks)
    3838:	d9 f7       	brne	.-10     	; 0x3830 <main+0x156>
	_delay_ms(300);
	LED_RED_OFF;
    383a:	80 91 62 00 	lds	r24, 0x0062
    383e:	8f 7e       	andi	r24, 0xEF	; 239
    3840:	80 93 62 00 	sts	0x0062, r24
	LED_YELLOW_OFF;
    3844:	80 91 62 00 	lds	r24, 0x0062
    3848:	8e 7f       	andi	r24, 0xFE	; 254
    384a:	80 93 62 00 	sts	0x0062, r24

	timers_rgb_init();
    384e:	0e 94 af 09 	call	0x135e	; 0x135e <timers_rgb_init>
	set_nixie_rgb(255, 0, 0);
    3852:	8f ef       	ldi	r24, 0xFF	; 255
    3854:	90 e0       	ldi	r25, 0x00	; 0
    3856:	60 e0       	ldi	r22, 0x00	; 0
    3858:	70 e0       	ldi	r23, 0x00	; 0
    385a:	40 e0       	ldi	r20, 0x00	; 0
    385c:	50 e0       	ldi	r21, 0x00	; 0
    385e:	0e 94 f0 14 	call	0x29e0	; 0x29e0 <set_nixie_rgb>
    3862:	80 ed       	ldi	r24, 0xD0	; 208
    3864:	97 e0       	ldi	r25, 0x07	; 7
    3866:	20 e9       	ldi	r18, 0x90	; 144
    3868:	31 e0       	ldi	r19, 0x01	; 1
    386a:	f9 01       	movw	r30, r18
    386c:	31 97       	sbiw	r30, 0x01	; 1
    386e:	f1 f7       	brne	.-4      	; 0x386c <main+0x192>
		{
			// wait 1/10 ms
			_delay_loop_2(((F_CPU) / 4e3) / 10);
			__ticks --;
    3870:	01 97       	sbiw	r24, 0x01	; 1
		__ticks = 1;
	else if (__tmp > 65535)
	{
		//	__ticks = requested delay in 1/10 ms
		__ticks = (uint16_t) (__ms * 10.0);
		while(__ticks)
    3872:	d9 f7       	brne	.-10     	; 0x386a <main+0x190>
	_delay_ms(200);
	set_nixie_rgb(0, 255, 0);
    3874:	80 e0       	ldi	r24, 0x00	; 0
    3876:	90 e0       	ldi	r25, 0x00	; 0
    3878:	6f ef       	ldi	r22, 0xFF	; 255
    387a:	70 e0       	ldi	r23, 0x00	; 0
    387c:	40 e0       	ldi	r20, 0x00	; 0
    387e:	50 e0       	ldi	r21, 0x00	; 0
    3880:	0e 94 f0 14 	call	0x29e0	; 0x29e0 <set_nixie_rgb>
    3884:	80 ed       	ldi	r24, 0xD0	; 208
    3886:	97 e0       	ldi	r25, 0x07	; 7
    3888:	20 e9       	ldi	r18, 0x90	; 144
    388a:	31 e0       	ldi	r19, 0x01	; 1
    388c:	f9 01       	movw	r30, r18
    388e:	31 97       	sbiw	r30, 0x01	; 1
    3890:	f1 f7       	brne	.-4      	; 0x388e <main+0x1b4>
		{
			// wait 1/10 ms
			_delay_loop_2(((F_CPU) / 4e3) / 10);
			__ticks --;
    3892:	01 97       	sbiw	r24, 0x01	; 1
		__ticks = 1;
	else if (__tmp > 65535)
	{
		//	__ticks = requested delay in 1/10 ms
		__ticks = (uint16_t) (__ms * 10.0);
		while(__ticks)
    3894:	d9 f7       	brne	.-10     	; 0x388c <main+0x1b2>
	_delay_ms(200);
	set_nixie_rgb(0, 0, 255);
    3896:	80 e0       	ldi	r24, 0x00	; 0
    3898:	90 e0       	ldi	r25, 0x00	; 0
    389a:	60 e0       	ldi	r22, 0x00	; 0
    389c:	70 e0       	ldi	r23, 0x00	; 0
    389e:	4f ef       	ldi	r20, 0xFF	; 255
    38a0:	50 e0       	ldi	r21, 0x00	; 0
    38a2:	0e 94 f0 14 	call	0x29e0	; 0x29e0 <set_nixie_rgb>
    38a6:	80 ed       	ldi	r24, 0xD0	; 208
    38a8:	97 e0       	ldi	r25, 0x07	; 7
    38aa:	20 e9       	ldi	r18, 0x90	; 144
    38ac:	31 e0       	ldi	r19, 0x01	; 1
    38ae:	f9 01       	movw	r30, r18
    38b0:	31 97       	sbiw	r30, 0x01	; 1
    38b2:	f1 f7       	brne	.-4      	; 0x38b0 <main+0x1d6>
		{
			// wait 1/10 ms
			_delay_loop_2(((F_CPU) / 4e3) / 10);
			__ticks --;
    38b4:	01 97       	sbiw	r24, 0x01	; 1
		__ticks = 1;
	else if (__tmp > 65535)
	{
		//	__ticks = requested delay in 1/10 ms
		__ticks = (uint16_t) (__ms * 10.0);
		while(__ticks)
    38b6:	d9 f7       	brne	.-10     	; 0x38ae <main+0x1d4>
	_delay_ms(200);
	set_nixie_rgb(0, 0, 0);
    38b8:	80 e0       	ldi	r24, 0x00	; 0
    38ba:	90 e0       	ldi	r25, 0x00	; 0
    38bc:	60 e0       	ldi	r22, 0x00	; 0
    38be:	70 e0       	ldi	r23, 0x00	; 0
    38c0:	40 e0       	ldi	r20, 0x00	; 0
    38c2:	50 e0       	ldi	r21, 0x00	; 0
    38c4:	0e 94 f0 14 	call	0x29e0	; 0x29e0 <set_nixie_rgb>

	//
	// RTC
	//
	if (ClockInit()) {
    38c8:	0e 94 fe 07 	call	0xffc	; 0xffc <ClockInit>
    38cc:	88 23       	and	r24, r24
    38ce:	09 f4       	brne	.+2      	; 0x38d2 <main+0x1f8>
    38d0:	4a c0       	rjmp	.+148    	; 0x3966 <main+0x28c>
		usart_printf("\nClock running!");
    38d2:	00 d0       	rcall	.+0      	; 0x38d4 <main+0x1fa>
    38d4:	87 e2       	ldi	r24, 0x27	; 39
    38d6:	94 e0       	ldi	r25, 0x04	; 4
    38d8:	ad b7       	in	r26, 0x3d	; 61
    38da:	be b7       	in	r27, 0x3e	; 62
    38dc:	12 96       	adiw	r26, 0x02	; 2
    38de:	9c 93       	st	X, r25
    38e0:	8e 93       	st	-X, r24
    38e2:	11 97       	sbiw	r26, 0x01	; 1
    38e4:	0e 94 20 19 	call	0x3240	; 0x3240 <usart_printf>
		LCD_verticalScroll("Clock running!");
    38e8:	0f 90       	pop	r0
    38ea:	0f 90       	pop	r0
    38ec:	87 e3       	ldi	r24, 0x37	; 55
    38ee:	94 e0       	ldi	r25, 0x04	; 4
    38f0:	0e 94 15 11 	call	0x222a	; 0x222a <LCD_verticalScroll>

		usart_printf("\nT before sync %d:%d:%d %d %d %d", GetHour(),
    38f4:	0e 94 00 07 	call	0xe00	; 0xe00 <GetHour>
    38f8:	18 2f       	mov	r17, r24
    38fa:	0e 94 25 07 	call	0xe4a	; 0xe4a <GetMinute>
    38fe:	08 2f       	mov	r16, r24
    3900:	0e 94 4a 07 	call	0xe94	; 0xe94 <GetSecond>
    3904:	f8 2e       	mov	r15, r24
    3906:	0e 94 db 06 	call	0xdb6	; 0xdb6 <GetDate>
    390a:	e8 2e       	mov	r14, r24
    390c:	0e 94 b6 06 	call	0xd6c	; 0xd6c <GetMonth>
    3910:	d8 2e       	mov	r13, r24
    3912:	0e 94 a6 06 	call	0xd4c	; 0xd4c <GetYear>
    3916:	ed b7       	in	r30, 0x3d	; 61
    3918:	fe b7       	in	r31, 0x3e	; 62
    391a:	3e 97       	sbiw	r30, 0x0e	; 14
    391c:	0f b6       	in	r0, 0x3f	; 63
    391e:	f8 94       	cli
    3920:	fe bf       	out	0x3e, r31	; 62
    3922:	0f be       	out	0x3f, r0	; 63
    3924:	ed bf       	out	0x3d, r30	; 61
    3926:	31 96       	adiw	r30, 0x01	; 1
    3928:	26 e4       	ldi	r18, 0x46	; 70
    392a:	34 e0       	ldi	r19, 0x04	; 4
    392c:	ad b7       	in	r26, 0x3d	; 61
    392e:	be b7       	in	r27, 0x3e	; 62
    3930:	12 96       	adiw	r26, 0x02	; 2
    3932:	3c 93       	st	X, r19
    3934:	2e 93       	st	-X, r18
    3936:	11 97       	sbiw	r26, 0x01	; 1
    3938:	12 83       	std	Z+2, r17	; 0x02
    393a:	13 82       	std	Z+3, r1	; 0x03
    393c:	04 83       	std	Z+4, r16	; 0x04
    393e:	15 82       	std	Z+5, r1	; 0x05
    3940:	f6 82       	std	Z+6, r15	; 0x06
    3942:	17 82       	std	Z+7, r1	; 0x07
    3944:	e0 86       	std	Z+8, r14	; 0x08
    3946:	11 86       	std	Z+9, r1	; 0x09
    3948:	d2 86       	std	Z+10, r13	; 0x0a
    394a:	13 86       	std	Z+11, r1	; 0x0b
    394c:	84 87       	std	Z+12, r24	; 0x0c
    394e:	15 86       	std	Z+13, r1	; 0x0d
    3950:	0e 94 20 19 	call	0x3240	; 0x3240 <usart_printf>
    3954:	ed b7       	in	r30, 0x3d	; 61
    3956:	fe b7       	in	r31, 0x3e	; 62
    3958:	3e 96       	adiw	r30, 0x0e	; 14
    395a:	0f b6       	in	r0, 0x3f	; 63
    395c:	f8 94       	cli
    395e:	fe bf       	out	0x3e, r31	; 62
    3960:	0f be       	out	0x3f, r0	; 63
    3962:	ed bf       	out	0x3d, r30	; 61
    3964:	11 c0       	rjmp	.+34     	; 0x3988 <main+0x2ae>
				GetMinute(), GetSecond(), GetDate(), GetMonth(), GetYear());

	} else {
		usart_printf("\nClock ERR!");
    3966:	00 d0       	rcall	.+0      	; 0x3968 <main+0x28e>
    3968:	87 e6       	ldi	r24, 0x67	; 103
    396a:	94 e0       	ldi	r25, 0x04	; 4
    396c:	ad b7       	in	r26, 0x3d	; 61
    396e:	be b7       	in	r27, 0x3e	; 62
    3970:	12 96       	adiw	r26, 0x02	; 2
    3972:	9c 93       	st	X, r25
    3974:	8e 93       	st	-X, r24
    3976:	11 97       	sbiw	r26, 0x01	; 1
    3978:	0e 94 20 19 	call	0x3240	; 0x3240 <usart_printf>
		LCD_verticalScroll("Clock ERR!");
    397c:	0f 90       	pop	r0
    397e:	0f 90       	pop	r0
    3980:	83 e7       	ldi	r24, 0x73	; 115
    3982:	94 e0       	ldi	r25, 0x04	; 4
    3984:	0e 94 15 11 	call	0x222a	; 0x222a <LCD_verticalScroll>
	}

	//
	// WIFI
	//
	usart_printf("\ninit wifi");
    3988:	00 d0       	rcall	.+0      	; 0x398a <main+0x2b0>
    398a:	8e e7       	ldi	r24, 0x7E	; 126
    398c:	94 e0       	ldi	r25, 0x04	; 4
    398e:	ed b7       	in	r30, 0x3d	; 61
    3990:	fe b7       	in	r31, 0x3e	; 62
    3992:	92 83       	std	Z+2, r25	; 0x02
    3994:	81 83       	std	Z+1, r24	; 0x01
    3996:	0e 94 20 19 	call	0x3240	; 0x3240 <usart_printf>
	lcd_gotoxy(2, 2);
    399a:	0f 90       	pop	r0
    399c:	0f 90       	pop	r0
    399e:	82 e0       	ldi	r24, 0x02	; 2
    39a0:	62 e0       	ldi	r22, 0x02	; 2
    39a2:	0e 94 47 14 	call	0x288e	; 0x288e <lcd_gotoxy>
	LCD_verticalScroll("WiFi connect...");
    39a6:	89 e8       	ldi	r24, 0x89	; 137
    39a8:	94 e0       	ldi	r25, 0x04	; 4
    39aa:	0e 94 15 11 	call	0x222a	; 0x222a <LCD_verticalScroll>

	if (wifi_connect()) {
    39ae:	0e 94 35 0a 	call	0x146a	; 0x146a <wifi_connect>
    39b2:	88 23       	and	r24, r24
    39b4:	79 f1       	breq	.+94     	; 0x3a14 <main+0x33a>
		LCD_verticalScroll("...OK");
    39b6:	89 e9       	ldi	r24, 0x99	; 153
    39b8:	94 e0       	ldi	r25, 0x04	; 4
    39ba:	0e 94 15 11 	call	0x222a	; 0x222a <LCD_verticalScroll>
		LCD_verticalScroll("Time Syncing...");
    39be:	8f e9       	ldi	r24, 0x9F	; 159
    39c0:	94 e0       	ldi	r25, 0x04	; 4
    39c2:	0e 94 15 11 	call	0x222a	; 0x222a <LCD_verticalScroll>
		if (get_internetTime(true)) {
    39c6:	81 e0       	ldi	r24, 0x01	; 1
    39c8:	0e 94 b9 0b 	call	0x1772	; 0x1772 <get_internetTime>
    39cc:	88 23       	and	r24, r24
    39ce:	91 f0       	breq	.+36     	; 0x39f4 <main+0x31a>
			usart_printf("\nTime Synced> ");
    39d0:	00 d0       	rcall	.+0      	; 0x39d2 <main+0x2f8>
    39d2:	8f ea       	ldi	r24, 0xAF	; 175
    39d4:	94 e0       	ldi	r25, 0x04	; 4
    39d6:	ad b7       	in	r26, 0x3d	; 61
    39d8:	be b7       	in	r27, 0x3e	; 62
    39da:	12 96       	adiw	r26, 0x02	; 2
    39dc:	9c 93       	st	X, r25
    39de:	8e 93       	st	-X, r24
    39e0:	11 97       	sbiw	r26, 0x01	; 1
    39e2:	0e 94 20 19 	call	0x3240	; 0x3240 <usart_printf>
			LCD_verticalScroll("...OK"); //lcd_printf("%s", "OK");
    39e6:	0f 90       	pop	r0
    39e8:	0f 90       	pop	r0
    39ea:	89 e9       	ldi	r24, 0x99	; 153
    39ec:	94 e0       	ldi	r25, 0x04	; 4
    39ee:	0e 94 15 11 	call	0x222a	; 0x222a <LCD_verticalScroll>
    39f2:	22 c0       	rjmp	.+68     	; 0x3a38 <main+0x35e>
		} else {
			usart_printf("\nTime Sync ERROR!");
    39f4:	00 d0       	rcall	.+0      	; 0x39f6 <main+0x31c>
    39f6:	8e eb       	ldi	r24, 0xBE	; 190
    39f8:	94 e0       	ldi	r25, 0x04	; 4
    39fa:	ed b7       	in	r30, 0x3d	; 61
    39fc:	fe b7       	in	r31, 0x3e	; 62
    39fe:	92 83       	std	Z+2, r25	; 0x02
    3a00:	81 83       	std	Z+1, r24	; 0x01
    3a02:	0e 94 20 19 	call	0x3240	; 0x3240 <usart_printf>
			LCD_verticalScroll("...ERROR"); //lcd_printf("%s", "ERROR");
    3a06:	0f 90       	pop	r0
    3a08:	0f 90       	pop	r0
    3a0a:	80 ed       	ldi	r24, 0xD0	; 208
    3a0c:	94 e0       	ldi	r25, 0x04	; 4
    3a0e:	0e 94 15 11 	call	0x222a	; 0x222a <LCD_verticalScroll>
    3a12:	0d c0       	rjmp	.+26     	; 0x3a2e <main+0x354>
			LED_RED_ON;
		}
	} else {
		LCD_verticalScroll("...Error");
    3a14:	89 ed       	ldi	r24, 0xD9	; 217
    3a16:	94 e0       	ldi	r25, 0x04	; 4
    3a18:	0e 94 15 11 	call	0x222a	; 0x222a <LCD_verticalScroll>
		loc_measuredData.wifiErr++;
    3a1c:	80 91 c9 07 	lds	r24, 0x07C9
    3a20:	90 91 ca 07 	lds	r25, 0x07CA
    3a24:	01 96       	adiw	r24, 0x01	; 1
    3a26:	90 93 ca 07 	sts	0x07CA, r25
    3a2a:	80 93 c9 07 	sts	0x07C9, r24
		LED_RED_ON;
    3a2e:	80 91 62 00 	lds	r24, 0x0062
    3a32:	80 61       	ori	r24, 0x10	; 16
    3a34:	80 93 62 00 	sts	0x0062, r24
//	}

	//
	//timer
	//
	timers_init();
    3a38:	0e 94 9b 09 	call	0x1336	; 0x1336 <timers_init>
	LCD_verticalScroll("Timer GO");
    3a3c:	82 ee       	ldi	r24, 0xE2	; 226
    3a3e:	94 e0       	ldi	r25, 0x04	; 4
    3a40:	0e 94 15 11 	call	0x222a	; 0x222a <LCD_verticalScroll>

	LED_STB_LVL = 255;
    3a44:	8f ef       	ldi	r24, 0xFF	; 255
    3a46:	90 e0       	ldi	r25, 0x00	; 0
    3a48:	90 93 85 00 	sts	0x0085, r25
    3a4c:	80 93 84 00 	sts	0x0084, r24

	//
	//NIXIE
	//
	config_io_nixie();
    3a50:	0e 94 e3 14 	call	0x29c6	; 0x29c6 <config_io_nixie>

	//
	// NRF radio
	//
	nrf24l01_init();
    3a54:	0e 94 27 18 	call	0x304e	; 0x304e <nrf24l01_init>
	spi_init();
    3a58:	0e 94 67 18 	call	0x30ce	; 0x30ce <spi_init>
	memset(bufferin, 0, sizeof(bufferin));
    3a5c:	80 e2       	ldi	r24, 0x20	; 32
    3a5e:	e0 eb       	ldi	r30, 0xB0	; 176
    3a60:	f9 e0       	ldi	r31, 0x09	; 9
    3a62:	df 01       	movw	r26, r30
    3a64:	1d 92       	st	X+, r1
    3a66:	8a 95       	dec	r24
    3a68:	e9 f7       	brne	.-6      	; 0x3a64 <main+0x38a>
	usart_printf("\nNRF inited...");
    3a6a:	00 d0       	rcall	.+0      	; 0x3a6c <main+0x392>
    3a6c:	8b ee       	ldi	r24, 0xEB	; 235
    3a6e:	94 e0       	ldi	r25, 0x04	; 4
    3a70:	ed b7       	in	r30, 0x3d	; 61
    3a72:	fe b7       	in	r31, 0x3e	; 62
    3a74:	92 83       	std	Z+2, r25	; 0x02
    3a76:	81 83       	std	Z+1, r24	; 0x01
    3a78:	0e 94 20 19 	call	0x3240	; 0x3240 <usart_printf>
	LCD_verticalScroll("Radio inited");
    3a7c:	0f 90       	pop	r0
    3a7e:	0f 90       	pop	r0
    3a80:	8a ef       	ldi	r24, 0xFA	; 250
    3a82:	94 e0       	ldi	r25, 0x04	; 4
    3a84:	0e 94 15 11 	call	0x222a	; 0x222a <LCD_verticalScroll>

	//
	//INTERRUPT
	//
	EIMSK |= (1 << INT7) | (1 << INT5) | (1 << INT6);
    3a88:	89 b7       	in	r24, 0x39	; 57
    3a8a:	80 6e       	ori	r24, 0xE0	; 224
    3a8c:	89 bf       	out	0x39, r24	; 57
	EICRB |= (1 << ISC71) | (1 << ISC50) | (1 << ISC51) | (1 << ISC60)
    3a8e:	8a b7       	in	r24, 0x3a	; 58
    3a90:	8c 6b       	ori	r24, 0xBC	; 188
    3a92:	8a bf       	out	0x3a, r24	; 58
			| (1 << ISC61); //button rising edge

	set_nixie_rgb(0, 0, 0);
    3a94:	80 e0       	ldi	r24, 0x00	; 0
    3a96:	90 e0       	ldi	r25, 0x00	; 0
    3a98:	60 e0       	ldi	r22, 0x00	; 0
    3a9a:	70 e0       	ldi	r23, 0x00	; 0
    3a9c:	40 e0       	ldi	r20, 0x00	; 0
    3a9e:	50 e0       	ldi	r21, 0x00	; 0
    3aa0:	0e 94 f0 14 	call	0x29e0	; 0x29e0 <set_nixie_rgb>
	nixie_suppy(0);
    3aa4:	80 e0       	ldi	r24, 0x00	; 0
    3aa6:	0e 94 c0 15 	call	0x2b80	; 0x2b80 <nixie_suppy>
	usart_printf("\nNixie Supply enabled...");
    3aaa:	00 d0       	rcall	.+0      	; 0x3aac <main+0x3d2>
    3aac:	87 e0       	ldi	r24, 0x07	; 7
    3aae:	95 e0       	ldi	r25, 0x05	; 5
    3ab0:	ad b7       	in	r26, 0x3d	; 61
    3ab2:	be b7       	in	r27, 0x3e	; 62
    3ab4:	12 96       	adiw	r26, 0x02	; 2
    3ab6:	9c 93       	st	X, r25
    3ab8:	8e 93       	st	-X, r24
    3aba:	11 97       	sbiw	r26, 0x01	; 1
    3abc:	0e 94 20 19 	call	0x3240	; 0x3240 <usart_printf>
	LCD_verticalScroll("Nixies ON");
    3ac0:	0f 90       	pop	r0
    3ac2:	0f 90       	pop	r0
    3ac4:	80 e2       	ldi	r24, 0x20	; 32
    3ac6:	95 e0       	ldi	r25, 0x05	; 5
    3ac8:	0e 94 15 11 	call	0x222a	; 0x222a <LCD_verticalScroll>

	//
	// ADC
	//
	init_ADC();
    3acc:	0e 94 d7 09 	call	0x13ae	; 0x13ae <init_ADC>
	usart_printf("\nADC inited...");
    3ad0:	00 d0       	rcall	.+0      	; 0x3ad2 <main+0x3f8>
    3ad2:	8a e2       	ldi	r24, 0x2A	; 42
    3ad4:	95 e0       	ldi	r25, 0x05	; 5
    3ad6:	ed b7       	in	r30, 0x3d	; 61
    3ad8:	fe b7       	in	r31, 0x3e	; 62
    3ada:	92 83       	std	Z+2, r25	; 0x02
    3adc:	81 83       	std	Z+1, r24	; 0x01
    3ade:	0e 94 20 19 	call	0x3240	; 0x3240 <usart_printf>
	LCD_verticalScroll("ADC");
    3ae2:	0f 90       	pop	r0
    3ae4:	0f 90       	pop	r0
    3ae6:	89 e3       	ldi	r24, 0x39	; 57
    3ae8:	95 e0       	ldi	r25, 0x05	; 5
    3aea:	0e 94 15 11 	call	0x222a	; 0x222a <LCD_verticalScroll>

	dht_gettemperaturehumidity(&temperature, &humidity);
    3aee:	ce 01       	movw	r24, r28
    3af0:	0a 96       	adiw	r24, 0x0a	; 10
    3af2:	be 01       	movw	r22, r28
    3af4:	62 5f       	subi	r22, 0xF2	; 242
    3af6:	7f 4f       	sbci	r23, 0xFF	; 255
    3af8:	0e 94 12 09 	call	0x1224	; 0x1224 <dht_gettemperaturehumidity>
	usart_printf("\nDHT inited...");
    3afc:	00 d0       	rcall	.+0      	; 0x3afe <main+0x424>
    3afe:	8d e3       	ldi	r24, 0x3D	; 61
    3b00:	95 e0       	ldi	r25, 0x05	; 5
    3b02:	ad b7       	in	r26, 0x3d	; 61
    3b04:	be b7       	in	r27, 0x3e	; 62
    3b06:	12 96       	adiw	r26, 0x02	; 2
    3b08:	9c 93       	st	X, r25
    3b0a:	8e 93       	st	-X, r24
    3b0c:	11 97       	sbiw	r26, 0x01	; 1
    3b0e:	0e 94 20 19 	call	0x3240	; 0x3240 <usart_printf>
	LCD_verticalScroll("DHT inited");
    3b12:	0f 90       	pop	r0
    3b14:	0f 90       	pop	r0
    3b16:	8c e4       	ldi	r24, 0x4C	; 76
    3b18:	95 e0       	ldi	r25, 0x05	; 5
    3b1a:	0e 94 15 11 	call	0x222a	; 0x222a <LCD_verticalScroll>

	if (BUTTON1_PRESS) {
    3b1e:	0d 9b       	sbis	0x01, 5	; 1
    3b20:	42 c0       	rjmp	.+132    	; 0x3ba6 <main+0x4cc>
		//maintanance mode
		lcd_clrscr();
    3b22:	0e 94 5b 14 	call	0x28b6	; 0x28b6 <lcd_clrscr>
		lcd_printf("%s", "  SERVICE MODE");
    3b26:	00 d0       	rcall	.+0      	; 0x3b28 <main+0x44e>
    3b28:	00 d0       	rcall	.+0      	; 0x3b2a <main+0x450>
    3b2a:	87 e5       	ldi	r24, 0x57	; 87
    3b2c:	95 e0       	ldi	r25, 0x05	; 5
    3b2e:	ed b7       	in	r30, 0x3d	; 61
    3b30:	fe b7       	in	r31, 0x3e	; 62
    3b32:	92 83       	std	Z+2, r25	; 0x02
    3b34:	81 83       	std	Z+1, r24	; 0x01
    3b36:	8a e5       	ldi	r24, 0x5A	; 90
    3b38:	95 e0       	ldi	r25, 0x05	; 5
    3b3a:	94 83       	std	Z+4, r25	; 0x04
    3b3c:	83 83       	std	Z+3, r24	; 0x03
    3b3e:	0e 94 e7 10 	call	0x21ce	; 0x21ce <lcd_printf>
		usart_printf("\nSERVICE MODE");
    3b42:	0f 90       	pop	r0
    3b44:	0f 90       	pop	r0
    3b46:	89 e6       	ldi	r24, 0x69	; 105
    3b48:	95 e0       	ldi	r25, 0x05	; 5
    3b4a:	ad b7       	in	r26, 0x3d	; 61
    3b4c:	be b7       	in	r27, 0x3e	; 62
    3b4e:	12 96       	adiw	r26, 0x02	; 2
    3b50:	9c 93       	st	X, r25
    3b52:	8e 93       	st	-X, r24
    3b54:	11 97       	sbiw	r26, 0x01	; 1
    3b56:	0e 94 20 19 	call	0x3240	; 0x3240 <usart_printf>
		servoce_mode = true;
    3b5a:	81 e0       	ldi	r24, 0x01	; 1
    3b5c:	80 93 2e 07 	sts	0x072E, r24

		init_USART_DEB(MYUBRR_DEB);
    3b60:	0f 90       	pop	r0
    3b62:	0f 90       	pop	r0
    3b64:	89 e1       	ldi	r24, 0x19	; 25
    3b66:	90 e0       	ldi	r25, 0x00	; 0
    3b68:	0e 94 80 18 	call	0x3100	; 0x3100 <init_USART_DEB>
		usart_printf("\nMCUCSR:%d ", MCUCSR);
    3b6c:	24 b7       	in	r18, 0x34	; 52
    3b6e:	00 d0       	rcall	.+0      	; 0x3b70 <main+0x496>
    3b70:	00 d0       	rcall	.+0      	; 0x3b72 <main+0x498>
    3b72:	ed b7       	in	r30, 0x3d	; 61
    3b74:	fe b7       	in	r31, 0x3e	; 62
    3b76:	31 96       	adiw	r30, 0x01	; 1
    3b78:	87 e7       	ldi	r24, 0x77	; 119
    3b7a:	95 e0       	ldi	r25, 0x05	; 5
    3b7c:	ad b7       	in	r26, 0x3d	; 61
    3b7e:	be b7       	in	r27, 0x3e	; 62
    3b80:	12 96       	adiw	r26, 0x02	; 2
    3b82:	9c 93       	st	X, r25
    3b84:	8e 93       	st	-X, r24
    3b86:	11 97       	sbiw	r26, 0x01	; 1
    3b88:	22 83       	std	Z+2, r18	; 0x02
    3b8a:	13 82       	std	Z+3, r1	; 0x03
    3b8c:	0e 94 20 19 	call	0x3240	; 0x3240 <usart_printf>
    3b90:	0f 90       	pop	r0
    3b92:	0f 90       	pop	r0
    3b94:	0f 90       	pop	r0
    3b96:	0f 90       	pop	r0
//			lcd_printf("%s", "ERROR");
//			LED_RED_ON;
//		}

		while (1) {
			if (wasrx_uart_deb) {
    3b98:	80 91 1e 07 	lds	r24, 0x071E
    3b9c:	88 23       	and	r24, r24
    3b9e:	e1 f3       	breq	.-8      	; 0x3b98 <main+0x4be>
				process_uartin();
    3ba0:	0e 94 6b 13 	call	0x26d6	; 0x26d6 <process_uartin>
    3ba4:	f9 cf       	rjmp	.-14     	; 0x3b98 <main+0x4be>
			}
		}
	}

	memcpy(&ext_measuredData.ext1_temp, " ? ?", 4);
    3ba6:	80 e2       	ldi	r24, 0x20	; 32
    3ba8:	9f e3       	ldi	r25, 0x3F	; 63
    3baa:	a0 e2       	ldi	r26, 0x20	; 32
    3bac:	bf e3       	ldi	r27, 0x3F	; 63
    3bae:	80 93 9b 07 	sts	0x079B, r24
    3bb2:	90 93 9c 07 	sts	0x079C, r25
    3bb6:	a0 93 9d 07 	sts	0x079D, r26
    3bba:	b0 93 9e 07 	sts	0x079E, r27
	memcpy(&ext_measuredData.ext1_hum, " ? ?", 4);
    3bbe:	80 93 a0 07 	sts	0x07A0, r24
    3bc2:	90 93 a1 07 	sts	0x07A1, r25
    3bc6:	a0 93 a2 07 	sts	0x07A2, r26
    3bca:	b0 93 a3 07 	sts	0x07A3, r27
	memcpy(&ext_measuredData.ext1_airpressure, " ? ? ?", 6);
    3bce:	a5 ea       	ldi	r26, 0xA5	; 165
    3bd0:	b7 e0       	ldi	r27, 0x07	; 7
    3bd2:	e3 e8       	ldi	r30, 0x83	; 131
    3bd4:	f5 e0       	ldi	r31, 0x05	; 5
    3bd6:	86 e0       	ldi	r24, 0x06	; 6
    3bd8:	01 90       	ld	r0, Z+
    3bda:	0d 92       	st	X+, r0
    3bdc:	81 50       	subi	r24, 0x01	; 1
    3bde:	e1 f7       	brne	.-8      	; 0x3bd8 <main+0x4fe>
	memcpy(&ext_measuredData.ext1_lux, "? ? ?", 5);
    3be0:	ac ea       	ldi	r26, 0xAC	; 172
    3be2:	b7 e0       	ldi	r27, 0x07	; 7
    3be4:	ea e8       	ldi	r30, 0x8A	; 138
    3be6:	f5 e0       	ldi	r31, 0x05	; 5
    3be8:	85 e0       	ldi	r24, 0x05	; 5
    3bea:	01 90       	ld	r0, Z+
    3bec:	0d 92       	st	X+, r0
    3bee:	81 50       	subi	r24, 0x01	; 1
    3bf0:	e1 f7       	brne	.-8      	; 0x3bea <main+0x510>
	memcpy(&ext_measuredData.ext1_batt, "? ? ?", 5);
    3bf2:	a7 eb       	ldi	r26, 0xB7	; 183
    3bf4:	b7 e0       	ldi	r27, 0x07	; 7
    3bf6:	ea e8       	ldi	r30, 0x8A	; 138
    3bf8:	f5 e0       	ldi	r31, 0x05	; 5
    3bfa:	85 e0       	ldi	r24, 0x05	; 5
    3bfc:	01 90       	ld	r0, Z+
    3bfe:	0d 92       	st	X+, r0
    3c00:	81 50       	subi	r24, 0x01	; 1
    3c02:	e1 f7       	brne	.-8      	; 0x3bfc <main+0x522>
	memcpy(&ext_measuredData.ext1_rain, "1000", 4);
    3c04:	81 e3       	ldi	r24, 0x31	; 49
    3c06:	90 e3       	ldi	r25, 0x30	; 48
    3c08:	a0 e3       	ldi	r26, 0x30	; 48
    3c0a:	b0 e3       	ldi	r27, 0x30	; 48
    3c0c:	80 93 b2 07 	sts	0x07B2, r24
    3c10:	90 93 b3 07 	sts	0x07B3, r25
    3c14:	a0 93 b4 07 	sts	0x07B4, r26
    3c18:	b0 93 b5 07 	sts	0x07B5, r27
	LED_YELLOW_ON;
    3c1c:	80 91 62 00 	lds	r24, 0x0062
    3c20:	81 60       	ori	r24, 0x01	; 1
    3c22:	80 93 62 00 	sts	0x0062, r24
	//while (1)
	//	;

	button_enable_show_maintanance = false;

	LCD_verticalScroll("-- ALL DONE --");
    3c26:	80 e9       	ldi	r24, 0x90	; 144
    3c28:	95 e0       	ldi	r25, 0x05	; 5
    3c2a:	0e 94 15 11 	call	0x222a	; 0x222a <LCD_verticalScroll>
    3c2e:	aa 24       	eor	r10, r10
    3c30:	33 24       	eor	r3, r3
    3c32:	1e a2       	std	Y+38, r1	; 0x26
    3c34:	b1 e0       	ldi	r27, 0x01	; 1
    3c36:	bd a3       	std	Y+37, r27	; 0x25
    3c38:	1c a2       	std	Y+36, r1	; 0x24
    3c3a:	1b a2       	std	Y+35, r1	; 0x23
    3c3c:	22 24       	eor	r2, r2
    3c3e:	23 94       	inc	r2
    3c40:	33 e3       	ldi	r19, 0x33	; 51
    3c42:	63 2e       	mov	r6, r19
    3c44:	71 2c       	mov	r7, r1
    3c46:	81 2c       	mov	r8, r1
    3c48:	91 2c       	mov	r9, r1
    3c4a:	ba a3       	std	Y+34, r27	; 0x22
    3c4c:	cc 24       	eor	r12, r12
    3c4e:	dd 24       	eor	r13, r13
    3c50:	76 01       	movw	r14, r12
    3c52:	19 a2       	std	Y+33, r1	; 0x21
    3c54:	18 a2       	std	Y+32, r1	; 0x20
    3c56:	bb 24       	eor	r11, r11
    3c58:	b3 94       	inc	r11
					char time[] = { 'x', 'x', 'x', htmp[0], htmp[1], 'x',
							mtmp[0], mtmp[1], 'x', stmp[0], stmp[1], 'x', 'x',
							'x', };

					//for (uint8_t k = 0; k < 2; k++) {
					for (uint8_t n = 0; n < 12; n++) {
    3c5a:	fe 01       	movw	r30, r28
    3c5c:	7e 96       	adiw	r30, 0x1e	; 30
    3c5e:	f8 a7       	std	Y+40, r31	; 0x28
    3c60:	ef a3       	std	Y+39, r30	; 0x27
	button_enable_show_maintanance = false;

	LCD_verticalScroll("-- ALL DONE --");
//////////////////////////////////////////////////////////////////////////
	while (1) {
		LED_DEB_TOGGLE; //we are alive
    3c62:	8b b3       	in	r24, 0x1b	; 27
    3c64:	80 58       	subi	r24, 0x80	; 128
    3c66:	8b bb       	out	0x1b, r24	; 27

		if (wasrx_uart_eth) {
    3c68:	80 91 1f 07 	lds	r24, 0x071F
    3c6c:	88 23       	and	r24, r24
    3c6e:	d1 f0       	breq	.+52     	; 0x3ca4 <main+0x5ca>
			usart_printf("\n %s", &rx_buffer_eth);
    3c70:	00 d0       	rcall	.+0      	; 0x3c72 <main+0x598>
    3c72:	00 d0       	rcall	.+0      	; 0x3c74 <main+0x59a>
    3c74:	ef e9       	ldi	r30, 0x9F	; 159
    3c76:	f5 e0       	ldi	r31, 0x05	; 5
    3c78:	ad b7       	in	r26, 0x3d	; 61
    3c7a:	be b7       	in	r27, 0x3e	; 62
    3c7c:	12 96       	adiw	r26, 0x02	; 2
    3c7e:	fc 93       	st	X, r31
    3c80:	ee 93       	st	-X, r30
    3c82:	11 97       	sbiw	r26, 0x01	; 1
    3c84:	2e ee       	ldi	r18, 0xEE	; 238
    3c86:	37 e0       	ldi	r19, 0x07	; 7
    3c88:	14 96       	adiw	r26, 0x04	; 4
    3c8a:	3c 93       	st	X, r19
    3c8c:	2e 93       	st	-X, r18
    3c8e:	13 97       	sbiw	r26, 0x03	; 3
    3c90:	0e 94 20 19 	call	0x3240	; 0x3240 <usart_printf>
			wasrx_uart_eth = 0;
    3c94:	10 92 1f 07 	sts	0x071F, r1
			reset_rxbuffer_eth();
    3c98:	0f 90       	pop	r0
    3c9a:	0f 90       	pop	r0
    3c9c:	0f 90       	pop	r0
    3c9e:	0f 90       	pop	r0
    3ca0:	0e 94 be 18 	call	0x317c	; 0x317c <reset_rxbuffer_eth>
		}

		switch (mainStateNext) {
    3ca4:	80 91 21 07 	lds	r24, 0x0721
    3ca8:	81 30       	cpi	r24, 0x01	; 1
    3caa:	31 f0       	breq	.+12     	; 0x3cb8 <main+0x5de>
    3cac:	81 30       	cpi	r24, 0x01	; 1
    3cae:	08 f4       	brcc	.+2      	; 0x3cb2 <main+0x5d8>
    3cb0:	dd c3       	rjmp	.+1978   	; 0x446c <main+0xd92>
    3cb2:	82 30       	cpi	r24, 0x02	; 2
    3cb4:	b1 f6       	brne	.-84     	; 0x3c62 <main+0x588>
    3cb6:	b9 c3       	rjmp	.+1906   	; 0x442a <main+0xd50>

		case PERIODIC:
#if PRINT_STATES==1
			usart_printf("\nPERIODIC");
#endif
			switch (periodicTasks) {
    3cb8:	80 91 23 07 	lds	r24, 0x0723
    3cbc:	82 30       	cpi	r24, 0x02	; 2
    3cbe:	09 f4       	brne	.+2      	; 0x3cc2 <main+0x5e8>
    3cc0:	2b c2       	rjmp	.+1110   	; 0x4118 <main+0xa3e>
    3cc2:	83 30       	cpi	r24, 0x03	; 3
    3cc4:	30 f4       	brcc	.+12     	; 0x3cd2 <main+0x5f8>
    3cc6:	88 23       	and	r24, r24
    3cc8:	09 f4       	brne	.+2      	; 0x3ccc <main+0x5f2>
    3cca:	3a c1       	rjmp	.+628    	; 0x3f40 <main+0x866>
    3ccc:	81 30       	cpi	r24, 0x01	; 1
    3cce:	49 f6       	brne	.-110    	; 0x3c62 <main+0x588>
    3cd0:	41 c2       	rjmp	.+1154   	; 0x4154 <main+0xa7a>
    3cd2:	84 30       	cpi	r24, 0x04	; 4
    3cd4:	09 f4       	brne	.+2      	; 0x3cd8 <main+0x5fe>
    3cd6:	e3 c0       	rjmp	.+454    	; 0x3e9e <main+0x7c4>
    3cd8:	84 30       	cpi	r24, 0x04	; 4
    3cda:	18 f0       	brcs	.+6      	; 0x3ce2 <main+0x608>
    3cdc:	85 30       	cpi	r24, 0x05	; 5
    3cde:	09 f6       	brne	.-126    	; 0x3c62 <main+0x588>
    3ce0:	2b c1       	rjmp	.+598    	; 0x3f38 <main+0x85e>

			case REFRESHRATE_WAIT:
#if PRINT_STATES==1
				usart_printf("\nREFRESHRATE_WAIT");
#endif
				if (timeout >= (REFRESH_RATE_SYSTEM * 10))
    3ce2:	3d e1       	ldi	r19, 0x1D	; 29
    3ce4:	3a 15       	cp	r19, r10
    3ce6:	08 f4       	brcc	.+2      	; 0x3cea <main+0x610>
    3ce8:	aa 24       	eor	r10, r10
    3cea:	88 ee       	ldi	r24, 0xE8	; 232
    3cec:	93 e0       	ldi	r25, 0x03	; 3
    3cee:	e0 e9       	ldi	r30, 0x90	; 144
    3cf0:	f1 e0       	ldi	r31, 0x01	; 1
    3cf2:	31 97       	sbiw	r30, 0x01	; 1
    3cf4:	f1 f7       	brne	.-4      	; 0x3cf2 <main+0x618>
		{
			// wait 1/10 ms
			_delay_loop_2(((F_CPU) / 4e3) / 10);
			__ticks --;
    3cf6:	01 97       	sbiw	r24, 0x01	; 1
		__ticks = 1;
	else if (__tmp > 65535)
	{
		//	__ticks = requested delay in 1/10 ms
		__ticks = (uint16_t) (__ms * 10.0);
		while(__ticks)
    3cf8:	d1 f7       	brne	.-12     	; 0x3cee <main+0x614>
					timeout = 0;
				//while (timeout != 0 && !was_sysctrl_int) {
				_delay_ms(REFRESH_RATE_CTRL);
				timeout++;
    3cfa:	a3 94       	inc	r10

				if (was_sysctrl_int) {
    3cfc:	80 91 2c 07 	lds	r24, 0x072C
    3d00:	88 23       	and	r24, r24
    3d02:	31 f0       	breq	.+12     	; 0x3d10 <main+0x636>
					CLR_SYSCTRL_INT;
    3d04:	10 92 2c 07 	sts	0x072C, r1
					mainStateNext = NONPERIODIC;
    3d08:	82 e0       	ldi	r24, 0x02	; 2
    3d0a:	80 93 21 07 	sts	0x0721, r24
    3d0e:	a9 cf       	rjmp	.-174    	; 0x3c62 <main+0x588>
					break;
				}

				if (!motion_enable_lcd) {
    3d10:	8a a1       	ldd	r24, Y+34	; 0x22
    3d12:	88 23       	and	r24, r24
    3d14:	09 f5       	brne	.+66     	; 0x3d58 <main+0x67e>
					if (stb_led_up) {
    3d16:	98 a1       	ldd	r25, Y+32	; 0x20
    3d18:	99 23       	and	r25, r25
    3d1a:	79 f0       	breq	.+30     	; 0x3d3a <main+0x660>
						if (LED_STB_LVL < 200)
    3d1c:	80 91 84 00 	lds	r24, 0x0084
    3d20:	90 91 85 00 	lds	r25, 0x0085
    3d24:	88 3c       	cpi	r24, 0xC8	; 200
    3d26:	91 05       	cpc	r25, r1
    3d28:	10 f0       	brcs	.+4      	; 0x3d2e <main+0x654>
    3d2a:	18 a2       	std	Y+32, r1	; 0x20
    3d2c:	1b c0       	rjmp	.+54     	; 0x3d64 <main+0x68a>
							LED_STB_LVL += 5;
    3d2e:	80 91 84 00 	lds	r24, 0x0084
    3d32:	90 91 85 00 	lds	r25, 0x0085
    3d36:	05 96       	adiw	r24, 0x05	; 5
    3d38:	11 c0       	rjmp	.+34     	; 0x3d5c <main+0x682>
						else
							stb_led_up = false;
					} else {
						if (LED_STB_LVL >= 6)
    3d3a:	80 91 84 00 	lds	r24, 0x0084
    3d3e:	90 91 85 00 	lds	r25, 0x0085
    3d42:	06 97       	sbiw	r24, 0x06	; 6
    3d44:	18 f4       	brcc	.+6      	; 0x3d4c <main+0x672>
    3d46:	a1 e0       	ldi	r26, 0x01	; 1
    3d48:	a8 a3       	std	Y+32, r26	; 0x20
    3d4a:	0c c0       	rjmp	.+24     	; 0x3d64 <main+0x68a>
							LED_STB_LVL -= 5;
    3d4c:	80 91 84 00 	lds	r24, 0x0084
    3d50:	90 91 85 00 	lds	r25, 0x0085
    3d54:	05 97       	sbiw	r24, 0x05	; 5
    3d56:	02 c0       	rjmp	.+4      	; 0x3d5c <main+0x682>
						else
							stb_led_up = true;
					}
				} else {
					LED_STB_LVL = 255;
    3d58:	8f ef       	ldi	r24, 0xFF	; 255
    3d5a:	90 e0       	ldi	r25, 0x00	; 0
    3d5c:	90 93 85 00 	sts	0x0085, r25
    3d60:	80 93 84 00 	sts	0x0084, r24
				}

				if (timeout == 2) {
    3d64:	b2 e0       	ldi	r27, 0x02	; 2
    3d66:	ab 16       	cp	r10, r27
    3d68:	11 f4       	brne	.+4      	; 0x3d6e <main+0x694>
					periodicTasks = CLOCK;
    3d6a:	84 e0       	ldi	r24, 0x04	; 4
    3d6c:	5b c3       	rjmp	.+1718   	; 0x4424 <main+0xd4a>
					//usart_printf("\nmeas");
				}

				if (timeout == 5) {
    3d6e:	e5 e0       	ldi	r30, 0x05	; 5
    3d70:	ae 16       	cp	r10, r30
    3d72:	19 f4       	brne	.+6      	; 0x3d7a <main+0x6a0>
					periodicTasks = MEASURE;
    3d74:	10 92 23 07 	sts	0x0723, r1
    3d78:	74 cf       	rjmp	.-280    	; 0x3c62 <main+0x588>
					//usart_printf("\nmeas");
				}

				if (timeout == 10) {
    3d7a:	fa e0       	ldi	r31, 0x0A	; 10
    3d7c:	af 16       	cp	r10, r31
    3d7e:	61 f4       	brne	.+24     	; 0x3d98 <main+0x6be>
					periodicTasks = DISPLAY_LCD;
    3d80:	82 e0       	ldi	r24, 0x02	; 2
    3d82:	80 93 23 07 	sts	0x0723, r24
					if (!PIR_active)
    3d86:	22 20       	and	r2, r2
    3d88:	09 f0       	breq	.+2      	; 0x3d8c <main+0x6b2>
    3d8a:	6b cf       	rjmp	.-298    	; 0x3c62 <main+0x588>
						motion_enable_nixies_cnt++;
    3d8c:	08 94       	sec
    3d8e:	61 1c       	adc	r6, r1
    3d90:	71 1c       	adc	r7, r1
    3d92:	81 1c       	adc	r8, r1
    3d94:	91 1c       	adc	r9, r1
    3d96:	65 cf       	rjmp	.-310    	; 0x3c62 <main+0x588>
				}

				if (timeout == 15) {
    3d98:	2f e0       	ldi	r18, 0x0F	; 15
    3d9a:	a2 16       	cp	r10, r18
    3d9c:	59 f4       	brne	.+22     	; 0x3db4 <main+0x6da>
					web_refresh_cnt++;
    3d9e:	39 a1       	ldd	r19, Y+33	; 0x21
    3da0:	3f 5f       	subi	r19, 0xFF	; 255
    3da2:	39 a3       	std	Y+33, r19	; 0x21
					if (web_refresh_cnt == WEB_UPDATE_LIMIT) {
    3da4:	38 32       	cpi	r19, 0x28	; 40
    3da6:	09 f0       	breq	.+2      	; 0x3daa <main+0x6d0>
    3da8:	5c cf       	rjmp	.-328    	; 0x3c62 <main+0x588>
						periodicTasks = WEB_UPDATE;
    3daa:	85 e0       	ldi	r24, 0x05	; 5
    3dac:	80 93 23 07 	sts	0x0723, r24
    3db0:	19 a2       	std	Y+33, r1	; 0x21
    3db2:	57 cf       	rjmp	.-338    	; 0x3c62 <main+0x588>
						web_refresh_cnt = 0;
					}
				}

				if (timeout == 20) {
    3db4:	84 e1       	ldi	r24, 0x14	; 20
    3db6:	a8 16       	cp	r10, r24
    3db8:	09 f0       	breq	.+2      	; 0x3dbc <main+0x6e2>
    3dba:	53 cf       	rjmp	.-346    	; 0x3c62 <main+0x588>

					//
					// if motion detected
					//
					if (PIR_PINNAME & (1 << PIR_PIN)) {
    3dbc:	02 9b       	sbis	0x00, 2	; 0
    3dbe:	15 c0       	rjmp	.+42     	; 0x3dea <main+0x710>
						PIR_active = true;
						usart_printf("\nPIR act");
    3dc0:	00 d0       	rcall	.+0      	; 0x3dc2 <main+0x6e8>
    3dc2:	e4 ea       	ldi	r30, 0xA4	; 164
    3dc4:	f5 e0       	ldi	r31, 0x05	; 5
    3dc6:	ad b7       	in	r26, 0x3d	; 61
    3dc8:	be b7       	in	r27, 0x3e	; 62
    3dca:	12 96       	adiw	r26, 0x02	; 2
    3dcc:	fc 93       	st	X, r31
    3dce:	ee 93       	st	-X, r30
    3dd0:	11 97       	sbiw	r26, 0x01	; 1
    3dd2:	0e 94 20 19 	call	0x3240	; 0x3240 <usart_printf>
						DISP_BACKLIGHT = LCD_light_level;
    3dd6:	80 91 18 07 	lds	r24, 0x0718
    3dda:	81 bf       	out	0x31, r24	; 49
    3ddc:	22 24       	eor	r2, r2
    3dde:	23 94       	inc	r2
    3de0:	f1 e0       	ldi	r31, 0x01	; 1
    3de2:	fa a3       	std	Y+34, r31	; 0x22
    3de4:	0f 90       	pop	r0
    3de6:	0f 90       	pop	r0
    3de8:	3b c0       	rjmp	.+118    	; 0x3e60 <main+0x786>
						//
						//	No actual motion detected
						//
					} else {
						PIR_active = false;
						if (motion_enable_lcd || button_enable_show_nixie) {
    3dea:	2a a1       	ldd	r18, Y+34	; 0x22
    3dec:	22 23       	and	r18, r18
    3dee:	41 f4       	brne	.+16     	; 0x3e00 <main+0x726>
    3df0:	3c a1       	ldd	r19, Y+36	; 0x24
    3df2:	33 23       	and	r19, r19
    3df4:	89 f4       	brne	.+34     	; 0x3e18 <main+0x73e>
    3df6:	22 24       	eor	r2, r2
    3df8:	cc 24       	eor	r12, r12
    3dfa:	dd 24       	eor	r13, r13
    3dfc:	76 01       	movw	r14, r12
    3dfe:	30 c0       	rjmp	.+96     	; 0x3e60 <main+0x786>
							if (button_enable_show_nixie) {
    3e00:	8c a1       	ldd	r24, Y+36	; 0x24
    3e02:	88 23       	and	r24, r24
    3e04:	49 f4       	brne	.+18     	; 0x3e18 <main+0x73e>
								motion_enable_lcd_cnt = 0;
							}
							//if no motion was detected in defined time
							if (motion_enable_lcd_cnt > LCD_SHUTDOWN_LIMIT) {
    3e06:	95 e1       	ldi	r25, 0x15	; 21
    3e08:	c9 16       	cp	r12, r25
    3e0a:	d1 04       	cpc	r13, r1
    3e0c:	e1 04       	cpc	r14, r1
    3e0e:	f1 04       	cpc	r15, r1
    3e10:	30 f0       	brcs	.+12     	; 0x3e1e <main+0x744>
								motion_enable_lcd = false;
								DISP_BACKLIGHT = 0;
    3e12:	11 be       	out	0x31, r1	; 49
    3e14:	1a a2       	std	Y+34, r1	; 0x22
    3e16:	03 c0       	rjmp	.+6      	; 0x3e1e <main+0x744>
    3e18:	cc 24       	eor	r12, r12
    3e1a:	dd 24       	eor	r13, r13
    3e1c:	76 01       	movw	r14, r12
							}

							// if no motion detected
							// but is still in time
							// increment timeout counter
							motion_enable_lcd_cnt++;
    3e1e:	08 94       	sec
    3e20:	c1 1c       	adc	r12, r1
    3e22:	d1 1c       	adc	r13, r1
    3e24:	e1 1c       	adc	r14, r1
    3e26:	f1 1c       	adc	r15, r1
							usart_printf("\nPIR cnt %d", motion_enable_lcd_cnt);
    3e28:	00 d0       	rcall	.+0      	; 0x3e2a <main+0x750>
    3e2a:	00 d0       	rcall	.+0      	; 0x3e2c <main+0x752>
    3e2c:	00 d0       	rcall	.+0      	; 0x3e2e <main+0x754>
    3e2e:	ed ea       	ldi	r30, 0xAD	; 173
    3e30:	f5 e0       	ldi	r31, 0x05	; 5
    3e32:	ad b7       	in	r26, 0x3d	; 61
    3e34:	be b7       	in	r27, 0x3e	; 62
    3e36:	12 96       	adiw	r26, 0x02	; 2
    3e38:	fc 93       	st	X, r31
    3e3a:	ee 93       	st	-X, r30
    3e3c:	11 97       	sbiw	r26, 0x01	; 1
    3e3e:	13 96       	adiw	r26, 0x03	; 3
    3e40:	cd 92       	st	X+, r12
    3e42:	dd 92       	st	X+, r13
    3e44:	ed 92       	st	X+, r14
    3e46:	fc 92       	st	X, r15
    3e48:	16 97       	sbiw	r26, 0x06	; 6
    3e4a:	0e 94 20 19 	call	0x3240	; 0x3240 <usart_printf>
    3e4e:	22 24       	eor	r2, r2
    3e50:	ed b7       	in	r30, 0x3d	; 61
    3e52:	fe b7       	in	r31, 0x3e	; 62
    3e54:	36 96       	adiw	r30, 0x06	; 6
    3e56:	0f b6       	in	r0, 0x3f	; 63
    3e58:	f8 94       	cli
    3e5a:	fe bf       	out	0x3e, r31	; 62
    3e5c:	0f be       	out	0x3f, r0	; 63
    3e5e:	ed bf       	out	0x3d, r30	; 61
							motion_enable_lcd_cnt = 0;
						}
					}

					// if no timeout, display
					if (((motion_enable_nixies_cnt > NIXIE_CNT_LIMIT)
    3e60:	f3 e3       	ldi	r31, 0x33	; 51
    3e62:	6f 16       	cp	r6, r31
    3e64:	71 04       	cpc	r7, r1
    3e66:	81 04       	cpc	r8, r1
    3e68:	91 04       	cpc	r9, r1
    3e6a:	10 f0       	brcs	.+4      	; 0x3e70 <main+0x796>
    3e6c:	22 20       	and	r2, r2
    3e6e:	19 f4       	brne	.+6      	; 0x3e76 <main+0x79c>
    3e70:	2c a1       	ldd	r18, Y+36	; 0x24
    3e72:	22 23       	and	r18, r18
    3e74:	51 f0       	breq	.+20     	; 0x3e8a <main+0x7b0>
							&& PIR_active) || button_enable_show_nixie) {
						button_enable_show_nixie = false;
						motion_enable_nixies_cnt = 0;
						motion_enable_nixies = true;
						all_nixies_on();
    3e76:	0e 94 88 15 	call	0x2b10	; 0x2b10 <all_nixies_on>
						nixie_display_next = HOURS;
    3e7a:	10 92 17 07 	sts	0x0717, r1
    3e7e:	10 92 16 07 	sts	0x0716, r1
						periodicTasks = DISPLAY_NIXIE;
    3e82:	66 24       	eor	r6, r6
    3e84:	77 24       	eor	r7, r7
    3e86:	43 01       	movw	r8, r6
    3e88:	04 c0       	rjmp	.+8      	; 0x3e92 <main+0x7b8>
					}

					if (motion_enable_nixies) {
    3e8a:	3d a1       	ldd	r19, Y+37	; 0x25
    3e8c:	33 23       	and	r19, r19
    3e8e:	09 f4       	brne	.+2      	; 0x3e92 <main+0x7b8>
    3e90:	e8 ce       	rjmp	.-560    	; 0x3c62 <main+0x588>
						periodicTasks = DISPLAY_NIXIE;
    3e92:	81 e0       	ldi	r24, 0x01	; 1
    3e94:	80 93 23 07 	sts	0x0723, r24
    3e98:	8d a3       	std	Y+37, r24	; 0x25
    3e9a:	1c a2       	std	Y+36, r1	; 0x24
    3e9c:	e2 ce       	rjmp	.-572    	; 0x3c62 <main+0x588>

			case CLOCK:
#if PRINT_STATES==1
				usart_printf("\nCLOCK");
#endif
				lcd_gotoxy(0, 0);
    3e9e:	80 e0       	ldi	r24, 0x00	; 0
    3ea0:	60 e0       	ldi	r22, 0x00	; 0
    3ea2:	0e 94 47 14 	call	0x288e	; 0x288e <lcd_gotoxy>
				lcd_printf(LCDOUT_CLRROW);
    3ea6:	00 d0       	rcall	.+0      	; 0x3ea8 <main+0x7ce>
    3ea8:	e9 eb       	ldi	r30, 0xB9	; 185
    3eaa:	f5 e0       	ldi	r31, 0x05	; 5
    3eac:	ad b7       	in	r26, 0x3d	; 61
    3eae:	be b7       	in	r27, 0x3e	; 62
    3eb0:	12 96       	adiw	r26, 0x02	; 2
    3eb2:	fc 93       	st	X, r31
    3eb4:	ee 93       	st	-X, r30
    3eb6:	11 97       	sbiw	r26, 0x01	; 1
    3eb8:	0e 94 e7 10 	call	0x21ce	; 0x21ce <lcd_printf>
				lcd_gotoxy(3, 0);
    3ebc:	0f 90       	pop	r0
    3ebe:	0f 90       	pop	r0
    3ec0:	83 e0       	ldi	r24, 0x03	; 3
    3ec2:	60 e0       	ldi	r22, 0x00	; 0
    3ec4:	0e 94 47 14 	call	0x288e	; 0x288e <lcd_gotoxy>
				ds1307_update(&actTime);
    3ec8:	83 e9       	ldi	r24, 0x93	; 147
    3eca:	97 e0       	ldi	r25, 0x07	; 7
    3ecc:	0e 94 14 0a 	call	0x1428	; 0x1428 <ds1307_update>
				lcd_printf("%02d %s %02d:%02d", actTime.day,
    3ed0:	10 91 96 07 	lds	r17, 0x0796
    3ed4:	80 91 97 07 	lds	r24, 0x0797
    3ed8:	0e 94 db 05 	call	0xbb6	; 0xbb6 <get_nameOfTheMonth>
    3edc:	2d b7       	in	r18, 0x3d	; 61
    3ede:	3e b7       	in	r19, 0x3e	; 62
    3ee0:	2a 50       	subi	r18, 0x0A	; 10
    3ee2:	30 40       	sbci	r19, 0x00	; 0
    3ee4:	0f b6       	in	r0, 0x3f	; 63
    3ee6:	f8 94       	cli
    3ee8:	3e bf       	out	0x3e, r19	; 62
    3eea:	0f be       	out	0x3f, r0	; 63
    3eec:	2d bf       	out	0x3d, r18	; 61
    3eee:	ed b7       	in	r30, 0x3d	; 61
    3ef0:	fe b7       	in	r31, 0x3e	; 62
    3ef2:	31 96       	adiw	r30, 0x01	; 1
    3ef4:	2e ec       	ldi	r18, 0xCE	; 206
    3ef6:	35 e0       	ldi	r19, 0x05	; 5
    3ef8:	ad b7       	in	r26, 0x3d	; 61
    3efa:	be b7       	in	r27, 0x3e	; 62
    3efc:	12 96       	adiw	r26, 0x02	; 2
    3efe:	3c 93       	st	X, r19
    3f00:	2e 93       	st	-X, r18
    3f02:	11 97       	sbiw	r26, 0x01	; 1
    3f04:	12 83       	std	Z+2, r17	; 0x02
    3f06:	13 82       	std	Z+3, r1	; 0x03
    3f08:	95 83       	std	Z+5, r25	; 0x05
    3f0a:	84 83       	std	Z+4, r24	; 0x04
    3f0c:	80 91 93 07 	lds	r24, 0x0793
    3f10:	86 83       	std	Z+6, r24	; 0x06
    3f12:	17 82       	std	Z+7, r1	; 0x07
    3f14:	80 91 94 07 	lds	r24, 0x0794
    3f18:	80 87       	std	Z+8, r24	; 0x08
    3f1a:	11 86       	std	Z+9, r1	; 0x09
    3f1c:	0e 94 e7 10 	call	0x21ce	; 0x21ce <lcd_printf>
						get_nameOfTheMonth(actTime.mounth), actTime.hours,
						actTime.mins);
				periodicTasks = REFRESHRATE_WAIT;
    3f20:	83 e0       	ldi	r24, 0x03	; 3
    3f22:	80 93 23 07 	sts	0x0723, r24
    3f26:	8d b7       	in	r24, 0x3d	; 61
    3f28:	9e b7       	in	r25, 0x3e	; 62
    3f2a:	0a 96       	adiw	r24, 0x0a	; 10
    3f2c:	0f b6       	in	r0, 0x3f	; 63
    3f2e:	f8 94       	cli
    3f30:	9e bf       	out	0x3e, r25	; 62
    3f32:	0f be       	out	0x3f, r0	; 63
    3f34:	8d bf       	out	0x3d, r24	; 61
    3f36:	95 ce       	rjmp	.-726    	; 0x3c62 <main+0x588>

			case WEB_UPDATE:
#if PRINT_STATES==1
				usart_printf("\nWEB");
#endif
				web_update(ext1_is_active);
    3f38:	83 2d       	mov	r24, r3
    3f3a:	0e 94 2c 0d 	call	0x1a58	; 0x1a58 <web_update>
    3f3e:	71 c2       	rjmp	.+1250   	; 0x4422 <main+0xd48>

			case MEASURE:
#if PRINT_STATES==1
				usart_printf("\nMEASURE");
#endif
				if (was_nrf_int) {
    3f40:	80 91 2d 07 	lds	r24, 0x072D
    3f44:	88 23       	and	r24, r24
    3f46:	99 f0       	breq	.+38     	; 0x3f6e <main+0x894>
					was_nrf_int = false;
    3f48:	10 92 2d 07 	sts	0x072D, r1

					process_ext1_data();
    3f4c:	0e 94 76 0a 	call	0x14ec	; 0x14ec <process_ext1_data>

					memset(bufferin, 0, sizeof(bufferin));
    3f50:	80 e2       	ldi	r24, 0x20	; 32
    3f52:	a0 eb       	ldi	r26, 0xB0	; 176
    3f54:	b9 e0       	ldi	r27, 0x09	; 9
    3f56:	1d 92       	st	X+, r1
    3f58:	8a 95       	dec	r24
    3f5a:	e9 f7       	brne	.-6      	; 0x3f56 <main+0x87c>

					ext1_is_active = true;
					ext1_inactive_cnt = 0;
					LED_YELLOW_OFF;
    3f5c:	80 91 62 00 	lds	r24, 0x0062
    3f60:	8e 7f       	andi	r24, 0xFE	; 254
    3f62:	80 93 62 00 	sts	0x0062, r24
    3f66:	33 24       	eor	r3, r3
    3f68:	33 94       	inc	r3
    3f6a:	1e a2       	std	Y+38, r1	; 0x26
    3f6c:	54 c0       	rjmp	.+168    	; 0x4016 <main+0x93c>

				} else {
					if (ext1_is_active) {
    3f6e:	33 20       	and	r3, r3
    3f70:	09 f4       	brne	.+2      	; 0x3f74 <main+0x89a>
    3f72:	51 c0       	rjmp	.+162    	; 0x4016 <main+0x93c>
						if (ext1_inactive_cnt > MAX_EXT1_INACTIVE_CNT) {
    3f74:	be a1       	ldd	r27, Y+38	; 0x26
    3f76:	bb 30       	cpi	r27, 0x0B	; 11
    3f78:	08 f4       	brcc	.+2      	; 0x3f7c <main+0x8a2>
    3f7a:	4a c0       	rjmp	.+148    	; 0x4010 <main+0x936>
							ext1_is_active = false;
							memcpy(&ext_measuredData.ext1_temp, " ? ?", 4);
    3f7c:	80 e2       	ldi	r24, 0x20	; 32
    3f7e:	9f e3       	ldi	r25, 0x3F	; 63
    3f80:	a0 e2       	ldi	r26, 0x20	; 32
    3f82:	bf e3       	ldi	r27, 0x3F	; 63
    3f84:	80 93 9b 07 	sts	0x079B, r24
    3f88:	90 93 9c 07 	sts	0x079C, r25
    3f8c:	a0 93 9d 07 	sts	0x079D, r26
    3f90:	b0 93 9e 07 	sts	0x079E, r27
							memcpy(&ext_measuredData.ext1_hum, " ? ?", 4);
    3f94:	80 93 a0 07 	sts	0x07A0, r24
    3f98:	90 93 a1 07 	sts	0x07A1, r25
    3f9c:	a0 93 a2 07 	sts	0x07A2, r26
    3fa0:	b0 93 a3 07 	sts	0x07A3, r27
							memcpy(&ext_measuredData.ext1_airpressure, " ? ? ?",
    3fa4:	a5 ea       	ldi	r26, 0xA5	; 165
    3fa6:	b7 e0       	ldi	r27, 0x07	; 7
    3fa8:	e3 e8       	ldi	r30, 0x83	; 131
    3faa:	f5 e0       	ldi	r31, 0x05	; 5
    3fac:	86 e0       	ldi	r24, 0x06	; 6
    3fae:	01 90       	ld	r0, Z+
    3fb0:	0d 92       	st	X+, r0
    3fb2:	81 50       	subi	r24, 0x01	; 1
    3fb4:	e1 f7       	brne	.-8      	; 0x3fae <main+0x8d4>
									6);
							memcpy(&ext_measuredData.ext1_lux, "? ? ?", 5);
    3fb6:	ac ea       	ldi	r26, 0xAC	; 172
    3fb8:	b7 e0       	ldi	r27, 0x07	; 7
    3fba:	ea e8       	ldi	r30, 0x8A	; 138
    3fbc:	f5 e0       	ldi	r31, 0x05	; 5
    3fbe:	85 e0       	ldi	r24, 0x05	; 5
    3fc0:	01 90       	ld	r0, Z+
    3fc2:	0d 92       	st	X+, r0
    3fc4:	81 50       	subi	r24, 0x01	; 1
    3fc6:	e1 f7       	brne	.-8      	; 0x3fc0 <main+0x8e6>
							memcpy(&ext_measuredData.ext1_batt, "? ? ?", 5);
    3fc8:	a7 eb       	ldi	r26, 0xB7	; 183
    3fca:	b7 e0       	ldi	r27, 0x07	; 7
    3fcc:	ea e8       	ldi	r30, 0x8A	; 138
    3fce:	f5 e0       	ldi	r31, 0x05	; 5
    3fd0:	85 e0       	ldi	r24, 0x05	; 5
    3fd2:	01 90       	ld	r0, Z+
    3fd4:	0d 92       	st	X+, r0
    3fd6:	81 50       	subi	r24, 0x01	; 1
    3fd8:	e1 f7       	brne	.-8      	; 0x3fd2 <main+0x8f8>
							memcpy(&ext_measuredData.ext1_rain, "1000", 4);
    3fda:	81 e3       	ldi	r24, 0x31	; 49
    3fdc:	90 e3       	ldi	r25, 0x30	; 48
    3fde:	a0 e3       	ldi	r26, 0x30	; 48
    3fe0:	b0 e3       	ldi	r27, 0x30	; 48
    3fe2:	80 93 b2 07 	sts	0x07B2, r24
    3fe6:	90 93 b3 07 	sts	0x07B3, r25
    3fea:	a0 93 b4 07 	sts	0x07B4, r26
    3fee:	b0 93 b5 07 	sts	0x07B5, r27
							LED_YELLOW_ON;
    3ff2:	80 91 62 00 	lds	r24, 0x0062
    3ff6:	81 60       	ori	r24, 0x01	; 1
    3ff8:	80 93 62 00 	sts	0x0062, r24
							loc_measuredData.NRFErr++;
    3ffc:	80 91 cb 07 	lds	r24, 0x07CB
    4000:	90 91 cc 07 	lds	r25, 0x07CC
    4004:	01 96       	adiw	r24, 0x01	; 1
    4006:	90 93 cc 07 	sts	0x07CC, r25
    400a:	80 93 cb 07 	sts	0x07CB, r24
    400e:	33 24       	eor	r3, r3
						}
						ext1_inactive_cnt++;
    4010:	ee a1       	ldd	r30, Y+38	; 0x26
    4012:	ef 5f       	subi	r30, 0xFF	; 255
    4014:	ee a3       	std	Y+38, r30	; 0x26
					}

				}

				dht_gettemperaturehumidity(&temperature, &humidity);
    4016:	ce 01       	movw	r24, r28
    4018:	0a 96       	adiw	r24, 0x0a	; 10
    401a:	be 01       	movw	r22, r28
    401c:	62 5f       	subi	r22, 0xF2	; 242
    401e:	7f 4f       	sbci	r23, 0xFF	; 255
    4020:	0e 94 12 09 	call	0x1224	; 0x1224 <dht_gettemperaturehumidity>
				dtostrf(temperature, 3, 1, loc_measuredData.loc_temp);
    4024:	6a 85       	ldd	r22, Y+10	; 0x0a
    4026:	7b 85       	ldd	r23, Y+11	; 0x0b
    4028:	8c 85       	ldd	r24, Y+12	; 0x0c
    402a:	9d 85       	ldd	r25, Y+13	; 0x0d
    402c:	43 e0       	ldi	r20, 0x03	; 3
    402e:	21 e0       	ldi	r18, 0x01	; 1
    4030:	0d eb       	ldi	r16, 0xBD	; 189
    4032:	17 e0       	ldi	r17, 0x07	; 7
    4034:	0e 94 a2 22 	call	0x4544	; 0x4544 <dtostrf>
				dtostrf(humidity, 3, 1, loc_measuredData.loc_hum);
    4038:	6e 85       	ldd	r22, Y+14	; 0x0e
    403a:	7f 85       	ldd	r23, Y+15	; 0x0f
    403c:	88 89       	ldd	r24, Y+16	; 0x10
    403e:	99 89       	ldd	r25, Y+17	; 0x11
    4040:	43 e0       	ldi	r20, 0x03	; 3
    4042:	21 e0       	ldi	r18, 0x01	; 1
    4044:	02 ec       	ldi	r16, 0xC2	; 194
    4046:	17 e0       	ldi	r17, 0x07	; 7
    4048:	0e 94 a2 22 	call	0x4544	; 0x4544 <dtostrf>

				loc_measuredData.ldr = Read_ADC(ADC_LDR);
    404c:	87 e0       	ldi	r24, 0x07	; 7
    404e:	0e 94 df 09 	call	0x13be	; 0x13be <Read_ADC>
    4052:	90 93 c8 07 	sts	0x07C8, r25
    4056:	80 93 c7 07 	sts	0x07C7, r24

				if (loc_measuredData.ldr <= NIXIE_SUP_THR_0) {
    405a:	86 30       	cpi	r24, 0x06	; 6
    405c:	91 05       	cpc	r25, r1
    405e:	48 f4       	brcc	.+18     	; 0x4072 <main+0x998>
					nixie_suppy(0);
    4060:	80 e0       	ldi	r24, 0x00	; 0
    4062:	0e 94 c0 15 	call	0x2b80	; 0x2b80 <nixie_suppy>
					RGB_light_correction = RGB_MIN_DIV;
					LCD_light_level = 70;
    4066:	86 e4       	ldi	r24, 0x46	; 70
    4068:	80 93 18 07 	sts	0x0718, r24
    406c:	26 e0       	ldi	r18, 0x06	; 6
    406e:	b2 2e       	mov	r11, r18
    4070:	18 c0       	rjmp	.+48     	; 0x40a2 <main+0x9c8>
				} else if (loc_measuredData.ldr < NIXIE_SUP_THR_1) {
    4072:	80 35       	cpi	r24, 0x50	; 80
    4074:	91 05       	cpc	r25, r1
    4076:	28 f4       	brcc	.+10     	; 0x4082 <main+0x9a8>
					nixie_suppy(1);
    4078:	81 e0       	ldi	r24, 0x01	; 1
    407a:	0e 94 c0 15 	call	0x2b80	; 0x2b80 <nixie_suppy>
					RGB_light_correction = RGB_MAX_DIV;
					LCD_light_level = 190;
    407e:	8e eb       	ldi	r24, 0xBE	; 190
    4080:	0c c0       	rjmp	.+24     	; 0x409a <main+0x9c0>
				} else if (loc_measuredData.ldr < NIXIE_SUP_THR_2) {
    4082:	86 39       	cpi	r24, 0x96	; 150
    4084:	91 05       	cpc	r25, r1
    4086:	28 f4       	brcc	.+10     	; 0x4092 <main+0x9b8>
					nixie_suppy(2);
    4088:	82 e0       	ldi	r24, 0x02	; 2
    408a:	0e 94 c0 15 	call	0x2b80	; 0x2b80 <nixie_suppy>
					RGB_light_correction = RGB_MAX_DIV;
					LCD_light_level = 220;
    408e:	8c ed       	ldi	r24, 0xDC	; 220
    4090:	04 c0       	rjmp	.+8      	; 0x409a <main+0x9c0>
				} else {
					nixie_suppy(3);
    4092:	83 e0       	ldi	r24, 0x03	; 3
    4094:	0e 94 c0 15 	call	0x2b80	; 0x2b80 <nixie_suppy>
					RGB_light_correction = RGB_MAX_DIV;
					LCD_light_level = 255;
    4098:	8f ef       	ldi	r24, 0xFF	; 255
    409a:	80 93 18 07 	sts	0x0718, r24
    409e:	bb 24       	eor	r11, r11
    40a0:	b3 94       	inc	r11
				}

				usart_printf("\nRGB corr: %d", RGB_light_correction);
    40a2:	00 d0       	rcall	.+0      	; 0x40a4 <main+0x9ca>
    40a4:	00 d0       	rcall	.+0      	; 0x40a6 <main+0x9cc>
    40a6:	ed b7       	in	r30, 0x3d	; 61
    40a8:	fe b7       	in	r31, 0x3e	; 62
    40aa:	31 96       	adiw	r30, 0x01	; 1
    40ac:	20 ee       	ldi	r18, 0xE0	; 224
    40ae:	35 e0       	ldi	r19, 0x05	; 5
    40b0:	ad b7       	in	r26, 0x3d	; 61
    40b2:	be b7       	in	r27, 0x3e	; 62
    40b4:	12 96       	adiw	r26, 0x02	; 2
    40b6:	3c 93       	st	X, r19
    40b8:	2e 93       	st	-X, r18
    40ba:	11 97       	sbiw	r26, 0x01	; 1
    40bc:	b2 82       	std	Z+2, r11	; 0x02
    40be:	13 82       	std	Z+3, r1	; 0x03
    40c0:	0e 94 20 19 	call	0x3240	; 0x3240 <usart_printf>

				if (motion_enable_lcd)
    40c4:	0f 90       	pop	r0
    40c6:	0f 90       	pop	r0
    40c8:	0f 90       	pop	r0
    40ca:	0f 90       	pop	r0
    40cc:	3a a1       	ldd	r19, Y+34	; 0x22
    40ce:	33 23       	and	r19, r19
    40d0:	19 f0       	breq	.+6      	; 0x40d8 <main+0x9fe>
					DISP_BACKLIGHT = LCD_light_level;
    40d2:	80 91 18 07 	lds	r24, 0x0718
    40d6:	81 bf       	out	0x31, r24	; 49

				if (atoi(ext_measuredData.ext1_batt) < MIN_BATT_LEVEL
    40d8:	87 eb       	ldi	r24, 0xB7	; 183
    40da:	97 e0       	ldi	r25, 0x07	; 7
    40dc:	0e 94 2d 24 	call	0x485a	; 0x485a <atoi>
    40e0:	ad e0       	ldi	r26, 0x0D	; 13
    40e2:	88 34       	cpi	r24, 0x48	; 72
    40e4:	9a 07       	cpc	r25, r26
    40e6:	0c f0       	brlt	.+2      	; 0x40ea <main+0xa10>
    40e8:	9c c1       	rjmp	.+824    	; 0x4422 <main+0xd48>
    40ea:	02 97       	sbiw	r24, 0x02	; 2
    40ec:	0c f4       	brge	.+2      	; 0x40f0 <main+0xa16>
    40ee:	99 c1       	rjmp	.+818    	; 0x4422 <main+0xd48>
						&& atoi(ext_measuredData.ext1_batt) > 1) {
					set_nixie_rgb(180, 0, 0);
    40f0:	84 eb       	ldi	r24, 0xB4	; 180
    40f2:	90 e0       	ldi	r25, 0x00	; 0
    40f4:	60 e0       	ldi	r22, 0x00	; 0
    40f6:	70 e0       	ldi	r23, 0x00	; 0
    40f8:	40 e0       	ldi	r20, 0x00	; 0
    40fa:	50 e0       	ldi	r21, 0x00	; 0
    40fc:	0e 94 f0 14 	call	0x29e0	; 0x29e0 <set_nixie_rgb>
					usart_printf("\nLOW BATT");
    4100:	00 d0       	rcall	.+0      	; 0x4102 <main+0xa28>
    4102:	2e ee       	ldi	r18, 0xEE	; 238
    4104:	35 e0       	ldi	r19, 0x05	; 5
    4106:	ed b7       	in	r30, 0x3d	; 61
    4108:	fe b7       	in	r31, 0x3e	; 62
    410a:	32 83       	std	Z+2, r19	; 0x02
    410c:	21 83       	std	Z+1, r18	; 0x01
    410e:	0e 94 20 19 	call	0x3240	; 0x3240 <usart_printf>
    4112:	0f 90       	pop	r0
    4114:	0f 90       	pop	r0
    4116:	85 c1       	rjmp	.+778    	; 0x4422 <main+0xd48>

			case DISPLAY_LCD:
#if PRINT_STATES==1
				usart_printf("\nDISPLAY_LCD");
#endif
				if (ext1_is_active) {
    4118:	33 20       	and	r3, r3
    411a:	29 f0       	breq	.+10     	; 0x4126 <main+0xa4c>
					ext_measuredData.ext1_temp[2] = '.'; //workaround
    411c:	8e e2       	ldi	r24, 0x2E	; 46
    411e:	80 93 9d 07 	sts	0x079D, r24
					ext_measuredData.ext1_hum[2] = '.'; //workaround
    4122:	80 93 a2 07 	sts	0x07A2, r24
				}

				if (!button_enable_show_maintanance) {
    4126:	3b a1       	ldd	r19, Y+35	; 0x23
    4128:	33 23       	and	r19, r19
    412a:	39 f4       	brne	.+14     	; 0x413a <main+0xa60>
					display_data_LCD(&loc_measuredData, &ext_measuredData);
    412c:	8d eb       	ldi	r24, 0xBD	; 189
    412e:	97 e0       	ldi	r25, 0x07	; 7
    4130:	6a e9       	ldi	r22, 0x9A	; 154
    4132:	77 e0       	ldi	r23, 0x07	; 7
    4134:	0e 94 5c 12 	call	0x24b8	; 0x24b8 <display_data_LCD>
    4138:	06 c0       	rjmp	.+12     	; 0x4146 <main+0xa6c>
				} else {
					display_service_LCD(&loc_measuredData, &ext_measuredData);
    413a:	8d eb       	ldi	r24, 0xBD	; 189
    413c:	97 e0       	ldi	r25, 0x07	; 7
    413e:	6a e9       	ldi	r22, 0x9A	; 154
    4140:	77 e0       	ldi	r23, 0x07	; 7
    4142:	0e 94 bc 11 	call	0x2378	; 0x2378 <display_service_LCD>
					button_enable_show_maintanance = false;
				}

				usart_sendValues();
    4146:	0e 94 03 0b 	call	0x1606	; 0x1606 <usart_sendValues>

				periodicTasks = REFRESHRATE_WAIT;
    414a:	83 e0       	ldi	r24, 0x03	; 3
    414c:	80 93 23 07 	sts	0x0723, r24
    4150:	1b a2       	std	Y+35, r1	; 0x23
    4152:	87 cd       	rjmp	.-1266   	; 0x3c62 <main+0x588>

			case DISPLAY_NIXIE:
#if PRINT_STATES==1
				usart_printf("\nDISPLAY_NIXIE");
#endif
				NIXIES_ENABLE;
    4154:	87 b7       	in	r24, 0x37	; 55
    4156:	80 64       	ori	r24, 0x40	; 64
    4158:	87 bf       	out	0x37, r24	; 55

				switch (nixie_display_next) {
    415a:	80 91 16 07 	lds	r24, 0x0716
    415e:	90 91 17 07 	lds	r25, 0x0717
    4162:	82 30       	cpi	r24, 0x02	; 2
    4164:	91 05       	cpc	r25, r1
    4166:	09 f4       	brne	.+2      	; 0x416a <main+0xa90>
    4168:	d6 c0       	rjmp	.+428    	; 0x4316 <main+0xc3c>
    416a:	83 30       	cpi	r24, 0x03	; 3
    416c:	91 05       	cpc	r25, r1
    416e:	30 f4       	brcc	.+12     	; 0x417c <main+0xaa2>
    4170:	00 97       	sbiw	r24, 0x00	; 0
    4172:	81 f0       	breq	.+32     	; 0x4194 <main+0xaba>
    4174:	01 97       	sbiw	r24, 0x01	; 1
    4176:	09 f0       	breq	.+2      	; 0x417a <main+0xaa0>
    4178:	54 c1       	rjmp	.+680    	; 0x4422 <main+0xd48>
    417a:	b5 c0       	rjmp	.+362    	; 0x42e6 <main+0xc0c>
    417c:	84 30       	cpi	r24, 0x04	; 4
    417e:	91 05       	cpc	r25, r1
    4180:	09 f4       	brne	.+2      	; 0x4184 <main+0xaaa>
    4182:	09 c1       	rjmp	.+530    	; 0x4396 <main+0xcbc>
    4184:	84 30       	cpi	r24, 0x04	; 4
    4186:	91 05       	cpc	r25, r1
    4188:	08 f4       	brcc	.+2      	; 0x418c <main+0xab2>
    418a:	e6 c0       	rjmp	.+460    	; 0x4358 <main+0xc7e>
    418c:	05 97       	sbiw	r24, 0x05	; 5
    418e:	09 f0       	breq	.+2      	; 0x4192 <main+0xab8>
    4190:	48 c1       	rjmp	.+656    	; 0x4422 <main+0xd48>
    4192:	1d c1       	rjmp	.+570    	; 0x43ce <main+0xcf4>

				case HOURS:
					nixie_dislpay_fadeout();
    4194:	0e 94 e2 15 	call	0x2bc4	; 0x2bc4 <nixie_dislpay_fadeout>
					set_nixie_rgb(0, 255 / RGB_light_correction, 0);
    4198:	8f ef       	ldi	r24, 0xFF	; 255
    419a:	90 e0       	ldi	r25, 0x00	; 0
    419c:	6b 2d       	mov	r22, r11
    419e:	70 e0       	ldi	r23, 0x00	; 0
    41a0:	0e 94 44 22 	call	0x4488	; 0x4488 <__divmodhi4>
    41a4:	80 e0       	ldi	r24, 0x00	; 0
    41a6:	90 e0       	ldi	r25, 0x00	; 0
    41a8:	40 e0       	ldi	r20, 0x00	; 0
    41aa:	50 e0       	ldi	r21, 0x00	; 0
    41ac:	0e 94 f0 14 	call	0x29e0	; 0x29e0 <set_nixie_rgb>

					char htmp[3];
					char mtmp[3];
					char stmp[3];

					ds1307_update(&actTime);
    41b0:	83 e9       	ldi	r24, 0x93	; 147
    41b2:	97 e0       	ldi	r25, 0x07	; 7
    41b4:	0e 94 14 0a 	call	0x1428	; 0x1428 <ds1307_update>

					itoa(actTime.hours, htmp, 10);
    41b8:	80 91 93 07 	lds	r24, 0x0793
    41bc:	90 e0       	ldi	r25, 0x00	; 0
    41be:	be 01       	movw	r22, r28
    41c0:	6f 5f       	subi	r22, 0xFF	; 255
    41c2:	7f 4f       	sbci	r23, 0xFF	; 255
    41c4:	4a e0       	ldi	r20, 0x0A	; 10
    41c6:	50 e0       	ldi	r21, 0x00	; 0
    41c8:	0e 94 8f 24 	call	0x491e	; 0x491e <itoa>
					if (actTime.hours < 10) {
    41cc:	80 91 93 07 	lds	r24, 0x0793
    41d0:	8a 30       	cpi	r24, 0x0A	; 10
    41d2:	20 f4       	brcc	.+8      	; 0x41dc <main+0xb02>
						htmp[1] = htmp[0];
    41d4:	89 81       	ldd	r24, Y+1	; 0x01
    41d6:	8a 83       	std	Y+2, r24	; 0x02
						htmp[0] = '0';
    41d8:	80 e3       	ldi	r24, 0x30	; 48
    41da:	89 83       	std	Y+1, r24	; 0x01
					}

					itoa(actTime.mins, mtmp, 10);
    41dc:	80 91 94 07 	lds	r24, 0x0794
    41e0:	90 e0       	ldi	r25, 0x00	; 0
    41e2:	be 01       	movw	r22, r28
    41e4:	6c 5f       	subi	r22, 0xFC	; 252
    41e6:	7f 4f       	sbci	r23, 0xFF	; 255
    41e8:	4a e0       	ldi	r20, 0x0A	; 10
    41ea:	50 e0       	ldi	r21, 0x00	; 0
    41ec:	0e 94 8f 24 	call	0x491e	; 0x491e <itoa>
					if (actTime.mins < 10) {
    41f0:	80 91 94 07 	lds	r24, 0x0794
    41f4:	8a 30       	cpi	r24, 0x0A	; 10
    41f6:	20 f4       	brcc	.+8      	; 0x4200 <main+0xb26>
						mtmp[1] = mtmp[0];
    41f8:	8c 81       	ldd	r24, Y+4	; 0x04
    41fa:	8d 83       	std	Y+5, r24	; 0x05
						mtmp[0] = '0';
    41fc:	80 e3       	ldi	r24, 0x30	; 48
    41fe:	8c 83       	std	Y+4, r24	; 0x04
					}

					itoa(actTime.secs, stmp, 10);
    4200:	80 91 95 07 	lds	r24, 0x0795
    4204:	90 e0       	ldi	r25, 0x00	; 0
    4206:	be 01       	movw	r22, r28
    4208:	69 5f       	subi	r22, 0xF9	; 249
    420a:	7f 4f       	sbci	r23, 0xFF	; 255
    420c:	4a e0       	ldi	r20, 0x0A	; 10
    420e:	50 e0       	ldi	r21, 0x00	; 0
    4210:	0e 94 8f 24 	call	0x491e	; 0x491e <itoa>
					if (actTime.secs < 10) {
    4214:	80 91 95 07 	lds	r24, 0x0795
    4218:	8a 30       	cpi	r24, 0x0A	; 10
    421a:	20 f4       	brcc	.+8      	; 0x4224 <main+0xb4a>
						stmp[1] = stmp[0];
    421c:	8f 81       	ldd	r24, Y+7	; 0x07
    421e:	88 87       	std	Y+8, r24	; 0x08
						stmp[0] = '0';
    4220:	80 e3       	ldi	r24, 0x30	; 48
    4222:	8f 83       	std	Y+7, r24	; 0x07
					}

					//22:30:35 01/20/2016
					char time[] = { 'x', 'x', 'x', htmp[0], htmp[1], 'x',
							mtmp[0], mtmp[1], 'x', stmp[0], stmp[1], 'x', 'x',
							'x', };
    4224:	99 81       	ldd	r25, Y+1	; 0x01
    4226:	2a 81       	ldd	r18, Y+2	; 0x02
    4228:	3c 81       	ldd	r19, Y+4	; 0x04
    422a:	4d 81       	ldd	r20, Y+5	; 0x05
    422c:	5f 81       	ldd	r21, Y+7	; 0x07
    422e:	68 85       	ldd	r22, Y+8	; 0x08
    4230:	88 e7       	ldi	r24, 0x78	; 120
    4232:	8a 8b       	std	Y+18, r24	; 0x12
    4234:	8b 8b       	std	Y+19, r24	; 0x13
    4236:	8c 8b       	std	Y+20, r24	; 0x14
    4238:	9d 8b       	std	Y+21, r25	; 0x15
    423a:	2e 8b       	std	Y+22, r18	; 0x16
    423c:	8f 8b       	std	Y+23, r24	; 0x17
    423e:	38 8f       	std	Y+24, r19	; 0x18
    4240:	49 8f       	std	Y+25, r20	; 0x19
    4242:	8a 8f       	std	Y+26, r24	; 0x1a
    4244:	5b 8f       	std	Y+27, r21	; 0x1b
    4246:	6c 8f       	std	Y+28, r22	; 0x1c
    4248:	8d 8f       	std	Y+29, r24	; 0x1d
    424a:	8e 8f       	std	Y+30, r24	; 0x1e
    424c:	8f 8f       	std	Y+31, r24	; 0x1f
    424e:	8e 01       	movw	r16, r28
    4250:	0e 5e       	subi	r16, 0xEE	; 238
    4252:	1f 4f       	sbci	r17, 0xFF	; 255

					//for (uint8_t k = 0; k < 2; k++) {
					for (uint8_t n = 0; n < 12; n++) {

						nixie_enable_mask = 0b0001110;
    4254:	9e e0       	ldi	r25, 0x0E	; 14
    4256:	49 2e       	mov	r4, r25

						if (time[n] != 'x')
							temp_ch[0] = time[n];
						else {
							//temp_ch[0] = '0';
							nixie_enable_mask &= ~(1 << 3);
    4258:	86 e0       	ldi	r24, 0x06	; 6
    425a:	58 2e       	mov	r5, r24
							'x', };

					//for (uint8_t k = 0; k < 2; k++) {
					for (uint8_t n = 0; n < 12; n++) {

						nixie_enable_mask = 0b0001110;
    425c:	40 92 15 07 	sts	0x0715, r4

						if (time[n] != 'x')
    4260:	d8 01       	movw	r26, r16
    4262:	8c 91       	ld	r24, X
    4264:	88 37       	cpi	r24, 0x78	; 120
    4266:	19 f0       	breq	.+6      	; 0x426e <main+0xb94>
							temp_ch[0] = time[n];
    4268:	80 93 d4 09 	sts	0x09D4, r24
    426c:	02 c0       	rjmp	.+4      	; 0x4272 <main+0xb98>
						else {
							//temp_ch[0] = '0';
							nixie_enable_mask &= ~(1 << 3);
    426e:	50 92 15 07 	sts	0x0715, r5
						}

						if (time[n + 1] != 'x')
    4272:	f8 01       	movw	r30, r16
    4274:	81 81       	ldd	r24, Z+1	; 0x01
    4276:	88 37       	cpi	r24, 0x78	; 120
    4278:	19 f0       	breq	.+6      	; 0x4280 <main+0xba6>
							temp_ch[1] = time[n + 1];
    427a:	80 93 d5 09 	sts	0x09D5, r24
    427e:	05 c0       	rjmp	.+10     	; 0x428a <main+0xbb0>
						else {
							//temp_ch[1] = '0';
							nixie_enable_mask &= ~(1 << 2);
    4280:	80 91 15 07 	lds	r24, 0x0715
    4284:	8b 7f       	andi	r24, 0xFB	; 251
    4286:	80 93 15 07 	sts	0x0715, r24
						}

						if (time[n + 2] != 'x')
    428a:	d8 01       	movw	r26, r16
    428c:	12 96       	adiw	r26, 0x02	; 2
    428e:	8c 91       	ld	r24, X
    4290:	88 37       	cpi	r24, 0x78	; 120
    4292:	19 f0       	breq	.+6      	; 0x429a <main+0xbc0>
							temp_ch[2] = time[n + 2];
    4294:	80 93 d6 09 	sts	0x09D6, r24
    4298:	05 c0       	rjmp	.+10     	; 0x42a4 <main+0xbca>
						else {
							//temp_ch[2] = '0';
							nixie_enable_mask &= ~(1 << 1);
    429a:	80 91 15 07 	lds	r24, 0x0715
    429e:	8d 7f       	andi	r24, 0xFD	; 253
    42a0:	80 93 15 07 	sts	0x0715, r24
						}

						//temp_ch[1] = time[n + 1];
						//temp_ch[2] = time[n + 2];
						temp_ch[3] = '\0';
    42a4:	10 92 d7 09 	sts	0x09D7, r1
						temp_ch[4] = '\0';
    42a8:	10 92 d8 09 	sts	0x09D8, r1

						//nixie_enable_mask = 0b0001110;
						nixie_print(temp_ch, false, false);
    42ac:	84 ed       	ldi	r24, 0xD4	; 212
    42ae:	99 e0       	ldi	r25, 0x09	; 9
    42b0:	60 e0       	ldi	r22, 0x00	; 0
    42b2:	40 e0       	ldi	r20, 0x00	; 0
    42b4:	0e 94 a4 15 	call	0x2b48	; 0x2b48 <nixie_print>
    42b8:	88 eb       	ldi	r24, 0xB8	; 184
    42ba:	9b e0       	ldi	r25, 0x0B	; 11
    42bc:	e0 e9       	ldi	r30, 0x90	; 144
    42be:	f1 e0       	ldi	r31, 0x01	; 1
    42c0:	31 97       	sbiw	r30, 0x01	; 1
    42c2:	f1 f7       	brne	.-4      	; 0x42c0 <main+0xbe6>
		{
			// wait 1/10 ms
			_delay_loop_2(((F_CPU) / 4e3) / 10);
			__ticks --;
    42c4:	01 97       	sbiw	r24, 0x01	; 1
		__ticks = 1;
	else if (__tmp > 65535)
	{
		//	__ticks = requested delay in 1/10 ms
		__ticks = (uint16_t) (__ms * 10.0);
		while(__ticks)
    42c6:	d1 f7       	brne	.-12     	; 0x42bc <main+0xbe2>
    42c8:	0f 5f       	subi	r16, 0xFF	; 255
    42ca:	1f 4f       	sbci	r17, 0xFF	; 255
					char time[] = { 'x', 'x', 'x', htmp[0], htmp[1], 'x',
							mtmp[0], mtmp[1], 'x', stmp[0], stmp[1], 'x', 'x',
							'x', };

					//for (uint8_t k = 0; k < 2; k++) {
					for (uint8_t n = 0; n < 12; n++) {
    42cc:	ef a1       	ldd	r30, Y+39	; 0x27
    42ce:	f8 a5       	ldd	r31, Y+40	; 0x28
    42d0:	0e 17       	cp	r16, r30
    42d2:	1f 07       	cpc	r17, r31
    42d4:	09 f0       	breq	.+2      	; 0x42d8 <main+0xbfe>
    42d6:	c2 cf       	rjmp	.-124    	; 0x425c <main+0xb82>
						_delay_ms(300);

					}
					//}

					nixie_display_next = LOC_TEMP;
    42d8:	81 e0       	ldi	r24, 0x01	; 1
    42da:	90 e0       	ldi	r25, 0x00	; 0
    42dc:	90 93 17 07 	sts	0x0717, r25
    42e0:	80 93 16 07 	sts	0x0716, r24
    42e4:	be cc       	rjmp	.-1668   	; 0x3c62 <main+0x588>
					continue;

				case LOC_TEMP:
					nixie_dislpay_fadeout();
    42e6:	0e 94 e2 15 	call	0x2bc4	; 0x2bc4 <nixie_dislpay_fadeout>
					set_nixie_rgb(0, 0, 255 / RGB_light_correction);
    42ea:	8f ef       	ldi	r24, 0xFF	; 255
    42ec:	90 e0       	ldi	r25, 0x00	; 0
    42ee:	6b 2d       	mov	r22, r11
    42f0:	70 e0       	ldi	r23, 0x00	; 0
    42f2:	0e 94 44 22 	call	0x4488	; 0x4488 <__divmodhi4>
    42f6:	ab 01       	movw	r20, r22
    42f8:	80 e0       	ldi	r24, 0x00	; 0
    42fa:	90 e0       	ldi	r25, 0x00	; 0
    42fc:	60 e0       	ldi	r22, 0x00	; 0
    42fe:	70 e0       	ldi	r23, 0x00	; 0
    4300:	0e 94 f0 14 	call	0x29e0	; 0x29e0 <set_nixie_rgb>
					nixie_print_value(loc_measuredData.loc_temp, NIXIE_CELSIUS,
    4304:	8d eb       	ldi	r24, 0xBD	; 189
    4306:	97 e0       	ldi	r25, 0x07	; 7
    4308:	67 e3       	ldi	r22, 0x37	; 55
    430a:	40 e0       	ldi	r20, 0x00	; 0
    430c:	0e 94 52 16 	call	0x2ca4	; 0x2ca4 <nixie_print_value>
							0);

					nixie_display_next = LOC_HUM;
    4310:	82 e0       	ldi	r24, 0x02	; 2
    4312:	90 e0       	ldi	r25, 0x00	; 0
    4314:	1c c0       	rjmp	.+56     	; 0x434e <main+0xc74>

					break;

				case LOC_HUM:
					nixie_dislpay_fadeout();
    4316:	0e 94 e2 15 	call	0x2bc4	; 0x2bc4 <nixie_dislpay_fadeout>
					set_nixie_rgb(0, 0, 255 / RGB_light_correction);
    431a:	8f ef       	ldi	r24, 0xFF	; 255
    431c:	90 e0       	ldi	r25, 0x00	; 0
    431e:	6b 2d       	mov	r22, r11
    4320:	70 e0       	ldi	r23, 0x00	; 0
    4322:	0e 94 44 22 	call	0x4488	; 0x4488 <__divmodhi4>
    4326:	ab 01       	movw	r20, r22
    4328:	80 e0       	ldi	r24, 0x00	; 0
    432a:	90 e0       	ldi	r25, 0x00	; 0
    432c:	60 e0       	ldi	r22, 0x00	; 0
    432e:	70 e0       	ldi	r23, 0x00	; 0
    4330:	0e 94 f0 14 	call	0x29e0	; 0x29e0 <set_nixie_rgb>
					nixie_print_value(loc_measuredData.loc_hum, NIXIE_PERCENT,
    4334:	82 ec       	ldi	r24, 0xC2	; 194
    4336:	97 e0       	ldi	r25, 0x07	; 7
    4338:	66 e3       	ldi	r22, 0x36	; 54
    433a:	40 e0       	ldi	r20, 0x00	; 0
    433c:	0e 94 52 16 	call	0x2ca4	; 0x2ca4 <nixie_print_value>
							0);
					if (ext1_is_active) {
    4340:	33 20       	and	r3, r3
    4342:	19 f0       	breq	.+6      	; 0x434a <main+0xc70>
						nixie_display_next = EXT_TEMP;
    4344:	83 e0       	ldi	r24, 0x03	; 3
    4346:	90 e0       	ldi	r25, 0x00	; 0
    4348:	02 c0       	rjmp	.+4      	; 0x434e <main+0xc74>
					} else {
						nixie_display_next = NIXIE_END;
    434a:	85 e0       	ldi	r24, 0x05	; 5
    434c:	90 e0       	ldi	r25, 0x00	; 0
    434e:	90 93 17 07 	sts	0x0717, r25
    4352:	80 93 16 07 	sts	0x0716, r24
    4356:	65 c0       	rjmp	.+202    	; 0x4422 <main+0xd48>

					//nixie_dislpay_fadeout();
					break;
					//
				case EXT_TEMP:
					nixie_dislpay_fadeout();
    4358:	0e 94 e2 15 	call	0x2bc4	; 0x2bc4 <nixie_dislpay_fadeout>
					set_nixie_rgb(0, 255 / RGB_light_correction,
    435c:	8f ef       	ldi	r24, 0xFF	; 255
    435e:	90 e0       	ldi	r25, 0x00	; 0
    4360:	6b 2d       	mov	r22, r11
    4362:	70 e0       	ldi	r23, 0x00	; 0
    4364:	0e 94 44 22 	call	0x4488	; 0x4488 <__divmodhi4>
    4368:	9b 01       	movw	r18, r22
    436a:	88 ec       	ldi	r24, 0xC8	; 200
    436c:	90 e0       	ldi	r25, 0x00	; 0
    436e:	6b 2d       	mov	r22, r11
    4370:	70 e0       	ldi	r23, 0x00	; 0
    4372:	0e 94 44 22 	call	0x4488	; 0x4488 <__divmodhi4>
    4376:	ab 01       	movw	r20, r22
    4378:	80 e0       	ldi	r24, 0x00	; 0
    437a:	90 e0       	ldi	r25, 0x00	; 0
    437c:	b9 01       	movw	r22, r18
    437e:	0e 94 f0 14 	call	0x29e0	; 0x29e0 <set_nixie_rgb>
							200 / RGB_light_correction);
					nixie_print_value(ext_measuredData.ext1_temp, NIXIE_CELSIUS,
    4382:	8b e9       	ldi	r24, 0x9B	; 155
    4384:	97 e0       	ldi	r25, 0x07	; 7
    4386:	67 e3       	ldi	r22, 0x37	; 55
    4388:	40 91 9a 07 	lds	r20, 0x079A
    438c:	0e 94 52 16 	call	0x2ca4	; 0x2ca4 <nixie_print_value>
							ext_measuredData.temp_minus);

					nixie_display_next = EXT_HUM;
    4390:	84 e0       	ldi	r24, 0x04	; 4
    4392:	90 e0       	ldi	r25, 0x00	; 0
    4394:	dc cf       	rjmp	.-72     	; 0x434e <main+0xc74>
					//nixie_dislpay_fadeout();
					break;

				case EXT_HUM:
					nixie_dislpay_fadeout();
    4396:	0e 94 e2 15 	call	0x2bc4	; 0x2bc4 <nixie_dislpay_fadeout>
					set_nixie_rgb(0, 255 / RGB_light_correction,
    439a:	8f ef       	ldi	r24, 0xFF	; 255
    439c:	90 e0       	ldi	r25, 0x00	; 0
    439e:	6b 2d       	mov	r22, r11
    43a0:	70 e0       	ldi	r23, 0x00	; 0
    43a2:	0e 94 44 22 	call	0x4488	; 0x4488 <__divmodhi4>
    43a6:	9b 01       	movw	r18, r22
    43a8:	88 ec       	ldi	r24, 0xC8	; 200
    43aa:	90 e0       	ldi	r25, 0x00	; 0
    43ac:	6b 2d       	mov	r22, r11
    43ae:	70 e0       	ldi	r23, 0x00	; 0
    43b0:	0e 94 44 22 	call	0x4488	; 0x4488 <__divmodhi4>
    43b4:	ab 01       	movw	r20, r22
    43b6:	80 e0       	ldi	r24, 0x00	; 0
    43b8:	90 e0       	ldi	r25, 0x00	; 0
    43ba:	b9 01       	movw	r22, r18
    43bc:	0e 94 f0 14 	call	0x29e0	; 0x29e0 <set_nixie_rgb>
							200 / RGB_light_correction);
					nixie_print_value(ext_measuredData.ext1_hum, NIXIE_PERCENT,
    43c0:	80 ea       	ldi	r24, 0xA0	; 160
    43c2:	97 e0       	ldi	r25, 0x07	; 7
    43c4:	66 e3       	ldi	r22, 0x36	; 54
    43c6:	40 e0       	ldi	r20, 0x00	; 0
    43c8:	0e 94 52 16 	call	0x2ca4	; 0x2ca4 <nixie_print_value>
    43cc:	be cf       	rjmp	.-132    	; 0x434a <main+0xc70>
					break;

				case NIXIE_END:
					motion_enable_nixies = false;
					motion_enable_nixies_cnt = 0;
					nixie_dislpay_fadeout();
    43ce:	0e 94 e2 15 	call	0x2bc4	; 0x2bc4 <nixie_dislpay_fadeout>
					if (atoi(ext_measuredData.ext1_batt) < MIN_BATT_LEVEL
    43d2:	87 eb       	ldi	r24, 0xB7	; 183
    43d4:	97 e0       	ldi	r25, 0x07	; 7
    43d6:	0e 94 2d 24 	call	0x485a	; 0x485a <atoi>
    43da:	fd e0       	ldi	r31, 0x0D	; 13
    43dc:	88 34       	cpi	r24, 0x48	; 72
    43de:	9f 07       	cpc	r25, r31
    43e0:	54 f4       	brge	.+20     	; 0x43f6 <main+0xd1c>
    43e2:	02 97       	sbiw	r24, 0x02	; 2
    43e4:	44 f0       	brlt	.+16     	; 0x43f6 <main+0xd1c>
							&& atoi(ext_measuredData.ext1_batt) > 1) {
						set_nixie_rgb(180 / RGB_light_correction, 0, 0);
    43e6:	84 eb       	ldi	r24, 0xB4	; 180
    43e8:	90 e0       	ldi	r25, 0x00	; 0
    43ea:	6b 2d       	mov	r22, r11
    43ec:	70 e0       	ldi	r23, 0x00	; 0
    43ee:	0e 94 44 22 	call	0x4488	; 0x4488 <__divmodhi4>
    43f2:	cb 01       	movw	r24, r22
    43f4:	05 c0       	rjmp	.+10     	; 0x4400 <main+0xd26>
					} else {
						if (RGB_light_correction == RGB_MIN_DIV) {
    43f6:	26 e0       	ldi	r18, 0x06	; 6
    43f8:	b2 16       	cp	r11, r18
    43fa:	29 f4       	brne	.+10     	; 0x4406 <main+0xd2c>
							set_nixie_rgb(0, 0, 0);
    43fc:	80 e0       	ldi	r24, 0x00	; 0
    43fe:	90 e0       	ldi	r25, 0x00	; 0
    4400:	60 e0       	ldi	r22, 0x00	; 0
    4402:	70 e0       	ldi	r23, 0x00	; 0
    4404:	04 c0       	rjmp	.+8      	; 0x440e <main+0xd34>
						} else {
							set_nixie_rgb(65, 12, 0);
    4406:	81 e4       	ldi	r24, 0x41	; 65
    4408:	90 e0       	ldi	r25, 0x00	; 0
    440a:	6c e0       	ldi	r22, 0x0C	; 12
    440c:	70 e0       	ldi	r23, 0x00	; 0
    440e:	40 e0       	ldi	r20, 0x00	; 0
    4410:	50 e0       	ldi	r21, 0x00	; 0
    4412:	0e 94 f0 14 	call	0x29e0	; 0x29e0 <set_nixie_rgb>
						}
					}

					all_nixies_off();
    4416:	0e 94 96 15 	call	0x2b2c	; 0x2b2c <all_nixies_off>
    441a:	1d a2       	std	Y+37, r1	; 0x25
    441c:	66 24       	eor	r6, r6
    441e:	77 24       	eor	r7, r7
    4420:	43 01       	movw	r8, r6
					break;

				}

				//mainStatePrev = NIXIE_DISPLAY;
				periodicTasks = REFRESHRATE_WAIT;
    4422:	83 e0       	ldi	r24, 0x03	; 3
    4424:	80 93 23 07 	sts	0x0723, r24
    4428:	1c cc       	rjmp	.-1992   	; 0x3c62 <main+0x588>

		case NONPERIODIC:
#if PRINT_STATES==1
			usart_printf("\nNON_PERIODIC");
#endif
			switch (nonperiodicTasks) {
    442a:	80 91 25 07 	lds	r24, 0x0725
    442e:	88 23       	and	r24, r24
    4430:	09 f0       	breq	.+2      	; 0x4434 <main+0xd5a>
    4432:	17 cc       	rjmp	.-2002   	; 0x3c62 <main+0x588>
			case SYS_CTRL:
				if (was_butt1_int) {
    4434:	80 91 29 07 	lds	r24, 0x0729
    4438:	88 23       	and	r24, r24
    443a:	51 f0       	breq	.+20     	; 0x4450 <main+0xd76>
					was_butt1_int = false;
    443c:	10 92 29 07 	sts	0x0729, r1
					butt_1_cnt++;
					//lcd_gotoxy(0, 1);
					//lcd_printf("butt1 %d", butt_1_cnt);
					button_enable_show_maintanance = true;
					TOUCH_BUTTON_1_FC;
    4440:	88 b7       	in	r24, 0x38	; 56
    4442:	80 62       	ori	r24, 0x20	; 32
    4444:	88 bf       	out	0x38, r24	; 56
					TOUCH_BUTTON_1_IE;
    4446:	89 b7       	in	r24, 0x39	; 57
    4448:	80 62       	ori	r24, 0x20	; 32
    444a:	89 bf       	out	0x39, r24	; 57
    444c:	31 e0       	ldi	r19, 0x01	; 1
    444e:	3b a3       	std	Y+35, r19	; 0x23
				}
				if (was_butt2_int) {
    4450:	80 91 2a 07 	lds	r24, 0x072A
    4454:	88 23       	and	r24, r24
    4456:	51 f0       	breq	.+20     	; 0x446c <main+0xd92>
					was_butt2_int = false;
    4458:	10 92 2a 07 	sts	0x072A, r1
					butt_2_cnt++;
					//lcd_gotoxy(0, 1);
					//lcd_printf("butt2 %d", butt_2_cnt);
					button_enable_show_nixie = true;
					TOUCH_BUTTON_2_FC;
    445c:	88 b7       	in	r24, 0x38	; 56
    445e:	80 64       	ori	r24, 0x40	; 64
    4460:	88 bf       	out	0x38, r24	; 56
					TOUCH_BUTTON_2_IE;
    4462:	89 b7       	in	r24, 0x39	; 57
    4464:	80 64       	ori	r24, 0x40	; 64
    4466:	89 bf       	out	0x39, r24	; 57
    4468:	81 e0       	ldi	r24, 0x01	; 1
    446a:	8c a3       	std	Y+36, r24	; 0x24
				}
				//mainStatePrev = SYS_CTRL;
				mainStateNext = PERIODIC;
    446c:	81 e0       	ldi	r24, 0x01	; 1
    446e:	4d cc       	rjmp	.-1894   	; 0x3d0a <main+0x630>

00004470 <__udivmodqi4>:
    4470:	99 1b       	sub	r25, r25
    4472:	79 e0       	ldi	r23, 0x09	; 9
    4474:	04 c0       	rjmp	.+8      	; 0x447e <__udivmodqi4_ep>

00004476 <__udivmodqi4_loop>:
    4476:	99 1f       	adc	r25, r25
    4478:	96 17       	cp	r25, r22
    447a:	08 f0       	brcs	.+2      	; 0x447e <__udivmodqi4_ep>
    447c:	96 1b       	sub	r25, r22

0000447e <__udivmodqi4_ep>:
    447e:	88 1f       	adc	r24, r24
    4480:	7a 95       	dec	r23
    4482:	c9 f7       	brne	.-14     	; 0x4476 <__udivmodqi4_loop>
    4484:	80 95       	com	r24
    4486:	08 95       	ret

00004488 <__divmodhi4>:
    4488:	97 fb       	bst	r25, 7
    448a:	09 2e       	mov	r0, r25
    448c:	07 26       	eor	r0, r23
    448e:	0a d0       	rcall	.+20     	; 0x44a4 <__divmodhi4_neg1>
    4490:	77 fd       	sbrc	r23, 7
    4492:	04 d0       	rcall	.+8      	; 0x449c <__divmodhi4_neg2>
    4494:	0c d0       	rcall	.+24     	; 0x44ae <__udivmodhi4>
    4496:	06 d0       	rcall	.+12     	; 0x44a4 <__divmodhi4_neg1>
    4498:	00 20       	and	r0, r0
    449a:	1a f4       	brpl	.+6      	; 0x44a2 <__divmodhi4_exit>

0000449c <__divmodhi4_neg2>:
    449c:	70 95       	com	r23
    449e:	61 95       	neg	r22
    44a0:	7f 4f       	sbci	r23, 0xFF	; 255

000044a2 <__divmodhi4_exit>:
    44a2:	08 95       	ret

000044a4 <__divmodhi4_neg1>:
    44a4:	f6 f7       	brtc	.-4      	; 0x44a2 <__divmodhi4_exit>
    44a6:	90 95       	com	r25
    44a8:	81 95       	neg	r24
    44aa:	9f 4f       	sbci	r25, 0xFF	; 255
    44ac:	08 95       	ret

000044ae <__udivmodhi4>:
    44ae:	aa 1b       	sub	r26, r26
    44b0:	bb 1b       	sub	r27, r27
    44b2:	51 e1       	ldi	r21, 0x11	; 17
    44b4:	07 c0       	rjmp	.+14     	; 0x44c4 <__udivmodhi4_ep>

000044b6 <__udivmodhi4_loop>:
    44b6:	aa 1f       	adc	r26, r26
    44b8:	bb 1f       	adc	r27, r27
    44ba:	a6 17       	cp	r26, r22
    44bc:	b7 07       	cpc	r27, r23
    44be:	10 f0       	brcs	.+4      	; 0x44c4 <__udivmodhi4_ep>
    44c0:	a6 1b       	sub	r26, r22
    44c2:	b7 0b       	sbc	r27, r23

000044c4 <__udivmodhi4_ep>:
    44c4:	88 1f       	adc	r24, r24
    44c6:	99 1f       	adc	r25, r25
    44c8:	5a 95       	dec	r21
    44ca:	a9 f7       	brne	.-22     	; 0x44b6 <__udivmodhi4_loop>
    44cc:	80 95       	com	r24
    44ce:	90 95       	com	r25
    44d0:	bc 01       	movw	r22, r24
    44d2:	cd 01       	movw	r24, r26
    44d4:	08 95       	ret

000044d6 <__prologue_saves__>:
    44d6:	2f 92       	push	r2
    44d8:	3f 92       	push	r3
    44da:	4f 92       	push	r4
    44dc:	5f 92       	push	r5
    44de:	6f 92       	push	r6
    44e0:	7f 92       	push	r7
    44e2:	8f 92       	push	r8
    44e4:	9f 92       	push	r9
    44e6:	af 92       	push	r10
    44e8:	bf 92       	push	r11
    44ea:	cf 92       	push	r12
    44ec:	df 92       	push	r13
    44ee:	ef 92       	push	r14
    44f0:	ff 92       	push	r15
    44f2:	0f 93       	push	r16
    44f4:	1f 93       	push	r17
    44f6:	cf 93       	push	r28
    44f8:	df 93       	push	r29
    44fa:	cd b7       	in	r28, 0x3d	; 61
    44fc:	de b7       	in	r29, 0x3e	; 62
    44fe:	ca 1b       	sub	r28, r26
    4500:	db 0b       	sbc	r29, r27
    4502:	0f b6       	in	r0, 0x3f	; 63
    4504:	f8 94       	cli
    4506:	de bf       	out	0x3e, r29	; 62
    4508:	0f be       	out	0x3f, r0	; 63
    450a:	cd bf       	out	0x3d, r28	; 61
    450c:	09 94       	ijmp

0000450e <__epilogue_restores__>:
    450e:	2a 88       	ldd	r2, Y+18	; 0x12
    4510:	39 88       	ldd	r3, Y+17	; 0x11
    4512:	48 88       	ldd	r4, Y+16	; 0x10
    4514:	5f 84       	ldd	r5, Y+15	; 0x0f
    4516:	6e 84       	ldd	r6, Y+14	; 0x0e
    4518:	7d 84       	ldd	r7, Y+13	; 0x0d
    451a:	8c 84       	ldd	r8, Y+12	; 0x0c
    451c:	9b 84       	ldd	r9, Y+11	; 0x0b
    451e:	aa 84       	ldd	r10, Y+10	; 0x0a
    4520:	b9 84       	ldd	r11, Y+9	; 0x09
    4522:	c8 84       	ldd	r12, Y+8	; 0x08
    4524:	df 80       	ldd	r13, Y+7	; 0x07
    4526:	ee 80       	ldd	r14, Y+6	; 0x06
    4528:	fd 80       	ldd	r15, Y+5	; 0x05
    452a:	0c 81       	ldd	r16, Y+4	; 0x04
    452c:	1b 81       	ldd	r17, Y+3	; 0x03
    452e:	aa 81       	ldd	r26, Y+2	; 0x02
    4530:	b9 81       	ldd	r27, Y+1	; 0x01
    4532:	ce 0f       	add	r28, r30
    4534:	d1 1d       	adc	r29, r1
    4536:	0f b6       	in	r0, 0x3f	; 63
    4538:	f8 94       	cli
    453a:	de bf       	out	0x3e, r29	; 62
    453c:	0f be       	out	0x3f, r0	; 63
    453e:	cd bf       	out	0x3d, r28	; 61
    4540:	ed 01       	movw	r28, r26
    4542:	08 95       	ret

00004544 <dtostrf>:
    4544:	ef 92       	push	r14
    4546:	ff 92       	push	r15
    4548:	0f 93       	push	r16
    454a:	1f 93       	push	r17
    454c:	f2 2f       	mov	r31, r18
    454e:	f0 2e       	mov	r15, r16
    4550:	47 fd       	sbrc	r20, 7
    4552:	02 c0       	rjmp	.+4      	; 0x4558 <dtostrf+0x14>
    4554:	e4 e0       	ldi	r30, 0x04	; 4
    4556:	01 c0       	rjmp	.+2      	; 0x455a <dtostrf+0x16>
    4558:	e4 e1       	ldi	r30, 0x14	; 20
    455a:	24 2f       	mov	r18, r20
    455c:	33 27       	eor	r19, r19
    455e:	27 fd       	sbrc	r18, 7
    4560:	30 95       	com	r19
    4562:	37 ff       	sbrs	r19, 7
    4564:	03 c0       	rjmp	.+6      	; 0x456c <dtostrf+0x28>
    4566:	30 95       	com	r19
    4568:	21 95       	neg	r18
    456a:	3f 4f       	sbci	r19, 0xFF	; 255
    456c:	4f 2d       	mov	r20, r15
    456e:	51 2f       	mov	r21, r17
    4570:	0f 2f       	mov	r16, r31
    4572:	ee 2e       	mov	r14, r30
    4574:	0e 94 b1 26 	call	0x4d62	; 0x4d62 <dtoa_prf>
    4578:	8f 2d       	mov	r24, r15
    457a:	91 2f       	mov	r25, r17
    457c:	1f 91       	pop	r17
    457e:	0f 91       	pop	r16
    4580:	ff 90       	pop	r15
    4582:	ef 90       	pop	r14
    4584:	08 95       	ret

00004586 <malloc>:
    4586:	cf 93       	push	r28
    4588:	df 93       	push	r29
    458a:	bc 01       	movw	r22, r24
    458c:	82 30       	cpi	r24, 0x02	; 2
    458e:	91 05       	cpc	r25, r1
    4590:	10 f4       	brcc	.+4      	; 0x4596 <malloc+0x10>
    4592:	62 e0       	ldi	r22, 0x02	; 2
    4594:	70 e0       	ldi	r23, 0x00	; 0
    4596:	a0 91 db 09 	lds	r26, 0x09DB
    459a:	b0 91 dc 09 	lds	r27, 0x09DC
    459e:	ed 01       	movw	r28, r26
    45a0:	e0 e0       	ldi	r30, 0x00	; 0
    45a2:	f0 e0       	ldi	r31, 0x00	; 0
    45a4:	40 e0       	ldi	r20, 0x00	; 0
    45a6:	50 e0       	ldi	r21, 0x00	; 0
    45a8:	21 c0       	rjmp	.+66     	; 0x45ec <malloc+0x66>
    45aa:	88 81       	ld	r24, Y
    45ac:	99 81       	ldd	r25, Y+1	; 0x01
    45ae:	86 17       	cp	r24, r22
    45b0:	97 07       	cpc	r25, r23
    45b2:	69 f4       	brne	.+26     	; 0x45ce <malloc+0x48>
    45b4:	8a 81       	ldd	r24, Y+2	; 0x02
    45b6:	9b 81       	ldd	r25, Y+3	; 0x03
    45b8:	30 97       	sbiw	r30, 0x00	; 0
    45ba:	19 f0       	breq	.+6      	; 0x45c2 <malloc+0x3c>
    45bc:	93 83       	std	Z+3, r25	; 0x03
    45be:	82 83       	std	Z+2, r24	; 0x02
    45c0:	04 c0       	rjmp	.+8      	; 0x45ca <malloc+0x44>
    45c2:	90 93 dc 09 	sts	0x09DC, r25
    45c6:	80 93 db 09 	sts	0x09DB, r24
    45ca:	fe 01       	movw	r30, r28
    45cc:	34 c0       	rjmp	.+104    	; 0x4636 <malloc+0xb0>
    45ce:	68 17       	cp	r22, r24
    45d0:	79 07       	cpc	r23, r25
    45d2:	38 f4       	brcc	.+14     	; 0x45e2 <malloc+0x5c>
    45d4:	41 15       	cp	r20, r1
    45d6:	51 05       	cpc	r21, r1
    45d8:	19 f0       	breq	.+6      	; 0x45e0 <malloc+0x5a>
    45da:	84 17       	cp	r24, r20
    45dc:	95 07       	cpc	r25, r21
    45de:	08 f4       	brcc	.+2      	; 0x45e2 <malloc+0x5c>
    45e0:	ac 01       	movw	r20, r24
    45e2:	fe 01       	movw	r30, r28
    45e4:	8a 81       	ldd	r24, Y+2	; 0x02
    45e6:	9b 81       	ldd	r25, Y+3	; 0x03
    45e8:	9c 01       	movw	r18, r24
    45ea:	e9 01       	movw	r28, r18
    45ec:	20 97       	sbiw	r28, 0x00	; 0
    45ee:	e9 f6       	brne	.-70     	; 0x45aa <malloc+0x24>
    45f0:	41 15       	cp	r20, r1
    45f2:	51 05       	cpc	r21, r1
    45f4:	a9 f1       	breq	.+106    	; 0x4660 <malloc+0xda>
    45f6:	ca 01       	movw	r24, r20
    45f8:	86 1b       	sub	r24, r22
    45fa:	97 0b       	sbc	r25, r23
    45fc:	04 97       	sbiw	r24, 0x04	; 4
    45fe:	08 f4       	brcc	.+2      	; 0x4602 <malloc+0x7c>
    4600:	ba 01       	movw	r22, r20
    4602:	e0 e0       	ldi	r30, 0x00	; 0
    4604:	f0 e0       	ldi	r31, 0x00	; 0
    4606:	2a c0       	rjmp	.+84     	; 0x465c <malloc+0xd6>
    4608:	8d 91       	ld	r24, X+
    460a:	9c 91       	ld	r25, X
    460c:	11 97       	sbiw	r26, 0x01	; 1
    460e:	84 17       	cp	r24, r20
    4610:	95 07       	cpc	r25, r21
    4612:	f9 f4       	brne	.+62     	; 0x4652 <malloc+0xcc>
    4614:	64 17       	cp	r22, r20
    4616:	75 07       	cpc	r23, r21
    4618:	81 f4       	brne	.+32     	; 0x463a <malloc+0xb4>
    461a:	12 96       	adiw	r26, 0x02	; 2
    461c:	8d 91       	ld	r24, X+
    461e:	9c 91       	ld	r25, X
    4620:	13 97       	sbiw	r26, 0x03	; 3
    4622:	30 97       	sbiw	r30, 0x00	; 0
    4624:	19 f0       	breq	.+6      	; 0x462c <malloc+0xa6>
    4626:	93 83       	std	Z+3, r25	; 0x03
    4628:	82 83       	std	Z+2, r24	; 0x02
    462a:	04 c0       	rjmp	.+8      	; 0x4634 <malloc+0xae>
    462c:	90 93 dc 09 	sts	0x09DC, r25
    4630:	80 93 db 09 	sts	0x09DB, r24
    4634:	fd 01       	movw	r30, r26
    4636:	32 96       	adiw	r30, 0x02	; 2
    4638:	4f c0       	rjmp	.+158    	; 0x46d8 <malloc+0x152>
    463a:	ca 01       	movw	r24, r20
    463c:	86 1b       	sub	r24, r22
    463e:	97 0b       	sbc	r25, r23
    4640:	fd 01       	movw	r30, r26
    4642:	e8 0f       	add	r30, r24
    4644:	f9 1f       	adc	r31, r25
    4646:	61 93       	st	Z+, r22
    4648:	71 93       	st	Z+, r23
    464a:	02 97       	sbiw	r24, 0x02	; 2
    464c:	8d 93       	st	X+, r24
    464e:	9c 93       	st	X, r25
    4650:	43 c0       	rjmp	.+134    	; 0x46d8 <malloc+0x152>
    4652:	fd 01       	movw	r30, r26
    4654:	82 81       	ldd	r24, Z+2	; 0x02
    4656:	93 81       	ldd	r25, Z+3	; 0x03
    4658:	9c 01       	movw	r18, r24
    465a:	d9 01       	movw	r26, r18
    465c:	10 97       	sbiw	r26, 0x00	; 0
    465e:	a1 f6       	brne	.-88     	; 0x4608 <malloc+0x82>
    4660:	80 91 d9 09 	lds	r24, 0x09D9
    4664:	90 91 da 09 	lds	r25, 0x09DA
    4668:	89 2b       	or	r24, r25
    466a:	41 f4       	brne	.+16     	; 0x467c <malloc+0xf6>
    466c:	80 91 02 07 	lds	r24, 0x0702
    4670:	90 91 03 07 	lds	r25, 0x0703
    4674:	90 93 da 09 	sts	0x09DA, r25
    4678:	80 93 d9 09 	sts	0x09D9, r24
    467c:	40 91 04 07 	lds	r20, 0x0704
    4680:	50 91 05 07 	lds	r21, 0x0705
    4684:	41 15       	cp	r20, r1
    4686:	51 05       	cpc	r21, r1
    4688:	41 f4       	brne	.+16     	; 0x469a <malloc+0x114>
    468a:	4d b7       	in	r20, 0x3d	; 61
    468c:	5e b7       	in	r21, 0x3e	; 62
    468e:	80 91 00 07 	lds	r24, 0x0700
    4692:	90 91 01 07 	lds	r25, 0x0701
    4696:	48 1b       	sub	r20, r24
    4698:	59 0b       	sbc	r21, r25
    469a:	20 91 d9 09 	lds	r18, 0x09D9
    469e:	30 91 da 09 	lds	r19, 0x09DA
    46a2:	24 17       	cp	r18, r20
    46a4:	35 07       	cpc	r19, r21
    46a6:	b0 f4       	brcc	.+44     	; 0x46d4 <malloc+0x14e>
    46a8:	ca 01       	movw	r24, r20
    46aa:	82 1b       	sub	r24, r18
    46ac:	93 0b       	sbc	r25, r19
    46ae:	86 17       	cp	r24, r22
    46b0:	97 07       	cpc	r25, r23
    46b2:	80 f0       	brcs	.+32     	; 0x46d4 <malloc+0x14e>
    46b4:	ab 01       	movw	r20, r22
    46b6:	4e 5f       	subi	r20, 0xFE	; 254
    46b8:	5f 4f       	sbci	r21, 0xFF	; 255
    46ba:	84 17       	cp	r24, r20
    46bc:	95 07       	cpc	r25, r21
    46be:	50 f0       	brcs	.+20     	; 0x46d4 <malloc+0x14e>
    46c0:	42 0f       	add	r20, r18
    46c2:	53 1f       	adc	r21, r19
    46c4:	50 93 da 09 	sts	0x09DA, r21
    46c8:	40 93 d9 09 	sts	0x09D9, r20
    46cc:	f9 01       	movw	r30, r18
    46ce:	61 93       	st	Z+, r22
    46d0:	71 93       	st	Z+, r23
    46d2:	02 c0       	rjmp	.+4      	; 0x46d8 <malloc+0x152>
    46d4:	e0 e0       	ldi	r30, 0x00	; 0
    46d6:	f0 e0       	ldi	r31, 0x00	; 0
    46d8:	cf 01       	movw	r24, r30
    46da:	df 91       	pop	r29
    46dc:	cf 91       	pop	r28
    46de:	08 95       	ret

000046e0 <free>:
    46e0:	cf 93       	push	r28
    46e2:	df 93       	push	r29
    46e4:	00 97       	sbiw	r24, 0x00	; 0
    46e6:	09 f4       	brne	.+2      	; 0x46ea <free+0xa>
    46e8:	50 c0       	rjmp	.+160    	; 0x478a <free+0xaa>
    46ea:	ec 01       	movw	r28, r24
    46ec:	22 97       	sbiw	r28, 0x02	; 2
    46ee:	1b 82       	std	Y+3, r1	; 0x03
    46f0:	1a 82       	std	Y+2, r1	; 0x02
    46f2:	a0 91 db 09 	lds	r26, 0x09DB
    46f6:	b0 91 dc 09 	lds	r27, 0x09DC
    46fa:	10 97       	sbiw	r26, 0x00	; 0
    46fc:	09 f1       	breq	.+66     	; 0x4740 <free+0x60>
    46fe:	40 e0       	ldi	r20, 0x00	; 0
    4700:	50 e0       	ldi	r21, 0x00	; 0
    4702:	ac 17       	cp	r26, r28
    4704:	bd 07       	cpc	r27, r29
    4706:	08 f1       	brcs	.+66     	; 0x474a <free+0x6a>
    4708:	bb 83       	std	Y+3, r27	; 0x03
    470a:	aa 83       	std	Y+2, r26	; 0x02
    470c:	fe 01       	movw	r30, r28
    470e:	21 91       	ld	r18, Z+
    4710:	31 91       	ld	r19, Z+
    4712:	e2 0f       	add	r30, r18
    4714:	f3 1f       	adc	r31, r19
    4716:	ae 17       	cp	r26, r30
    4718:	bf 07       	cpc	r27, r31
    471a:	79 f4       	brne	.+30     	; 0x473a <free+0x5a>
    471c:	8d 91       	ld	r24, X+
    471e:	9c 91       	ld	r25, X
    4720:	11 97       	sbiw	r26, 0x01	; 1
    4722:	28 0f       	add	r18, r24
    4724:	39 1f       	adc	r19, r25
    4726:	2e 5f       	subi	r18, 0xFE	; 254
    4728:	3f 4f       	sbci	r19, 0xFF	; 255
    472a:	39 83       	std	Y+1, r19	; 0x01
    472c:	28 83       	st	Y, r18
    472e:	12 96       	adiw	r26, 0x02	; 2
    4730:	8d 91       	ld	r24, X+
    4732:	9c 91       	ld	r25, X
    4734:	13 97       	sbiw	r26, 0x03	; 3
    4736:	9b 83       	std	Y+3, r25	; 0x03
    4738:	8a 83       	std	Y+2, r24	; 0x02
    473a:	41 15       	cp	r20, r1
    473c:	51 05       	cpc	r21, r1
    473e:	71 f4       	brne	.+28     	; 0x475c <free+0x7c>
    4740:	d0 93 dc 09 	sts	0x09DC, r29
    4744:	c0 93 db 09 	sts	0x09DB, r28
    4748:	20 c0       	rjmp	.+64     	; 0x478a <free+0xaa>
    474a:	12 96       	adiw	r26, 0x02	; 2
    474c:	8d 91       	ld	r24, X+
    474e:	9c 91       	ld	r25, X
    4750:	13 97       	sbiw	r26, 0x03	; 3
    4752:	ad 01       	movw	r20, r26
    4754:	00 97       	sbiw	r24, 0x00	; 0
    4756:	11 f0       	breq	.+4      	; 0x475c <free+0x7c>
    4758:	dc 01       	movw	r26, r24
    475a:	d3 cf       	rjmp	.-90     	; 0x4702 <free+0x22>
    475c:	fa 01       	movw	r30, r20
    475e:	d3 83       	std	Z+3, r29	; 0x03
    4760:	c2 83       	std	Z+2, r28	; 0x02
    4762:	21 91       	ld	r18, Z+
    4764:	31 91       	ld	r19, Z+
    4766:	e2 0f       	add	r30, r18
    4768:	f3 1f       	adc	r31, r19
    476a:	ce 17       	cp	r28, r30
    476c:	df 07       	cpc	r29, r31
    476e:	69 f4       	brne	.+26     	; 0x478a <free+0xaa>
    4770:	88 81       	ld	r24, Y
    4772:	99 81       	ldd	r25, Y+1	; 0x01
    4774:	28 0f       	add	r18, r24
    4776:	39 1f       	adc	r19, r25
    4778:	2e 5f       	subi	r18, 0xFE	; 254
    477a:	3f 4f       	sbci	r19, 0xFF	; 255
    477c:	fa 01       	movw	r30, r20
    477e:	31 83       	std	Z+1, r19	; 0x01
    4780:	20 83       	st	Z, r18
    4782:	8a 81       	ldd	r24, Y+2	; 0x02
    4784:	9b 81       	ldd	r25, Y+3	; 0x03
    4786:	93 83       	std	Z+3, r25	; 0x03
    4788:	82 83       	std	Z+2, r24	; 0x02
    478a:	df 91       	pop	r29
    478c:	cf 91       	pop	r28
    478e:	08 95       	ret

00004790 <do_rand>:
    4790:	a0 e0       	ldi	r26, 0x00	; 0
    4792:	b0 e0       	ldi	r27, 0x00	; 0
    4794:	ee ec       	ldi	r30, 0xCE	; 206
    4796:	f3 e2       	ldi	r31, 0x23	; 35
    4798:	0c 94 73 22 	jmp	0x44e6	; 0x44e6 <__prologue_saves__+0x10>
    479c:	ec 01       	movw	r28, r24
    479e:	a8 80       	ld	r10, Y
    47a0:	b9 80       	ldd	r11, Y+1	; 0x01
    47a2:	ca 80       	ldd	r12, Y+2	; 0x02
    47a4:	db 80       	ldd	r13, Y+3	; 0x03
    47a6:	a1 14       	cp	r10, r1
    47a8:	b1 04       	cpc	r11, r1
    47aa:	c1 04       	cpc	r12, r1
    47ac:	d1 04       	cpc	r13, r1
    47ae:	41 f4       	brne	.+16     	; 0x47c0 <do_rand+0x30>
    47b0:	84 e2       	ldi	r24, 0x24	; 36
    47b2:	a8 2e       	mov	r10, r24
    47b4:	89 ed       	ldi	r24, 0xD9	; 217
    47b6:	b8 2e       	mov	r11, r24
    47b8:	8b e5       	ldi	r24, 0x5B	; 91
    47ba:	c8 2e       	mov	r12, r24
    47bc:	87 e0       	ldi	r24, 0x07	; 7
    47be:	d8 2e       	mov	r13, r24
    47c0:	c6 01       	movw	r24, r12
    47c2:	b5 01       	movw	r22, r10
    47c4:	2d e1       	ldi	r18, 0x1D	; 29
    47c6:	33 ef       	ldi	r19, 0xF3	; 243
    47c8:	41 e0       	ldi	r20, 0x01	; 1
    47ca:	50 e0       	ldi	r21, 0x00	; 0
    47cc:	0e 94 19 2c 	call	0x5832	; 0x5832 <__divmodsi4>
    47d0:	27 ea       	ldi	r18, 0xA7	; 167
    47d2:	31 e4       	ldi	r19, 0x41	; 65
    47d4:	40 e0       	ldi	r20, 0x00	; 0
    47d6:	50 e0       	ldi	r21, 0x00	; 0
    47d8:	0e 94 fa 2b 	call	0x57f4	; 0x57f4 <__mulsi3>
    47dc:	7b 01       	movw	r14, r22
    47de:	8c 01       	movw	r16, r24
    47e0:	c6 01       	movw	r24, r12
    47e2:	b5 01       	movw	r22, r10
    47e4:	2d e1       	ldi	r18, 0x1D	; 29
    47e6:	33 ef       	ldi	r19, 0xF3	; 243
    47e8:	41 e0       	ldi	r20, 0x01	; 1
    47ea:	50 e0       	ldi	r21, 0x00	; 0
    47ec:	0e 94 19 2c 	call	0x5832	; 0x5832 <__divmodsi4>
    47f0:	ca 01       	movw	r24, r20
    47f2:	b9 01       	movw	r22, r18
    47f4:	2c ee       	ldi	r18, 0xEC	; 236
    47f6:	34 ef       	ldi	r19, 0xF4	; 244
    47f8:	4f ef       	ldi	r20, 0xFF	; 255
    47fa:	5f ef       	ldi	r21, 0xFF	; 255
    47fc:	0e 94 fa 2b 	call	0x57f4	; 0x57f4 <__mulsi3>
    4800:	6e 0d       	add	r22, r14
    4802:	7f 1d       	adc	r23, r15
    4804:	80 1f       	adc	r24, r16
    4806:	91 1f       	adc	r25, r17
    4808:	97 ff       	sbrs	r25, 7
    480a:	04 c0       	rjmp	.+8      	; 0x4814 <do_rand+0x84>
    480c:	61 50       	subi	r22, 0x01	; 1
    480e:	70 40       	sbci	r23, 0x00	; 0
    4810:	80 40       	sbci	r24, 0x00	; 0
    4812:	90 48       	sbci	r25, 0x80	; 128
    4814:	68 83       	st	Y, r22
    4816:	79 83       	std	Y+1, r23	; 0x01
    4818:	8a 83       	std	Y+2, r24	; 0x02
    481a:	9b 83       	std	Y+3, r25	; 0x03
    481c:	9b 01       	movw	r18, r22
    481e:	3f 77       	andi	r19, 0x7F	; 127
    4820:	c9 01       	movw	r24, r18
    4822:	cd b7       	in	r28, 0x3d	; 61
    4824:	de b7       	in	r29, 0x3e	; 62
    4826:	ea e0       	ldi	r30, 0x0A	; 10
    4828:	0c 94 8f 22 	jmp	0x451e	; 0x451e <__epilogue_restores__+0x10>

0000482c <rand_r>:
    482c:	0e 94 c8 23 	call	0x4790	; 0x4790 <do_rand>
    4830:	08 95       	ret

00004832 <rand>:
    4832:	86 e0       	ldi	r24, 0x06	; 6
    4834:	97 e0       	ldi	r25, 0x07	; 7
    4836:	0e 94 c8 23 	call	0x4790	; 0x4790 <do_rand>
    483a:	08 95       	ret

0000483c <srand>:
    483c:	a0 e0       	ldi	r26, 0x00	; 0
    483e:	b0 e0       	ldi	r27, 0x00	; 0
    4840:	80 93 06 07 	sts	0x0706, r24
    4844:	90 93 07 07 	sts	0x0707, r25
    4848:	a0 93 08 07 	sts	0x0708, r26
    484c:	b0 93 09 07 	sts	0x0709, r27
    4850:	08 95       	ret

00004852 <atof>:
    4852:	66 27       	eor	r22, r22
    4854:	77 27       	eor	r23, r23
    4856:	0c 94 13 28 	jmp	0x5026	; 0x5026 <strtod>

0000485a <atoi>:
    485a:	fc 01       	movw	r30, r24
    485c:	88 27       	eor	r24, r24
    485e:	99 27       	eor	r25, r25
    4860:	e8 94       	clt
    4862:	21 91       	ld	r18, Z+
    4864:	20 32       	cpi	r18, 0x20	; 32
    4866:	e9 f3       	breq	.-6      	; 0x4862 <atoi+0x8>
    4868:	29 30       	cpi	r18, 0x09	; 9
    486a:	10 f0       	brcs	.+4      	; 0x4870 <atoi+0x16>
    486c:	2e 30       	cpi	r18, 0x0E	; 14
    486e:	c8 f3       	brcs	.-14     	; 0x4862 <atoi+0x8>
    4870:	2b 32       	cpi	r18, 0x2B	; 43
    4872:	41 f0       	breq	.+16     	; 0x4884 <atoi+0x2a>
    4874:	2d 32       	cpi	r18, 0x2D	; 45
    4876:	39 f4       	brne	.+14     	; 0x4886 <atoi+0x2c>
    4878:	68 94       	set
    487a:	04 c0       	rjmp	.+8      	; 0x4884 <atoi+0x2a>
    487c:	0e 94 b0 24 	call	0x4960	; 0x4960 <__mulhi_const_10>
    4880:	82 0f       	add	r24, r18
    4882:	91 1d       	adc	r25, r1
    4884:	21 91       	ld	r18, Z+
    4886:	20 53       	subi	r18, 0x30	; 48
    4888:	2a 30       	cpi	r18, 0x0A	; 10
    488a:	c0 f3       	brcs	.-16     	; 0x487c <atoi+0x22>
    488c:	1e f4       	brtc	.+6      	; 0x4894 <atoi+0x3a>
    488e:	90 95       	com	r25
    4890:	81 95       	neg	r24
    4892:	9f 4f       	sbci	r25, 0xFF	; 255
    4894:	08 95       	ret

00004896 <memcpy>:
    4896:	fb 01       	movw	r30, r22
    4898:	dc 01       	movw	r26, r24
    489a:	02 c0       	rjmp	.+4      	; 0x48a0 <memcpy+0xa>
    489c:	01 90       	ld	r0, Z+
    489e:	0d 92       	st	X+, r0
    48a0:	41 50       	subi	r20, 0x01	; 1
    48a2:	50 40       	sbci	r21, 0x00	; 0
    48a4:	d8 f7       	brcc	.-10     	; 0x489c <memcpy+0x6>
    48a6:	08 95       	ret

000048a8 <strcat>:
    48a8:	fb 01       	movw	r30, r22
    48aa:	dc 01       	movw	r26, r24
    48ac:	0d 90       	ld	r0, X+
    48ae:	00 20       	and	r0, r0
    48b0:	e9 f7       	brne	.-6      	; 0x48ac <strcat+0x4>
    48b2:	11 97       	sbiw	r26, 0x01	; 1
    48b4:	01 90       	ld	r0, Z+
    48b6:	0d 92       	st	X+, r0
    48b8:	00 20       	and	r0, r0
    48ba:	e1 f7       	brne	.-8      	; 0x48b4 <strcat+0xc>
    48bc:	08 95       	ret

000048be <strcpy>:
    48be:	fb 01       	movw	r30, r22
    48c0:	dc 01       	movw	r26, r24
    48c2:	01 90       	ld	r0, Z+
    48c4:	0d 92       	st	X+, r0
    48c6:	00 20       	and	r0, r0
    48c8:	e1 f7       	brne	.-8      	; 0x48c2 <strcpy+0x4>
    48ca:	08 95       	ret

000048cc <strncpy>:
    48cc:	fb 01       	movw	r30, r22
    48ce:	dc 01       	movw	r26, r24
    48d0:	41 50       	subi	r20, 0x01	; 1
    48d2:	50 40       	sbci	r21, 0x00	; 0
    48d4:	48 f0       	brcs	.+18     	; 0x48e8 <strncpy+0x1c>
    48d6:	01 90       	ld	r0, Z+
    48d8:	0d 92       	st	X+, r0
    48da:	00 20       	and	r0, r0
    48dc:	c9 f7       	brne	.-14     	; 0x48d0 <strncpy+0x4>
    48de:	01 c0       	rjmp	.+2      	; 0x48e2 <strncpy+0x16>
    48e0:	1d 92       	st	X+, r1
    48e2:	41 50       	subi	r20, 0x01	; 1
    48e4:	50 40       	sbci	r21, 0x00	; 0
    48e6:	e0 f7       	brcc	.-8      	; 0x48e0 <strncpy+0x14>
    48e8:	08 95       	ret

000048ea <strstr>:
    48ea:	fb 01       	movw	r30, r22
    48ec:	51 91       	ld	r21, Z+
    48ee:	55 23       	and	r21, r21
    48f0:	a9 f0       	breq	.+42     	; 0x491c <strstr+0x32>
    48f2:	bf 01       	movw	r22, r30
    48f4:	dc 01       	movw	r26, r24
    48f6:	4d 91       	ld	r20, X+
    48f8:	45 17       	cp	r20, r21
    48fa:	41 11       	cpse	r20, r1
    48fc:	e1 f7       	brne	.-8      	; 0x48f6 <strstr+0xc>
    48fe:	59 f4       	brne	.+22     	; 0x4916 <strstr+0x2c>
    4900:	cd 01       	movw	r24, r26
    4902:	01 90       	ld	r0, Z+
    4904:	00 20       	and	r0, r0
    4906:	49 f0       	breq	.+18     	; 0x491a <strstr+0x30>
    4908:	4d 91       	ld	r20, X+
    490a:	40 15       	cp	r20, r0
    490c:	41 11       	cpse	r20, r1
    490e:	c9 f3       	breq	.-14     	; 0x4902 <strstr+0x18>
    4910:	fb 01       	movw	r30, r22
    4912:	41 11       	cpse	r20, r1
    4914:	ef cf       	rjmp	.-34     	; 0x48f4 <strstr+0xa>
    4916:	81 e0       	ldi	r24, 0x01	; 1
    4918:	90 e0       	ldi	r25, 0x00	; 0
    491a:	01 97       	sbiw	r24, 0x01	; 1
    491c:	08 95       	ret

0000491e <itoa>:
    491e:	fb 01       	movw	r30, r22
    4920:	9f 01       	movw	r18, r30
    4922:	e8 94       	clt
    4924:	42 30       	cpi	r20, 0x02	; 2
    4926:	c4 f0       	brlt	.+48     	; 0x4958 <itoa+0x3a>
    4928:	45 32       	cpi	r20, 0x25	; 37
    492a:	b4 f4       	brge	.+44     	; 0x4958 <itoa+0x3a>
    492c:	4a 30       	cpi	r20, 0x0A	; 10
    492e:	29 f4       	brne	.+10     	; 0x493a <itoa+0x1c>
    4930:	97 fb       	bst	r25, 7
    4932:	1e f4       	brtc	.+6      	; 0x493a <itoa+0x1c>
    4934:	90 95       	com	r25
    4936:	81 95       	neg	r24
    4938:	9f 4f       	sbci	r25, 0xFF	; 255
    493a:	64 2f       	mov	r22, r20
    493c:	77 27       	eor	r23, r23
    493e:	0e 94 57 22 	call	0x44ae	; 0x44ae <__udivmodhi4>
    4942:	80 5d       	subi	r24, 0xD0	; 208
    4944:	8a 33       	cpi	r24, 0x3A	; 58
    4946:	0c f0       	brlt	.+2      	; 0x494a <itoa+0x2c>
    4948:	89 5d       	subi	r24, 0xD9	; 217
    494a:	81 93       	st	Z+, r24
    494c:	cb 01       	movw	r24, r22
    494e:	00 97       	sbiw	r24, 0x00	; 0
    4950:	a1 f7       	brne	.-24     	; 0x493a <itoa+0x1c>
    4952:	16 f4       	brtc	.+4      	; 0x4958 <itoa+0x3a>
    4954:	5d e2       	ldi	r21, 0x2D	; 45
    4956:	51 93       	st	Z+, r21
    4958:	10 82       	st	Z, r1
    495a:	c9 01       	movw	r24, r18
    495c:	0c 94 81 2a 	jmp	0x5502	; 0x5502 <strrev>

00004960 <__mulhi_const_10>:
    4960:	7a e0       	ldi	r23, 0x0A	; 10
    4962:	97 9f       	mul	r25, r23
    4964:	90 2d       	mov	r25, r0
    4966:	87 9f       	mul	r24, r23
    4968:	80 2d       	mov	r24, r0
    496a:	91 0d       	add	r25, r1
    496c:	11 24       	eor	r1, r1
    496e:	08 95       	ret

00004970 <vsprintf>:
    4970:	ae e0       	ldi	r26, 0x0E	; 14
    4972:	b0 e0       	ldi	r27, 0x00	; 0
    4974:	ee eb       	ldi	r30, 0xBE	; 190
    4976:	f4 e2       	ldi	r31, 0x24	; 36
    4978:	0c 94 79 22 	jmp	0x44f2	; 0x44f2 <__prologue_saves__+0x1c>
    497c:	8c 01       	movw	r16, r24
    497e:	86 e0       	ldi	r24, 0x06	; 6
    4980:	8c 83       	std	Y+4, r24	; 0x04
    4982:	1a 83       	std	Y+2, r17	; 0x02
    4984:	09 83       	std	Y+1, r16	; 0x01
    4986:	8f ef       	ldi	r24, 0xFF	; 255
    4988:	9f e7       	ldi	r25, 0x7F	; 127
    498a:	9e 83       	std	Y+6, r25	; 0x06
    498c:	8d 83       	std	Y+5, r24	; 0x05
    498e:	ce 01       	movw	r24, r28
    4990:	01 96       	adiw	r24, 0x01	; 1
    4992:	0e 94 d4 24 	call	0x49a8	; 0x49a8 <vfprintf>
    4996:	ef 81       	ldd	r30, Y+7	; 0x07
    4998:	f8 85       	ldd	r31, Y+8	; 0x08
    499a:	e0 0f       	add	r30, r16
    499c:	f1 1f       	adc	r31, r17
    499e:	10 82       	st	Z, r1
    49a0:	2e 96       	adiw	r28, 0x0e	; 14
    49a2:	e4 e0       	ldi	r30, 0x04	; 4
    49a4:	0c 94 95 22 	jmp	0x452a	; 0x452a <__epilogue_restores__+0x1c>

000049a8 <vfprintf>:
    49a8:	ab e0       	ldi	r26, 0x0B	; 11
    49aa:	b0 e0       	ldi	r27, 0x00	; 0
    49ac:	ea ed       	ldi	r30, 0xDA	; 218
    49ae:	f4 e2       	ldi	r31, 0x24	; 36
    49b0:	0c 94 6b 22 	jmp	0x44d6	; 0x44d6 <__prologue_saves__>
    49b4:	3c 01       	movw	r6, r24
    49b6:	2b 01       	movw	r4, r22
    49b8:	5a 01       	movw	r10, r20
    49ba:	fc 01       	movw	r30, r24
    49bc:	17 82       	std	Z+7, r1	; 0x07
    49be:	16 82       	std	Z+6, r1	; 0x06
    49c0:	83 81       	ldd	r24, Z+3	; 0x03
    49c2:	81 fd       	sbrc	r24, 1
    49c4:	03 c0       	rjmp	.+6      	; 0x49cc <vfprintf+0x24>
    49c6:	6f ef       	ldi	r22, 0xFF	; 255
    49c8:	7f ef       	ldi	r23, 0xFF	; 255
    49ca:	c6 c1       	rjmp	.+908    	; 0x4d58 <vfprintf+0x3b0>
    49cc:	9a e0       	ldi	r25, 0x0A	; 10
    49ce:	89 2e       	mov	r8, r25
    49d0:	1e 01       	movw	r2, r28
    49d2:	08 94       	sec
    49d4:	21 1c       	adc	r2, r1
    49d6:	31 1c       	adc	r3, r1
    49d8:	f3 01       	movw	r30, r6
    49da:	23 81       	ldd	r18, Z+3	; 0x03
    49dc:	f2 01       	movw	r30, r4
    49de:	23 fd       	sbrc	r18, 3
    49e0:	85 91       	lpm	r24, Z+
    49e2:	23 ff       	sbrs	r18, 3
    49e4:	81 91       	ld	r24, Z+
    49e6:	2f 01       	movw	r4, r30
    49e8:	88 23       	and	r24, r24
    49ea:	09 f4       	brne	.+2      	; 0x49ee <vfprintf+0x46>
    49ec:	b2 c1       	rjmp	.+868    	; 0x4d52 <vfprintf+0x3aa>
    49ee:	85 32       	cpi	r24, 0x25	; 37
    49f0:	39 f4       	brne	.+14     	; 0x4a00 <vfprintf+0x58>
    49f2:	23 fd       	sbrc	r18, 3
    49f4:	85 91       	lpm	r24, Z+
    49f6:	23 ff       	sbrs	r18, 3
    49f8:	81 91       	ld	r24, Z+
    49fa:	2f 01       	movw	r4, r30
    49fc:	85 32       	cpi	r24, 0x25	; 37
    49fe:	29 f4       	brne	.+10     	; 0x4a0a <vfprintf+0x62>
    4a00:	90 e0       	ldi	r25, 0x00	; 0
    4a02:	b3 01       	movw	r22, r6
    4a04:	0e 94 91 2a 	call	0x5522	; 0x5522 <fputc>
    4a08:	e7 cf       	rjmp	.-50     	; 0x49d8 <vfprintf+0x30>
    4a0a:	98 2f       	mov	r25, r24
    4a0c:	ff 24       	eor	r15, r15
    4a0e:	ee 24       	eor	r14, r14
    4a10:	99 24       	eor	r9, r9
    4a12:	ff e1       	ldi	r31, 0x1F	; 31
    4a14:	ff 15       	cp	r31, r15
    4a16:	d0 f0       	brcs	.+52     	; 0x4a4c <vfprintf+0xa4>
    4a18:	9b 32       	cpi	r25, 0x2B	; 43
    4a1a:	69 f0       	breq	.+26     	; 0x4a36 <vfprintf+0x8e>
    4a1c:	9c 32       	cpi	r25, 0x2C	; 44
    4a1e:	28 f4       	brcc	.+10     	; 0x4a2a <vfprintf+0x82>
    4a20:	90 32       	cpi	r25, 0x20	; 32
    4a22:	59 f0       	breq	.+22     	; 0x4a3a <vfprintf+0x92>
    4a24:	93 32       	cpi	r25, 0x23	; 35
    4a26:	91 f4       	brne	.+36     	; 0x4a4c <vfprintf+0xa4>
    4a28:	0e c0       	rjmp	.+28     	; 0x4a46 <vfprintf+0x9e>
    4a2a:	9d 32       	cpi	r25, 0x2D	; 45
    4a2c:	49 f0       	breq	.+18     	; 0x4a40 <vfprintf+0x98>
    4a2e:	90 33       	cpi	r25, 0x30	; 48
    4a30:	69 f4       	brne	.+26     	; 0x4a4c <vfprintf+0xa4>
    4a32:	41 e0       	ldi	r20, 0x01	; 1
    4a34:	24 c0       	rjmp	.+72     	; 0x4a7e <vfprintf+0xd6>
    4a36:	52 e0       	ldi	r21, 0x02	; 2
    4a38:	f5 2a       	or	r15, r21
    4a3a:	84 e0       	ldi	r24, 0x04	; 4
    4a3c:	f8 2a       	or	r15, r24
    4a3e:	28 c0       	rjmp	.+80     	; 0x4a90 <vfprintf+0xe8>
    4a40:	98 e0       	ldi	r25, 0x08	; 8
    4a42:	f9 2a       	or	r15, r25
    4a44:	25 c0       	rjmp	.+74     	; 0x4a90 <vfprintf+0xe8>
    4a46:	e0 e1       	ldi	r30, 0x10	; 16
    4a48:	fe 2a       	or	r15, r30
    4a4a:	22 c0       	rjmp	.+68     	; 0x4a90 <vfprintf+0xe8>
    4a4c:	f7 fc       	sbrc	r15, 7
    4a4e:	29 c0       	rjmp	.+82     	; 0x4aa2 <vfprintf+0xfa>
    4a50:	89 2f       	mov	r24, r25
    4a52:	80 53       	subi	r24, 0x30	; 48
    4a54:	8a 30       	cpi	r24, 0x0A	; 10
    4a56:	70 f4       	brcc	.+28     	; 0x4a74 <vfprintf+0xcc>
    4a58:	f6 fe       	sbrs	r15, 6
    4a5a:	05 c0       	rjmp	.+10     	; 0x4a66 <vfprintf+0xbe>
    4a5c:	98 9c       	mul	r9, r8
    4a5e:	90 2c       	mov	r9, r0
    4a60:	11 24       	eor	r1, r1
    4a62:	98 0e       	add	r9, r24
    4a64:	15 c0       	rjmp	.+42     	; 0x4a90 <vfprintf+0xe8>
    4a66:	e8 9c       	mul	r14, r8
    4a68:	e0 2c       	mov	r14, r0
    4a6a:	11 24       	eor	r1, r1
    4a6c:	e8 0e       	add	r14, r24
    4a6e:	f0 e2       	ldi	r31, 0x20	; 32
    4a70:	ff 2a       	or	r15, r31
    4a72:	0e c0       	rjmp	.+28     	; 0x4a90 <vfprintf+0xe8>
    4a74:	9e 32       	cpi	r25, 0x2E	; 46
    4a76:	29 f4       	brne	.+10     	; 0x4a82 <vfprintf+0xda>
    4a78:	f6 fc       	sbrc	r15, 6
    4a7a:	6b c1       	rjmp	.+726    	; 0x4d52 <vfprintf+0x3aa>
    4a7c:	40 e4       	ldi	r20, 0x40	; 64
    4a7e:	f4 2a       	or	r15, r20
    4a80:	07 c0       	rjmp	.+14     	; 0x4a90 <vfprintf+0xe8>
    4a82:	9c 36       	cpi	r25, 0x6C	; 108
    4a84:	19 f4       	brne	.+6      	; 0x4a8c <vfprintf+0xe4>
    4a86:	50 e8       	ldi	r21, 0x80	; 128
    4a88:	f5 2a       	or	r15, r21
    4a8a:	02 c0       	rjmp	.+4      	; 0x4a90 <vfprintf+0xe8>
    4a8c:	98 36       	cpi	r25, 0x68	; 104
    4a8e:	49 f4       	brne	.+18     	; 0x4aa2 <vfprintf+0xfa>
    4a90:	f2 01       	movw	r30, r4
    4a92:	23 fd       	sbrc	r18, 3
    4a94:	95 91       	lpm	r25, Z+
    4a96:	23 ff       	sbrs	r18, 3
    4a98:	91 91       	ld	r25, Z+
    4a9a:	2f 01       	movw	r4, r30
    4a9c:	99 23       	and	r25, r25
    4a9e:	09 f0       	breq	.+2      	; 0x4aa2 <vfprintf+0xfa>
    4aa0:	b8 cf       	rjmp	.-144    	; 0x4a12 <vfprintf+0x6a>
    4aa2:	89 2f       	mov	r24, r25
    4aa4:	85 54       	subi	r24, 0x45	; 69
    4aa6:	83 30       	cpi	r24, 0x03	; 3
    4aa8:	18 f0       	brcs	.+6      	; 0x4ab0 <vfprintf+0x108>
    4aaa:	80 52       	subi	r24, 0x20	; 32
    4aac:	83 30       	cpi	r24, 0x03	; 3
    4aae:	38 f4       	brcc	.+14     	; 0x4abe <vfprintf+0x116>
    4ab0:	44 e0       	ldi	r20, 0x04	; 4
    4ab2:	50 e0       	ldi	r21, 0x00	; 0
    4ab4:	a4 0e       	add	r10, r20
    4ab6:	b5 1e       	adc	r11, r21
    4ab8:	5f e3       	ldi	r21, 0x3F	; 63
    4aba:	59 83       	std	Y+1, r21	; 0x01
    4abc:	0f c0       	rjmp	.+30     	; 0x4adc <vfprintf+0x134>
    4abe:	93 36       	cpi	r25, 0x63	; 99
    4ac0:	31 f0       	breq	.+12     	; 0x4ace <vfprintf+0x126>
    4ac2:	93 37       	cpi	r25, 0x73	; 115
    4ac4:	79 f0       	breq	.+30     	; 0x4ae4 <vfprintf+0x13c>
    4ac6:	93 35       	cpi	r25, 0x53	; 83
    4ac8:	09 f0       	breq	.+2      	; 0x4acc <vfprintf+0x124>
    4aca:	56 c0       	rjmp	.+172    	; 0x4b78 <vfprintf+0x1d0>
    4acc:	20 c0       	rjmp	.+64     	; 0x4b0e <vfprintf+0x166>
    4ace:	f5 01       	movw	r30, r10
    4ad0:	80 81       	ld	r24, Z
    4ad2:	89 83       	std	Y+1, r24	; 0x01
    4ad4:	42 e0       	ldi	r20, 0x02	; 2
    4ad6:	50 e0       	ldi	r21, 0x00	; 0
    4ad8:	a4 0e       	add	r10, r20
    4ada:	b5 1e       	adc	r11, r21
    4adc:	61 01       	movw	r12, r2
    4ade:	01 e0       	ldi	r16, 0x01	; 1
    4ae0:	10 e0       	ldi	r17, 0x00	; 0
    4ae2:	12 c0       	rjmp	.+36     	; 0x4b08 <vfprintf+0x160>
    4ae4:	f5 01       	movw	r30, r10
    4ae6:	c0 80       	ld	r12, Z
    4ae8:	d1 80       	ldd	r13, Z+1	; 0x01
    4aea:	f6 fc       	sbrc	r15, 6
    4aec:	03 c0       	rjmp	.+6      	; 0x4af4 <vfprintf+0x14c>
    4aee:	6f ef       	ldi	r22, 0xFF	; 255
    4af0:	7f ef       	ldi	r23, 0xFF	; 255
    4af2:	02 c0       	rjmp	.+4      	; 0x4af8 <vfprintf+0x150>
    4af4:	69 2d       	mov	r22, r9
    4af6:	70 e0       	ldi	r23, 0x00	; 0
    4af8:	42 e0       	ldi	r20, 0x02	; 2
    4afa:	50 e0       	ldi	r21, 0x00	; 0
    4afc:	a4 0e       	add	r10, r20
    4afe:	b5 1e       	adc	r11, r21
    4b00:	c6 01       	movw	r24, r12
    4b02:	0e 94 76 2a 	call	0x54ec	; 0x54ec <strnlen>
    4b06:	8c 01       	movw	r16, r24
    4b08:	5f e7       	ldi	r21, 0x7F	; 127
    4b0a:	f5 22       	and	r15, r21
    4b0c:	14 c0       	rjmp	.+40     	; 0x4b36 <vfprintf+0x18e>
    4b0e:	f5 01       	movw	r30, r10
    4b10:	c0 80       	ld	r12, Z
    4b12:	d1 80       	ldd	r13, Z+1	; 0x01
    4b14:	f6 fc       	sbrc	r15, 6
    4b16:	03 c0       	rjmp	.+6      	; 0x4b1e <vfprintf+0x176>
    4b18:	6f ef       	ldi	r22, 0xFF	; 255
    4b1a:	7f ef       	ldi	r23, 0xFF	; 255
    4b1c:	02 c0       	rjmp	.+4      	; 0x4b22 <vfprintf+0x17a>
    4b1e:	69 2d       	mov	r22, r9
    4b20:	70 e0       	ldi	r23, 0x00	; 0
    4b22:	42 e0       	ldi	r20, 0x02	; 2
    4b24:	50 e0       	ldi	r21, 0x00	; 0
    4b26:	a4 0e       	add	r10, r20
    4b28:	b5 1e       	adc	r11, r21
    4b2a:	c6 01       	movw	r24, r12
    4b2c:	0e 94 6b 2a 	call	0x54d6	; 0x54d6 <strnlen_P>
    4b30:	8c 01       	movw	r16, r24
    4b32:	50 e8       	ldi	r21, 0x80	; 128
    4b34:	f5 2a       	or	r15, r21
    4b36:	f3 fe       	sbrs	r15, 3
    4b38:	07 c0       	rjmp	.+14     	; 0x4b48 <vfprintf+0x1a0>
    4b3a:	1a c0       	rjmp	.+52     	; 0x4b70 <vfprintf+0x1c8>
    4b3c:	80 e2       	ldi	r24, 0x20	; 32
    4b3e:	90 e0       	ldi	r25, 0x00	; 0
    4b40:	b3 01       	movw	r22, r6
    4b42:	0e 94 91 2a 	call	0x5522	; 0x5522 <fputc>
    4b46:	ea 94       	dec	r14
    4b48:	8e 2d       	mov	r24, r14
    4b4a:	90 e0       	ldi	r25, 0x00	; 0
    4b4c:	08 17       	cp	r16, r24
    4b4e:	19 07       	cpc	r17, r25
    4b50:	a8 f3       	brcs	.-22     	; 0x4b3c <vfprintf+0x194>
    4b52:	0e c0       	rjmp	.+28     	; 0x4b70 <vfprintf+0x1c8>
    4b54:	f6 01       	movw	r30, r12
    4b56:	f7 fc       	sbrc	r15, 7
    4b58:	85 91       	lpm	r24, Z+
    4b5a:	f7 fe       	sbrs	r15, 7
    4b5c:	81 91       	ld	r24, Z+
    4b5e:	6f 01       	movw	r12, r30
    4b60:	90 e0       	ldi	r25, 0x00	; 0
    4b62:	b3 01       	movw	r22, r6
    4b64:	0e 94 91 2a 	call	0x5522	; 0x5522 <fputc>
    4b68:	e1 10       	cpse	r14, r1
    4b6a:	ea 94       	dec	r14
    4b6c:	01 50       	subi	r16, 0x01	; 1
    4b6e:	10 40       	sbci	r17, 0x00	; 0
    4b70:	01 15       	cp	r16, r1
    4b72:	11 05       	cpc	r17, r1
    4b74:	79 f7       	brne	.-34     	; 0x4b54 <vfprintf+0x1ac>
    4b76:	ea c0       	rjmp	.+468    	; 0x4d4c <vfprintf+0x3a4>
    4b78:	94 36       	cpi	r25, 0x64	; 100
    4b7a:	11 f0       	breq	.+4      	; 0x4b80 <vfprintf+0x1d8>
    4b7c:	99 36       	cpi	r25, 0x69	; 105
    4b7e:	69 f5       	brne	.+90     	; 0x4bda <vfprintf+0x232>
    4b80:	f7 fe       	sbrs	r15, 7
    4b82:	08 c0       	rjmp	.+16     	; 0x4b94 <vfprintf+0x1ec>
    4b84:	f5 01       	movw	r30, r10
    4b86:	20 81       	ld	r18, Z
    4b88:	31 81       	ldd	r19, Z+1	; 0x01
    4b8a:	42 81       	ldd	r20, Z+2	; 0x02
    4b8c:	53 81       	ldd	r21, Z+3	; 0x03
    4b8e:	84 e0       	ldi	r24, 0x04	; 4
    4b90:	90 e0       	ldi	r25, 0x00	; 0
    4b92:	0a c0       	rjmp	.+20     	; 0x4ba8 <vfprintf+0x200>
    4b94:	f5 01       	movw	r30, r10
    4b96:	80 81       	ld	r24, Z
    4b98:	91 81       	ldd	r25, Z+1	; 0x01
    4b9a:	9c 01       	movw	r18, r24
    4b9c:	44 27       	eor	r20, r20
    4b9e:	37 fd       	sbrc	r19, 7
    4ba0:	40 95       	com	r20
    4ba2:	54 2f       	mov	r21, r20
    4ba4:	82 e0       	ldi	r24, 0x02	; 2
    4ba6:	90 e0       	ldi	r25, 0x00	; 0
    4ba8:	a8 0e       	add	r10, r24
    4baa:	b9 1e       	adc	r11, r25
    4bac:	9f e6       	ldi	r25, 0x6F	; 111
    4bae:	f9 22       	and	r15, r25
    4bb0:	57 ff       	sbrs	r21, 7
    4bb2:	09 c0       	rjmp	.+18     	; 0x4bc6 <vfprintf+0x21e>
    4bb4:	50 95       	com	r21
    4bb6:	40 95       	com	r20
    4bb8:	30 95       	com	r19
    4bba:	21 95       	neg	r18
    4bbc:	3f 4f       	sbci	r19, 0xFF	; 255
    4bbe:	4f 4f       	sbci	r20, 0xFF	; 255
    4bc0:	5f 4f       	sbci	r21, 0xFF	; 255
    4bc2:	e0 e8       	ldi	r30, 0x80	; 128
    4bc4:	fe 2a       	or	r15, r30
    4bc6:	ca 01       	movw	r24, r20
    4bc8:	b9 01       	movw	r22, r18
    4bca:	a1 01       	movw	r20, r2
    4bcc:	2a e0       	ldi	r18, 0x0A	; 10
    4bce:	30 e0       	ldi	r19, 0x00	; 0
    4bd0:	0e 94 bd 2a 	call	0x557a	; 0x557a <__ultoa_invert>
    4bd4:	d8 2e       	mov	r13, r24
    4bd6:	d2 18       	sub	r13, r2
    4bd8:	40 c0       	rjmp	.+128    	; 0x4c5a <vfprintf+0x2b2>
    4bda:	95 37       	cpi	r25, 0x75	; 117
    4bdc:	29 f4       	brne	.+10     	; 0x4be8 <vfprintf+0x240>
    4bde:	1f 2d       	mov	r17, r15
    4be0:	1f 7e       	andi	r17, 0xEF	; 239
    4be2:	2a e0       	ldi	r18, 0x0A	; 10
    4be4:	30 e0       	ldi	r19, 0x00	; 0
    4be6:	1d c0       	rjmp	.+58     	; 0x4c22 <vfprintf+0x27a>
    4be8:	1f 2d       	mov	r17, r15
    4bea:	19 7f       	andi	r17, 0xF9	; 249
    4bec:	9f 36       	cpi	r25, 0x6F	; 111
    4bee:	61 f0       	breq	.+24     	; 0x4c08 <vfprintf+0x260>
    4bf0:	90 37       	cpi	r25, 0x70	; 112
    4bf2:	20 f4       	brcc	.+8      	; 0x4bfc <vfprintf+0x254>
    4bf4:	98 35       	cpi	r25, 0x58	; 88
    4bf6:	09 f0       	breq	.+2      	; 0x4bfa <vfprintf+0x252>
    4bf8:	ac c0       	rjmp	.+344    	; 0x4d52 <vfprintf+0x3aa>
    4bfa:	0f c0       	rjmp	.+30     	; 0x4c1a <vfprintf+0x272>
    4bfc:	90 37       	cpi	r25, 0x70	; 112
    4bfe:	39 f0       	breq	.+14     	; 0x4c0e <vfprintf+0x266>
    4c00:	98 37       	cpi	r25, 0x78	; 120
    4c02:	09 f0       	breq	.+2      	; 0x4c06 <vfprintf+0x25e>
    4c04:	a6 c0       	rjmp	.+332    	; 0x4d52 <vfprintf+0x3aa>
    4c06:	04 c0       	rjmp	.+8      	; 0x4c10 <vfprintf+0x268>
    4c08:	28 e0       	ldi	r18, 0x08	; 8
    4c0a:	30 e0       	ldi	r19, 0x00	; 0
    4c0c:	0a c0       	rjmp	.+20     	; 0x4c22 <vfprintf+0x27a>
    4c0e:	10 61       	ori	r17, 0x10	; 16
    4c10:	14 fd       	sbrc	r17, 4
    4c12:	14 60       	ori	r17, 0x04	; 4
    4c14:	20 e1       	ldi	r18, 0x10	; 16
    4c16:	30 e0       	ldi	r19, 0x00	; 0
    4c18:	04 c0       	rjmp	.+8      	; 0x4c22 <vfprintf+0x27a>
    4c1a:	14 fd       	sbrc	r17, 4
    4c1c:	16 60       	ori	r17, 0x06	; 6
    4c1e:	20 e1       	ldi	r18, 0x10	; 16
    4c20:	32 e0       	ldi	r19, 0x02	; 2
    4c22:	17 ff       	sbrs	r17, 7
    4c24:	08 c0       	rjmp	.+16     	; 0x4c36 <vfprintf+0x28e>
    4c26:	f5 01       	movw	r30, r10
    4c28:	60 81       	ld	r22, Z
    4c2a:	71 81       	ldd	r23, Z+1	; 0x01
    4c2c:	82 81       	ldd	r24, Z+2	; 0x02
    4c2e:	93 81       	ldd	r25, Z+3	; 0x03
    4c30:	44 e0       	ldi	r20, 0x04	; 4
    4c32:	50 e0       	ldi	r21, 0x00	; 0
    4c34:	08 c0       	rjmp	.+16     	; 0x4c46 <vfprintf+0x29e>
    4c36:	f5 01       	movw	r30, r10
    4c38:	80 81       	ld	r24, Z
    4c3a:	91 81       	ldd	r25, Z+1	; 0x01
    4c3c:	bc 01       	movw	r22, r24
    4c3e:	80 e0       	ldi	r24, 0x00	; 0
    4c40:	90 e0       	ldi	r25, 0x00	; 0
    4c42:	42 e0       	ldi	r20, 0x02	; 2
    4c44:	50 e0       	ldi	r21, 0x00	; 0
    4c46:	a4 0e       	add	r10, r20
    4c48:	b5 1e       	adc	r11, r21
    4c4a:	a1 01       	movw	r20, r2
    4c4c:	0e 94 bd 2a 	call	0x557a	; 0x557a <__ultoa_invert>
    4c50:	d8 2e       	mov	r13, r24
    4c52:	d2 18       	sub	r13, r2
    4c54:	8f e7       	ldi	r24, 0x7F	; 127
    4c56:	f8 2e       	mov	r15, r24
    4c58:	f1 22       	and	r15, r17
    4c5a:	f6 fe       	sbrs	r15, 6
    4c5c:	0b c0       	rjmp	.+22     	; 0x4c74 <vfprintf+0x2cc>
    4c5e:	5e ef       	ldi	r21, 0xFE	; 254
    4c60:	f5 22       	and	r15, r21
    4c62:	d9 14       	cp	r13, r9
    4c64:	38 f4       	brcc	.+14     	; 0x4c74 <vfprintf+0x2cc>
    4c66:	f4 fe       	sbrs	r15, 4
    4c68:	07 c0       	rjmp	.+14     	; 0x4c78 <vfprintf+0x2d0>
    4c6a:	f2 fc       	sbrc	r15, 2
    4c6c:	05 c0       	rjmp	.+10     	; 0x4c78 <vfprintf+0x2d0>
    4c6e:	8f ee       	ldi	r24, 0xEF	; 239
    4c70:	f8 22       	and	r15, r24
    4c72:	02 c0       	rjmp	.+4      	; 0x4c78 <vfprintf+0x2d0>
    4c74:	1d 2d       	mov	r17, r13
    4c76:	01 c0       	rjmp	.+2      	; 0x4c7a <vfprintf+0x2d2>
    4c78:	19 2d       	mov	r17, r9
    4c7a:	f4 fe       	sbrs	r15, 4
    4c7c:	0d c0       	rjmp	.+26     	; 0x4c98 <vfprintf+0x2f0>
    4c7e:	fe 01       	movw	r30, r28
    4c80:	ed 0d       	add	r30, r13
    4c82:	f1 1d       	adc	r31, r1
    4c84:	80 81       	ld	r24, Z
    4c86:	80 33       	cpi	r24, 0x30	; 48
    4c88:	19 f4       	brne	.+6      	; 0x4c90 <vfprintf+0x2e8>
    4c8a:	99 ee       	ldi	r25, 0xE9	; 233
    4c8c:	f9 22       	and	r15, r25
    4c8e:	08 c0       	rjmp	.+16     	; 0x4ca0 <vfprintf+0x2f8>
    4c90:	1f 5f       	subi	r17, 0xFF	; 255
    4c92:	f2 fe       	sbrs	r15, 2
    4c94:	05 c0       	rjmp	.+10     	; 0x4ca0 <vfprintf+0x2f8>
    4c96:	03 c0       	rjmp	.+6      	; 0x4c9e <vfprintf+0x2f6>
    4c98:	8f 2d       	mov	r24, r15
    4c9a:	86 78       	andi	r24, 0x86	; 134
    4c9c:	09 f0       	breq	.+2      	; 0x4ca0 <vfprintf+0x2f8>
    4c9e:	1f 5f       	subi	r17, 0xFF	; 255
    4ca0:	0f 2d       	mov	r16, r15
    4ca2:	f3 fc       	sbrc	r15, 3
    4ca4:	14 c0       	rjmp	.+40     	; 0x4cce <vfprintf+0x326>
    4ca6:	f0 fe       	sbrs	r15, 0
    4ca8:	0f c0       	rjmp	.+30     	; 0x4cc8 <vfprintf+0x320>
    4caa:	1e 15       	cp	r17, r14
    4cac:	10 f0       	brcs	.+4      	; 0x4cb2 <vfprintf+0x30a>
    4cae:	9d 2c       	mov	r9, r13
    4cb0:	0b c0       	rjmp	.+22     	; 0x4cc8 <vfprintf+0x320>
    4cb2:	9d 2c       	mov	r9, r13
    4cb4:	9e 0c       	add	r9, r14
    4cb6:	91 1a       	sub	r9, r17
    4cb8:	1e 2d       	mov	r17, r14
    4cba:	06 c0       	rjmp	.+12     	; 0x4cc8 <vfprintf+0x320>
    4cbc:	80 e2       	ldi	r24, 0x20	; 32
    4cbe:	90 e0       	ldi	r25, 0x00	; 0
    4cc0:	b3 01       	movw	r22, r6
    4cc2:	0e 94 91 2a 	call	0x5522	; 0x5522 <fputc>
    4cc6:	1f 5f       	subi	r17, 0xFF	; 255
    4cc8:	1e 15       	cp	r17, r14
    4cca:	c0 f3       	brcs	.-16     	; 0x4cbc <vfprintf+0x314>
    4ccc:	04 c0       	rjmp	.+8      	; 0x4cd6 <vfprintf+0x32e>
    4cce:	1e 15       	cp	r17, r14
    4cd0:	10 f4       	brcc	.+4      	; 0x4cd6 <vfprintf+0x32e>
    4cd2:	e1 1a       	sub	r14, r17
    4cd4:	01 c0       	rjmp	.+2      	; 0x4cd8 <vfprintf+0x330>
    4cd6:	ee 24       	eor	r14, r14
    4cd8:	04 ff       	sbrs	r16, 4
    4cda:	0f c0       	rjmp	.+30     	; 0x4cfa <vfprintf+0x352>
    4cdc:	80 e3       	ldi	r24, 0x30	; 48
    4cde:	90 e0       	ldi	r25, 0x00	; 0
    4ce0:	b3 01       	movw	r22, r6
    4ce2:	0e 94 91 2a 	call	0x5522	; 0x5522 <fputc>
    4ce6:	02 ff       	sbrs	r16, 2
    4ce8:	1d c0       	rjmp	.+58     	; 0x4d24 <vfprintf+0x37c>
    4cea:	01 fd       	sbrc	r16, 1
    4cec:	03 c0       	rjmp	.+6      	; 0x4cf4 <vfprintf+0x34c>
    4cee:	88 e7       	ldi	r24, 0x78	; 120
    4cf0:	90 e0       	ldi	r25, 0x00	; 0
    4cf2:	0e c0       	rjmp	.+28     	; 0x4d10 <vfprintf+0x368>
    4cf4:	88 e5       	ldi	r24, 0x58	; 88
    4cf6:	90 e0       	ldi	r25, 0x00	; 0
    4cf8:	0b c0       	rjmp	.+22     	; 0x4d10 <vfprintf+0x368>
    4cfa:	80 2f       	mov	r24, r16
    4cfc:	86 78       	andi	r24, 0x86	; 134
    4cfe:	91 f0       	breq	.+36     	; 0x4d24 <vfprintf+0x37c>
    4d00:	01 ff       	sbrs	r16, 1
    4d02:	02 c0       	rjmp	.+4      	; 0x4d08 <vfprintf+0x360>
    4d04:	8b e2       	ldi	r24, 0x2B	; 43
    4d06:	01 c0       	rjmp	.+2      	; 0x4d0a <vfprintf+0x362>
    4d08:	80 e2       	ldi	r24, 0x20	; 32
    4d0a:	f7 fc       	sbrc	r15, 7
    4d0c:	8d e2       	ldi	r24, 0x2D	; 45
    4d0e:	90 e0       	ldi	r25, 0x00	; 0
    4d10:	b3 01       	movw	r22, r6
    4d12:	0e 94 91 2a 	call	0x5522	; 0x5522 <fputc>
    4d16:	06 c0       	rjmp	.+12     	; 0x4d24 <vfprintf+0x37c>
    4d18:	80 e3       	ldi	r24, 0x30	; 48
    4d1a:	90 e0       	ldi	r25, 0x00	; 0
    4d1c:	b3 01       	movw	r22, r6
    4d1e:	0e 94 91 2a 	call	0x5522	; 0x5522 <fputc>
    4d22:	9a 94       	dec	r9
    4d24:	d9 14       	cp	r13, r9
    4d26:	c0 f3       	brcs	.-16     	; 0x4d18 <vfprintf+0x370>
    4d28:	da 94       	dec	r13
    4d2a:	f1 01       	movw	r30, r2
    4d2c:	ed 0d       	add	r30, r13
    4d2e:	f1 1d       	adc	r31, r1
    4d30:	80 81       	ld	r24, Z
    4d32:	90 e0       	ldi	r25, 0x00	; 0
    4d34:	b3 01       	movw	r22, r6
    4d36:	0e 94 91 2a 	call	0x5522	; 0x5522 <fputc>
    4d3a:	dd 20       	and	r13, r13
    4d3c:	a9 f7       	brne	.-22     	; 0x4d28 <vfprintf+0x380>
    4d3e:	06 c0       	rjmp	.+12     	; 0x4d4c <vfprintf+0x3a4>
    4d40:	80 e2       	ldi	r24, 0x20	; 32
    4d42:	90 e0       	ldi	r25, 0x00	; 0
    4d44:	b3 01       	movw	r22, r6
    4d46:	0e 94 91 2a 	call	0x5522	; 0x5522 <fputc>
    4d4a:	ea 94       	dec	r14
    4d4c:	ee 20       	and	r14, r14
    4d4e:	c1 f7       	brne	.-16     	; 0x4d40 <vfprintf+0x398>
    4d50:	43 ce       	rjmp	.-890    	; 0x49d8 <vfprintf+0x30>
    4d52:	f3 01       	movw	r30, r6
    4d54:	66 81       	ldd	r22, Z+6	; 0x06
    4d56:	77 81       	ldd	r23, Z+7	; 0x07
    4d58:	cb 01       	movw	r24, r22
    4d5a:	2b 96       	adiw	r28, 0x0b	; 11
    4d5c:	e2 e1       	ldi	r30, 0x12	; 18
    4d5e:	0c 94 87 22 	jmp	0x450e	; 0x450e <__epilogue_restores__>

00004d62 <dtoa_prf>:
    4d62:	a9 e0       	ldi	r26, 0x09	; 9
    4d64:	b0 e0       	ldi	r27, 0x00	; 0
    4d66:	e7 eb       	ldi	r30, 0xB7	; 183
    4d68:	f6 e2       	ldi	r31, 0x26	; 38
    4d6a:	0c 94 6f 22 	jmp	0x44de	; 0x44de <__prologue_saves__+0x8>
    4d6e:	6a 01       	movw	r12, r20
    4d70:	12 2f       	mov	r17, r18
    4d72:	a0 2e       	mov	r10, r16
    4d74:	be 2c       	mov	r11, r14
    4d76:	2b e3       	ldi	r18, 0x3B	; 59
    4d78:	20 17       	cp	r18, r16
    4d7a:	18 f4       	brcc	.+6      	; 0x4d82 <dtoa_prf+0x20>
    4d7c:	2c e3       	ldi	r18, 0x3C	; 60
    4d7e:	92 2e       	mov	r9, r18
    4d80:	02 c0       	rjmp	.+4      	; 0x4d86 <dtoa_prf+0x24>
    4d82:	90 2e       	mov	r9, r16
    4d84:	93 94       	inc	r9
    4d86:	ae 01       	movw	r20, r28
    4d88:	4f 5f       	subi	r20, 0xFF	; 255
    4d8a:	5f 4f       	sbci	r21, 0xFF	; 255
    4d8c:	27 e0       	ldi	r18, 0x07	; 7
    4d8e:	09 2d       	mov	r16, r9
    4d90:	0e 94 73 29 	call	0x52e6	; 0x52e6 <__ftoa_engine>
    4d94:	bc 01       	movw	r22, r24
    4d96:	89 81       	ldd	r24, Y+1	; 0x01
    4d98:	e8 2e       	mov	r14, r24
    4d9a:	ff 24       	eor	r15, r15
    4d9c:	c7 01       	movw	r24, r14
    4d9e:	89 70       	andi	r24, 0x09	; 9
    4da0:	90 70       	andi	r25, 0x00	; 0
    4da2:	01 97       	sbiw	r24, 0x01	; 1
    4da4:	11 f4       	brne	.+4      	; 0x4daa <dtoa_prf+0x48>
    4da6:	ad e2       	ldi	r26, 0x2D	; 45
    4da8:	09 c0       	rjmp	.+18     	; 0x4dbc <dtoa_prf+0x5a>
    4daa:	b1 fe       	sbrs	r11, 1
    4dac:	02 c0       	rjmp	.+4      	; 0x4db2 <dtoa_prf+0x50>
    4dae:	ab e2       	ldi	r26, 0x2B	; 43
    4db0:	05 c0       	rjmp	.+10     	; 0x4dbc <dtoa_prf+0x5a>
    4db2:	b0 fc       	sbrc	r11, 0
    4db4:	02 c0       	rjmp	.+4      	; 0x4dba <dtoa_prf+0x58>
    4db6:	a0 e0       	ldi	r26, 0x00	; 0
    4db8:	01 c0       	rjmp	.+2      	; 0x4dbc <dtoa_prf+0x5a>
    4dba:	a0 e2       	ldi	r26, 0x20	; 32
    4dbc:	e3 fe       	sbrs	r14, 3
    4dbe:	3b c0       	rjmp	.+118    	; 0x4e36 <dtoa_prf+0xd4>
    4dc0:	aa 23       	and	r26, r26
    4dc2:	11 f4       	brne	.+4      	; 0x4dc8 <dtoa_prf+0x66>
    4dc4:	23 e0       	ldi	r18, 0x03	; 3
    4dc6:	01 c0       	rjmp	.+2      	; 0x4dca <dtoa_prf+0x68>
    4dc8:	24 e0       	ldi	r18, 0x04	; 4
    4dca:	21 17       	cp	r18, r17
    4dcc:	10 f0       	brcs	.+4      	; 0x4dd2 <dtoa_prf+0x70>
    4dce:	20 e0       	ldi	r18, 0x00	; 0
    4dd0:	02 c0       	rjmp	.+4      	; 0x4dd6 <dtoa_prf+0x74>
    4dd2:	12 1b       	sub	r17, r18
    4dd4:	21 2f       	mov	r18, r17
    4dd6:	eb 2c       	mov	r14, r11
    4dd8:	b4 fe       	sbrs	r11, 4
    4dda:	02 c0       	rjmp	.+4      	; 0x4de0 <dtoa_prf+0x7e>
    4ddc:	32 2f       	mov	r19, r18
    4dde:	0a c0       	rjmp	.+20     	; 0x4df4 <dtoa_prf+0x92>
    4de0:	f6 01       	movw	r30, r12
    4de2:	32 2f       	mov	r19, r18
    4de4:	80 e2       	ldi	r24, 0x20	; 32
    4de6:	02 c0       	rjmp	.+4      	; 0x4dec <dtoa_prf+0x8a>
    4de8:	81 93       	st	Z+, r24
    4dea:	31 50       	subi	r19, 0x01	; 1
    4dec:	33 23       	and	r19, r19
    4dee:	e1 f7       	brne	.-8      	; 0x4de8 <dtoa_prf+0x86>
    4df0:	c2 0e       	add	r12, r18
    4df2:	d1 1c       	adc	r13, r1
    4df4:	aa 23       	and	r26, r26
    4df6:	19 f0       	breq	.+6      	; 0x4dfe <dtoa_prf+0x9c>
    4df8:	f6 01       	movw	r30, r12
    4dfa:	a1 93       	st	Z+, r26
    4dfc:	6f 01       	movw	r12, r30
    4dfe:	f6 01       	movw	r30, r12
    4e00:	31 96       	adiw	r30, 0x01	; 1
    4e02:	e2 fe       	sbrs	r14, 2
    4e04:	05 c0       	rjmp	.+10     	; 0x4e10 <dtoa_prf+0xae>
    4e06:	9e e4       	ldi	r25, 0x4E	; 78
    4e08:	d6 01       	movw	r26, r12
    4e0a:	9c 93       	st	X, r25
    4e0c:	81 e4       	ldi	r24, 0x41	; 65
    4e0e:	04 c0       	rjmp	.+8      	; 0x4e18 <dtoa_prf+0xb6>
    4e10:	9e e6       	ldi	r25, 0x6E	; 110
    4e12:	d6 01       	movw	r26, r12
    4e14:	9c 93       	st	X, r25
    4e16:	81 e6       	ldi	r24, 0x61	; 97
    4e18:	11 96       	adiw	r26, 0x01	; 1
    4e1a:	8c 93       	st	X, r24
    4e1c:	91 83       	std	Z+1, r25	; 0x01
    4e1e:	32 96       	adiw	r30, 0x02	; 2
    4e20:	df 01       	movw	r26, r30
    4e22:	83 2f       	mov	r24, r19
    4e24:	90 e2       	ldi	r25, 0x20	; 32
    4e26:	02 c0       	rjmp	.+4      	; 0x4e2c <dtoa_prf+0xca>
    4e28:	9d 93       	st	X+, r25
    4e2a:	81 50       	subi	r24, 0x01	; 1
    4e2c:	88 23       	and	r24, r24
    4e2e:	e1 f7       	brne	.-8      	; 0x4e28 <dtoa_prf+0xc6>
    4e30:	e3 0f       	add	r30, r19
    4e32:	f1 1d       	adc	r31, r1
    4e34:	40 c0       	rjmp	.+128    	; 0x4eb6 <dtoa_prf+0x154>
    4e36:	e2 fe       	sbrs	r14, 2
    4e38:	42 c0       	rjmp	.+132    	; 0x4ebe <dtoa_prf+0x15c>
    4e3a:	aa 23       	and	r26, r26
    4e3c:	11 f4       	brne	.+4      	; 0x4e42 <dtoa_prf+0xe0>
    4e3e:	23 e0       	ldi	r18, 0x03	; 3
    4e40:	01 c0       	rjmp	.+2      	; 0x4e44 <dtoa_prf+0xe2>
    4e42:	24 e0       	ldi	r18, 0x04	; 4
    4e44:	21 17       	cp	r18, r17
    4e46:	10 f0       	brcs	.+4      	; 0x4e4c <dtoa_prf+0xea>
    4e48:	20 e0       	ldi	r18, 0x00	; 0
    4e4a:	02 c0       	rjmp	.+4      	; 0x4e50 <dtoa_prf+0xee>
    4e4c:	12 1b       	sub	r17, r18
    4e4e:	21 2f       	mov	r18, r17
    4e50:	eb 2c       	mov	r14, r11
    4e52:	b4 fe       	sbrs	r11, 4
    4e54:	02 c0       	rjmp	.+4      	; 0x4e5a <dtoa_prf+0xf8>
    4e56:	92 2f       	mov	r25, r18
    4e58:	0a c0       	rjmp	.+20     	; 0x4e6e <dtoa_prf+0x10c>
    4e5a:	f6 01       	movw	r30, r12
    4e5c:	92 2f       	mov	r25, r18
    4e5e:	80 e2       	ldi	r24, 0x20	; 32
    4e60:	02 c0       	rjmp	.+4      	; 0x4e66 <dtoa_prf+0x104>
    4e62:	81 93       	st	Z+, r24
    4e64:	91 50       	subi	r25, 0x01	; 1
    4e66:	99 23       	and	r25, r25
    4e68:	e1 f7       	brne	.-8      	; 0x4e62 <dtoa_prf+0x100>
    4e6a:	c2 0e       	add	r12, r18
    4e6c:	d1 1c       	adc	r13, r1
    4e6e:	aa 23       	and	r26, r26
    4e70:	19 f0       	breq	.+6      	; 0x4e78 <dtoa_prf+0x116>
    4e72:	f6 01       	movw	r30, r12
    4e74:	a1 93       	st	Z+, r26
    4e76:	6f 01       	movw	r12, r30
    4e78:	f6 01       	movw	r30, r12
    4e7a:	31 96       	adiw	r30, 0x01	; 1
    4e7c:	e2 fe       	sbrs	r14, 2
    4e7e:	08 c0       	rjmp	.+16     	; 0x4e90 <dtoa_prf+0x12e>
    4e80:	89 e4       	ldi	r24, 0x49	; 73
    4e82:	d6 01       	movw	r26, r12
    4e84:	8c 93       	st	X, r24
    4e86:	8e e4       	ldi	r24, 0x4E	; 78
    4e88:	11 96       	adiw	r26, 0x01	; 1
    4e8a:	8c 93       	st	X, r24
    4e8c:	86 e4       	ldi	r24, 0x46	; 70
    4e8e:	07 c0       	rjmp	.+14     	; 0x4e9e <dtoa_prf+0x13c>
    4e90:	89 e6       	ldi	r24, 0x69	; 105
    4e92:	d6 01       	movw	r26, r12
    4e94:	8c 93       	st	X, r24
    4e96:	8e e6       	ldi	r24, 0x6E	; 110
    4e98:	11 96       	adiw	r26, 0x01	; 1
    4e9a:	8c 93       	st	X, r24
    4e9c:	86 e6       	ldi	r24, 0x66	; 102
    4e9e:	81 83       	std	Z+1, r24	; 0x01
    4ea0:	32 96       	adiw	r30, 0x02	; 2
    4ea2:	df 01       	movw	r26, r30
    4ea4:	89 2f       	mov	r24, r25
    4ea6:	20 e2       	ldi	r18, 0x20	; 32
    4ea8:	02 c0       	rjmp	.+4      	; 0x4eae <dtoa_prf+0x14c>
    4eaa:	2d 93       	st	X+, r18
    4eac:	81 50       	subi	r24, 0x01	; 1
    4eae:	88 23       	and	r24, r24
    4eb0:	e1 f7       	brne	.-8      	; 0x4eaa <dtoa_prf+0x148>
    4eb2:	e9 0f       	add	r30, r25
    4eb4:	f1 1d       	adc	r31, r1
    4eb6:	10 82       	st	Z, r1
    4eb8:	2e ef       	ldi	r18, 0xFE	; 254
    4eba:	3f ef       	ldi	r19, 0xFF	; 255
    4ebc:	af c0       	rjmp	.+350    	; 0x501c <dtoa_prf+0x2ba>
    4ebe:	16 16       	cp	r1, r22
    4ec0:	17 06       	cpc	r1, r23
    4ec2:	1c f0       	brlt	.+6      	; 0x4eca <dtoa_prf+0x168>
    4ec4:	41 e0       	ldi	r20, 0x01	; 1
    4ec6:	50 e0       	ldi	r21, 0x00	; 0
    4ec8:	03 c0       	rjmp	.+6      	; 0x4ed0 <dtoa_prf+0x16e>
    4eca:	ab 01       	movw	r20, r22
    4ecc:	4f 5f       	subi	r20, 0xFF	; 255
    4ece:	5f 4f       	sbci	r21, 0xFF	; 255
    4ed0:	aa 20       	and	r10, r10
    4ed2:	19 f4       	brne	.+6      	; 0x4eda <dtoa_prf+0x178>
    4ed4:	80 e0       	ldi	r24, 0x00	; 0
    4ed6:	90 e0       	ldi	r25, 0x00	; 0
    4ed8:	03 c0       	rjmp	.+6      	; 0x4ee0 <dtoa_prf+0x17e>
    4eda:	8a 2d       	mov	r24, r10
    4edc:	90 e0       	ldi	r25, 0x00	; 0
    4ede:	01 96       	adiw	r24, 0x01	; 1
    4ee0:	20 e0       	ldi	r18, 0x00	; 0
    4ee2:	30 e0       	ldi	r19, 0x00	; 0
    4ee4:	aa 23       	and	r26, r26
    4ee6:	11 f0       	breq	.+4      	; 0x4eec <dtoa_prf+0x18a>
    4ee8:	21 e0       	ldi	r18, 0x01	; 1
    4eea:	30 e0       	ldi	r19, 0x00	; 0
    4eec:	24 0f       	add	r18, r20
    4eee:	35 1f       	adc	r19, r21
    4ef0:	28 0f       	add	r18, r24
    4ef2:	39 1f       	adc	r19, r25
    4ef4:	81 2f       	mov	r24, r17
    4ef6:	90 e0       	ldi	r25, 0x00	; 0
    4ef8:	28 17       	cp	r18, r24
    4efa:	39 07       	cpc	r19, r25
    4efc:	14 f0       	brlt	.+4      	; 0x4f02 <dtoa_prf+0x1a0>
    4efe:	20 e0       	ldi	r18, 0x00	; 0
    4f00:	02 c0       	rjmp	.+4      	; 0x4f06 <dtoa_prf+0x1a4>
    4f02:	12 1b       	sub	r17, r18
    4f04:	21 2f       	mov	r18, r17
    4f06:	4b 2d       	mov	r20, r11
    4f08:	50 e0       	ldi	r21, 0x00	; 0
    4f0a:	ca 01       	movw	r24, r20
    4f0c:	80 71       	andi	r24, 0x10	; 16
    4f0e:	90 70       	andi	r25, 0x00	; 0
    4f10:	b4 fc       	sbrc	r11, 4
    4f12:	0d c0       	rjmp	.+26     	; 0x4f2e <dtoa_prf+0x1cc>
    4f14:	b3 fc       	sbrc	r11, 3
    4f16:	0b c0       	rjmp	.+22     	; 0x4f2e <dtoa_prf+0x1cc>
    4f18:	f6 01       	movw	r30, r12
    4f1a:	32 2f       	mov	r19, r18
    4f1c:	40 e2       	ldi	r20, 0x20	; 32
    4f1e:	02 c0       	rjmp	.+4      	; 0x4f24 <dtoa_prf+0x1c2>
    4f20:	41 93       	st	Z+, r20
    4f22:	31 50       	subi	r19, 0x01	; 1
    4f24:	33 23       	and	r19, r19
    4f26:	e1 f7       	brne	.-8      	; 0x4f20 <dtoa_prf+0x1be>
    4f28:	c2 0e       	add	r12, r18
    4f2a:	d1 1c       	adc	r13, r1
    4f2c:	01 c0       	rjmp	.+2      	; 0x4f30 <dtoa_prf+0x1ce>
    4f2e:	32 2f       	mov	r19, r18
    4f30:	aa 23       	and	r26, r26
    4f32:	19 f0       	breq	.+6      	; 0x4f3a <dtoa_prf+0x1d8>
    4f34:	f6 01       	movw	r30, r12
    4f36:	a1 93       	st	Z+, r26
    4f38:	6f 01       	movw	r12, r30
    4f3a:	89 2b       	or	r24, r25
    4f3c:	11 f0       	breq	.+4      	; 0x4f42 <dtoa_prf+0x1e0>
    4f3e:	13 2f       	mov	r17, r19
    4f40:	0a c0       	rjmp	.+20     	; 0x4f56 <dtoa_prf+0x1f4>
    4f42:	f6 01       	movw	r30, r12
    4f44:	13 2f       	mov	r17, r19
    4f46:	80 e3       	ldi	r24, 0x30	; 48
    4f48:	02 c0       	rjmp	.+4      	; 0x4f4e <dtoa_prf+0x1ec>
    4f4a:	81 93       	st	Z+, r24
    4f4c:	11 50       	subi	r17, 0x01	; 1
    4f4e:	11 23       	and	r17, r17
    4f50:	e1 f7       	brne	.-8      	; 0x4f4a <dtoa_prf+0x1e8>
    4f52:	c3 0e       	add	r12, r19
    4f54:	d1 1c       	adc	r13, r1
    4f56:	09 2d       	mov	r16, r9
    4f58:	06 0f       	add	r16, r22
    4f5a:	ba 80       	ldd	r11, Y+2	; 0x02
    4f5c:	90 e1       	ldi	r25, 0x10	; 16
    4f5e:	89 2e       	mov	r8, r25
    4f60:	91 2c       	mov	r9, r1
    4f62:	8e 20       	and	r8, r14
    4f64:	9f 20       	and	r9, r15
    4f66:	e4 fe       	sbrs	r14, 4
    4f68:	04 c0       	rjmp	.+8      	; 0x4f72 <dtoa_prf+0x210>
    4f6a:	f1 e3       	ldi	r31, 0x31	; 49
    4f6c:	bf 16       	cp	r11, r31
    4f6e:	09 f4       	brne	.+2      	; 0x4f72 <dtoa_prf+0x210>
    4f70:	01 50       	subi	r16, 0x01	; 1
    4f72:	10 16       	cp	r1, r16
    4f74:	14 f0       	brlt	.+4      	; 0x4f7a <dtoa_prf+0x218>
    4f76:	01 e0       	ldi	r16, 0x01	; 1
    4f78:	03 c0       	rjmp	.+6      	; 0x4f80 <dtoa_prf+0x21e>
    4f7a:	09 30       	cpi	r16, 0x09	; 9
    4f7c:	08 f0       	brcs	.+2      	; 0x4f80 <dtoa_prf+0x21e>
    4f7e:	08 e0       	ldi	r16, 0x08	; 8
    4f80:	9b 01       	movw	r18, r22
    4f82:	77 ff       	sbrs	r23, 7
    4f84:	02 c0       	rjmp	.+4      	; 0x4f8a <dtoa_prf+0x228>
    4f86:	20 e0       	ldi	r18, 0x00	; 0
    4f88:	30 e0       	ldi	r19, 0x00	; 0
    4f8a:	cb 01       	movw	r24, r22
    4f8c:	01 96       	adiw	r24, 0x01	; 1
    4f8e:	82 1b       	sub	r24, r18
    4f90:	93 0b       	sbc	r25, r19
    4f92:	fe 01       	movw	r30, r28
    4f94:	31 96       	adiw	r30, 0x01	; 1
    4f96:	e8 0f       	add	r30, r24
    4f98:	f9 1f       	adc	r31, r25
    4f9a:	8e e2       	ldi	r24, 0x2E	; 46
    4f9c:	f8 2e       	mov	r15, r24
    4f9e:	3b 01       	movw	r6, r22
    4fa0:	60 1a       	sub	r6, r16
    4fa2:	71 08       	sbc	r7, r1
    4fa4:	8a 2d       	mov	r24, r10
    4fa6:	90 e0       	ldi	r25, 0x00	; 0
    4fa8:	44 27       	eor	r20, r20
    4faa:	55 27       	eor	r21, r21
    4fac:	48 1b       	sub	r20, r24
    4fae:	59 0b       	sbc	r21, r25
    4fb0:	8f ef       	ldi	r24, 0xFF	; 255
    4fb2:	2f 3f       	cpi	r18, 0xFF	; 255
    4fb4:	38 07       	cpc	r19, r24
    4fb6:	19 f4       	brne	.+6      	; 0x4fbe <dtoa_prf+0x25c>
    4fb8:	d6 01       	movw	r26, r12
    4fba:	fd 92       	st	X+, r15
    4fbc:	6d 01       	movw	r12, r26
    4fbe:	62 17       	cp	r22, r18
    4fc0:	73 07       	cpc	r23, r19
    4fc2:	2c f0       	brlt	.+10     	; 0x4fce <dtoa_prf+0x26c>
    4fc4:	62 16       	cp	r6, r18
    4fc6:	73 06       	cpc	r7, r19
    4fc8:	14 f4       	brge	.+4      	; 0x4fce <dtoa_prf+0x26c>
    4fca:	80 81       	ld	r24, Z
    4fcc:	01 c0       	rjmp	.+2      	; 0x4fd0 <dtoa_prf+0x26e>
    4fce:	80 e3       	ldi	r24, 0x30	; 48
    4fd0:	21 50       	subi	r18, 0x01	; 1
    4fd2:	30 40       	sbci	r19, 0x00	; 0
    4fd4:	31 96       	adiw	r30, 0x01	; 1
    4fd6:	24 17       	cp	r18, r20
    4fd8:	35 07       	cpc	r19, r21
    4fda:	24 f0       	brlt	.+8      	; 0x4fe4 <dtoa_prf+0x282>
    4fdc:	d6 01       	movw	r26, r12
    4fde:	8d 93       	st	X+, r24
    4fe0:	6d 01       	movw	r12, r26
    4fe2:	e6 cf       	rjmp	.-52     	; 0x4fb0 <dtoa_prf+0x24e>
    4fe4:	26 17       	cp	r18, r22
    4fe6:	37 07       	cpc	r19, r23
    4fe8:	49 f4       	brne	.+18     	; 0x4ffc <dtoa_prf+0x29a>
    4fea:	b5 e3       	ldi	r27, 0x35	; 53
    4fec:	bb 15       	cp	r27, r11
    4fee:	28 f0       	brcs	.+10     	; 0x4ffa <dtoa_prf+0x298>
    4ff0:	bb 16       	cp	r11, r27
    4ff2:	21 f4       	brne	.+8      	; 0x4ffc <dtoa_prf+0x29a>
    4ff4:	81 14       	cp	r8, r1
    4ff6:	91 04       	cpc	r9, r1
    4ff8:	09 f4       	brne	.+2      	; 0x4ffc <dtoa_prf+0x29a>
    4ffa:	81 e3       	ldi	r24, 0x31	; 49
    4ffc:	f6 01       	movw	r30, r12
    4ffe:	81 93       	st	Z+, r24
    5000:	d6 01       	movw	r26, r12
    5002:	81 2f       	mov	r24, r17
    5004:	90 e2       	ldi	r25, 0x20	; 32
    5006:	02 c0       	rjmp	.+4      	; 0x500c <dtoa_prf+0x2aa>
    5008:	9c 93       	st	X, r25
    500a:	81 50       	subi	r24, 0x01	; 1
    500c:	11 96       	adiw	r26, 0x01	; 1
    500e:	88 23       	and	r24, r24
    5010:	d9 f7       	brne	.-10     	; 0x5008 <dtoa_prf+0x2a6>
    5012:	e1 0f       	add	r30, r17
    5014:	f1 1d       	adc	r31, r1
    5016:	10 82       	st	Z, r1
    5018:	20 e0       	ldi	r18, 0x00	; 0
    501a:	30 e0       	ldi	r19, 0x00	; 0
    501c:	c9 01       	movw	r24, r18
    501e:	29 96       	adiw	r28, 0x09	; 9
    5020:	ee e0       	ldi	r30, 0x0E	; 14
    5022:	0c 94 8b 22 	jmp	0x4516	; 0x4516 <__epilogue_restores__+0x8>

00005026 <strtod>:
    5026:	a0 e0       	ldi	r26, 0x00	; 0
    5028:	b0 e0       	ldi	r27, 0x00	; 0
    502a:	e9 e1       	ldi	r30, 0x19	; 25
    502c:	f8 e2       	ldi	r31, 0x28	; 40
    502e:	0c 94 71 22 	jmp	0x44e2	; 0x44e2 <__prologue_saves__+0xc>
    5032:	ec 01       	movw	r28, r24
    5034:	5b 01       	movw	r10, r22
    5036:	61 15       	cp	r22, r1
    5038:	71 05       	cpc	r23, r1
    503a:	19 f0       	breq	.+6      	; 0x5042 <strtod+0x1c>
    503c:	fb 01       	movw	r30, r22
    503e:	91 83       	std	Z+1, r25	; 0x01
    5040:	80 83       	st	Z, r24
    5042:	f9 90       	ld	r15, Y+
    5044:	8f 2d       	mov	r24, r15
    5046:	90 e0       	ldi	r25, 0x00	; 0
    5048:	0e 94 4b 2a 	call	0x5496	; 0x5496 <isspace>
    504c:	89 2b       	or	r24, r25
    504e:	c9 f7       	brne	.-14     	; 0x5042 <strtod+0x1c>
    5050:	fd e2       	ldi	r31, 0x2D	; 45
    5052:	ff 16       	cp	r15, r31
    5054:	21 f4       	brne	.+8      	; 0x505e <strtod+0x38>
    5056:	f9 90       	ld	r15, Y+
    5058:	ee 24       	eor	r14, r14
    505a:	e3 94       	inc	r14
    505c:	05 c0       	rjmp	.+10     	; 0x5068 <strtod+0x42>
    505e:	2b e2       	ldi	r18, 0x2B	; 43
    5060:	f2 16       	cp	r15, r18
    5062:	09 f4       	brne	.+2      	; 0x5066 <strtod+0x40>
    5064:	f9 90       	ld	r15, Y+
    5066:	ee 24       	eor	r14, r14
    5068:	8e 01       	movw	r16, r28
    506a:	01 50       	subi	r16, 0x01	; 1
    506c:	10 40       	sbci	r17, 0x00	; 0
    506e:	c8 01       	movw	r24, r16
    5070:	6c e8       	ldi	r22, 0x8C	; 140
    5072:	72 e0       	ldi	r23, 0x02	; 2
    5074:	43 e0       	ldi	r20, 0x03	; 3
    5076:	50 e0       	ldi	r21, 0x00	; 0
    5078:	0e 94 53 2a 	call	0x54a6	; 0x54a6 <strncasecmp_P>
    507c:	89 2b       	or	r24, r25
    507e:	01 f5       	brne	.+64     	; 0x50c0 <strtod+0x9a>
    5080:	8e 01       	movw	r16, r28
    5082:	0e 5f       	subi	r16, 0xFE	; 254
    5084:	1f 4f       	sbci	r17, 0xFF	; 255
    5086:	c8 01       	movw	r24, r16
    5088:	6f e8       	ldi	r22, 0x8F	; 143
    508a:	72 e0       	ldi	r23, 0x02	; 2
    508c:	45 e0       	ldi	r20, 0x05	; 5
    508e:	50 e0       	ldi	r21, 0x00	; 0
    5090:	0e 94 53 2a 	call	0x54a6	; 0x54a6 <strncasecmp_P>
    5094:	89 2b       	or	r24, r25
    5096:	19 f4       	brne	.+6      	; 0x509e <strtod+0x78>
    5098:	8e 01       	movw	r16, r28
    509a:	09 5f       	subi	r16, 0xF9	; 249
    509c:	1f 4f       	sbci	r17, 0xFF	; 255
    509e:	a1 14       	cp	r10, r1
    50a0:	b1 04       	cpc	r11, r1
    50a2:	19 f0       	breq	.+6      	; 0x50aa <strtod+0x84>
    50a4:	f5 01       	movw	r30, r10
    50a6:	11 83       	std	Z+1, r17	; 0x01
    50a8:	00 83       	st	Z, r16
    50aa:	e0 fc       	sbrc	r14, 0
    50ac:	04 c0       	rjmp	.+8      	; 0x50b6 <strtod+0x90>
    50ae:	70 e0       	ldi	r23, 0x00	; 0
    50b0:	90 e0       	ldi	r25, 0x00	; 0
    50b2:	80 e8       	ldi	r24, 0x80	; 128
    50b4:	14 c0       	rjmp	.+40     	; 0x50de <strtod+0xb8>
    50b6:	70 e0       	ldi	r23, 0x00	; 0
    50b8:	90 e0       	ldi	r25, 0x00	; 0
    50ba:	80 e8       	ldi	r24, 0x80	; 128
    50bc:	6f ef       	ldi	r22, 0xFF	; 255
    50be:	08 c1       	rjmp	.+528    	; 0x52d0 <strtod+0x2aa>
    50c0:	c8 01       	movw	r24, r16
    50c2:	64 e9       	ldi	r22, 0x94	; 148
    50c4:	72 e0       	ldi	r23, 0x02	; 2
    50c6:	43 e0       	ldi	r20, 0x03	; 3
    50c8:	50 e0       	ldi	r21, 0x00	; 0
    50ca:	0e 94 53 2a 	call	0x54a6	; 0x54a6 <strncasecmp_P>
    50ce:	89 2b       	or	r24, r25
    50d0:	69 f4       	brne	.+26     	; 0x50ec <strtod+0xc6>
    50d2:	a1 14       	cp	r10, r1
    50d4:	b1 04       	cpc	r11, r1
    50d6:	29 f4       	brne	.+10     	; 0x50e2 <strtod+0xbc>
    50d8:	70 e0       	ldi	r23, 0x00	; 0
    50da:	90 e0       	ldi	r25, 0x00	; 0
    50dc:	80 ec       	ldi	r24, 0xC0	; 192
    50de:	6f e7       	ldi	r22, 0x7F	; 127
    50e0:	f7 c0       	rjmp	.+494    	; 0x52d0 <strtod+0x2aa>
    50e2:	22 96       	adiw	r28, 0x02	; 2
    50e4:	f5 01       	movw	r30, r10
    50e6:	d1 83       	std	Z+1, r29	; 0x01
    50e8:	c0 83       	st	Z, r28
    50ea:	f6 cf       	rjmp	.-20     	; 0x50d8 <strtod+0xb2>
    50ec:	88 24       	eor	r8, r8
    50ee:	99 24       	eor	r9, r9
    50f0:	40 e0       	ldi	r20, 0x00	; 0
    50f2:	50 e0       	ldi	r21, 0x00	; 0
    50f4:	60 e0       	ldi	r22, 0x00	; 0
    50f6:	70 e0       	ldi	r23, 0x00	; 0
    50f8:	ef 2d       	mov	r30, r15
    50fa:	e0 53       	subi	r30, 0x30	; 48
    50fc:	ea 30       	cpi	r30, 0x0A	; 10
    50fe:	a0 f5       	brcc	.+104    	; 0x5168 <strtod+0x142>
    5100:	f2 e0       	ldi	r31, 0x02	; 2
    5102:	ef 2a       	or	r14, r31
    5104:	8e 2d       	mov	r24, r14
    5106:	90 e0       	ldi	r25, 0x00	; 0
    5108:	9c 01       	movw	r18, r24
    510a:	28 70       	andi	r18, 0x08	; 8
    510c:	30 70       	andi	r19, 0x00	; 0
    510e:	e2 fe       	sbrs	r14, 2
    5110:	06 c0       	rjmp	.+12     	; 0x511e <strtod+0xf8>
    5112:	23 2b       	or	r18, r19
    5114:	79 f5       	brne	.+94     	; 0x5174 <strtod+0x14e>
    5116:	08 94       	sec
    5118:	81 1c       	adc	r8, r1
    511a:	91 1c       	adc	r9, r1
    511c:	2b c0       	rjmp	.+86     	; 0x5174 <strtod+0x14e>
    511e:	23 2b       	or	r18, r19
    5120:	19 f0       	breq	.+6      	; 0x5128 <strtod+0x102>
    5122:	08 94       	sec
    5124:	81 08       	sbc	r8, r1
    5126:	91 08       	sbc	r9, r1
    5128:	db 01       	movw	r26, r22
    512a:	ca 01       	movw	r24, r20
    512c:	12 e0       	ldi	r17, 0x02	; 2
    512e:	88 0f       	add	r24, r24
    5130:	99 1f       	adc	r25, r25
    5132:	aa 1f       	adc	r26, r26
    5134:	bb 1f       	adc	r27, r27
    5136:	1a 95       	dec	r17
    5138:	d1 f7       	brne	.-12     	; 0x512e <strtod+0x108>
    513a:	48 0f       	add	r20, r24
    513c:	59 1f       	adc	r21, r25
    513e:	6a 1f       	adc	r22, r26
    5140:	7b 1f       	adc	r23, r27
    5142:	44 0f       	add	r20, r20
    5144:	55 1f       	adc	r21, r21
    5146:	66 1f       	adc	r22, r22
    5148:	77 1f       	adc	r23, r23
    514a:	4e 0f       	add	r20, r30
    514c:	51 1d       	adc	r21, r1
    514e:	61 1d       	adc	r22, r1
    5150:	71 1d       	adc	r23, r1
    5152:	48 39       	cpi	r20, 0x98	; 152
    5154:	29 e9       	ldi	r18, 0x99	; 153
    5156:	52 07       	cpc	r21, r18
    5158:	29 e9       	ldi	r18, 0x99	; 153
    515a:	62 07       	cpc	r22, r18
    515c:	29 e1       	ldi	r18, 0x19	; 25
    515e:	72 07       	cpc	r23, r18
    5160:	48 f0       	brcs	.+18     	; 0x5174 <strtod+0x14e>
    5162:	84 e0       	ldi	r24, 0x04	; 4
    5164:	e8 2a       	or	r14, r24
    5166:	06 c0       	rjmp	.+12     	; 0x5174 <strtod+0x14e>
    5168:	ee 3f       	cpi	r30, 0xFE	; 254
    516a:	31 f4       	brne	.+12     	; 0x5178 <strtod+0x152>
    516c:	e3 fc       	sbrc	r14, 3
    516e:	39 c0       	rjmp	.+114    	; 0x51e2 <strtod+0x1bc>
    5170:	98 e0       	ldi	r25, 0x08	; 8
    5172:	e9 2a       	or	r14, r25
    5174:	f9 90       	ld	r15, Y+
    5176:	c0 cf       	rjmp	.-128    	; 0x50f8 <strtod+0xd2>
    5178:	e5 33       	cpi	r30, 0x35	; 53
    517a:	11 f0       	breq	.+4      	; 0x5180 <strtod+0x15a>
    517c:	e5 31       	cpi	r30, 0x15	; 21
    517e:	89 f5       	brne	.+98     	; 0x51e2 <strtod+0x1bc>
    5180:	29 91       	ld	r18, Y+
    5182:	2d 32       	cpi	r18, 0x2D	; 45
    5184:	19 f4       	brne	.+6      	; 0x518c <strtod+0x166>
    5186:	e0 e1       	ldi	r30, 0x10	; 16
    5188:	ee 2a       	or	r14, r30
    518a:	05 c0       	rjmp	.+10     	; 0x5196 <strtod+0x170>
    518c:	2b 32       	cpi	r18, 0x2B	; 43
    518e:	19 f0       	breq	.+6      	; 0x5196 <strtod+0x170>
    5190:	81 e0       	ldi	r24, 0x01	; 1
    5192:	90 e0       	ldi	r25, 0x00	; 0
    5194:	03 c0       	rjmp	.+6      	; 0x519c <strtod+0x176>
    5196:	29 91       	ld	r18, Y+
    5198:	82 e0       	ldi	r24, 0x02	; 2
    519a:	90 e0       	ldi	r25, 0x00	; 0
    519c:	e2 2f       	mov	r30, r18
    519e:	e0 53       	subi	r30, 0x30	; 48
    51a0:	ea 30       	cpi	r30, 0x0A	; 10
    51a2:	18 f0       	brcs	.+6      	; 0x51aa <strtod+0x184>
    51a4:	c8 1b       	sub	r28, r24
    51a6:	d9 0b       	sbc	r29, r25
    51a8:	1c c0       	rjmp	.+56     	; 0x51e2 <strtod+0x1bc>
    51aa:	20 e0       	ldi	r18, 0x00	; 0
    51ac:	30 e0       	ldi	r19, 0x00	; 0
    51ae:	fc e0       	ldi	r31, 0x0C	; 12
    51b0:	20 38       	cpi	r18, 0x80	; 128
    51b2:	3f 07       	cpc	r19, r31
    51b4:	5c f4       	brge	.+22     	; 0x51cc <strtod+0x1a6>
    51b6:	c9 01       	movw	r24, r18
    51b8:	88 0f       	add	r24, r24
    51ba:	99 1f       	adc	r25, r25
    51bc:	88 0f       	add	r24, r24
    51be:	99 1f       	adc	r25, r25
    51c0:	28 0f       	add	r18, r24
    51c2:	39 1f       	adc	r19, r25
    51c4:	22 0f       	add	r18, r18
    51c6:	33 1f       	adc	r19, r19
    51c8:	2e 0f       	add	r18, r30
    51ca:	31 1d       	adc	r19, r1
    51cc:	e9 91       	ld	r30, Y+
    51ce:	e0 53       	subi	r30, 0x30	; 48
    51d0:	ea 30       	cpi	r30, 0x0A	; 10
    51d2:	68 f3       	brcs	.-38     	; 0x51ae <strtod+0x188>
    51d4:	e4 fe       	sbrs	r14, 4
    51d6:	03 c0       	rjmp	.+6      	; 0x51de <strtod+0x1b8>
    51d8:	30 95       	com	r19
    51da:	21 95       	neg	r18
    51dc:	3f 4f       	sbci	r19, 0xFF	; 255
    51de:	82 0e       	add	r8, r18
    51e0:	93 1e       	adc	r9, r19
    51e2:	ce 2c       	mov	r12, r14
    51e4:	dd 24       	eor	r13, r13
    51e6:	e1 fe       	sbrs	r14, 1
    51e8:	07 c0       	rjmp	.+14     	; 0x51f8 <strtod+0x1d2>
    51ea:	a1 14       	cp	r10, r1
    51ec:	b1 04       	cpc	r11, r1
    51ee:	21 f0       	breq	.+8      	; 0x51f8 <strtod+0x1d2>
    51f0:	21 97       	sbiw	r28, 0x01	; 1
    51f2:	f5 01       	movw	r30, r10
    51f4:	d1 83       	std	Z+1, r29	; 0x01
    51f6:	c0 83       	st	Z, r28
    51f8:	cb 01       	movw	r24, r22
    51fa:	ba 01       	movw	r22, r20
    51fc:	0e 94 dc 02 	call	0x5b8	; 0x5b8 <__floatunsisf>
    5200:	7b 01       	movw	r14, r22
    5202:	8c 01       	movw	r16, r24
    5204:	f3 e0       	ldi	r31, 0x03	; 3
    5206:	cf 22       	and	r12, r31
    5208:	dd 24       	eor	r13, r13
    520a:	23 e0       	ldi	r18, 0x03	; 3
    520c:	c2 16       	cp	r12, r18
    520e:	d1 04       	cpc	r13, r1
    5210:	21 f4       	brne	.+8      	; 0x521a <strtod+0x1f4>
    5212:	17 fb       	bst	r17, 7
    5214:	10 95       	com	r17
    5216:	17 f9       	bld	r17, 7
    5218:	10 95       	com	r17
    521a:	57 01       	movw	r10, r14
    521c:	68 01       	movw	r12, r16
    521e:	c8 01       	movw	r24, r16
    5220:	b7 01       	movw	r22, r14
    5222:	20 e0       	ldi	r18, 0x00	; 0
    5224:	30 e0       	ldi	r19, 0x00	; 0
    5226:	40 e0       	ldi	r20, 0x00	; 0
    5228:	50 e0       	ldi	r21, 0x00	; 0
    522a:	0e 94 1b 2b 	call	0x5636	; 0x5636 <__cmpsf2>
    522e:	88 23       	and	r24, r24
    5230:	09 f4       	brne	.+2      	; 0x5234 <strtod+0x20e>
    5232:	4a c0       	rjmp	.+148    	; 0x52c8 <strtod+0x2a2>
    5234:	97 fe       	sbrs	r9, 7
    5236:	0d c0       	rjmp	.+26     	; 0x5252 <strtod+0x22c>
    5238:	2b ea       	ldi	r18, 0xAB	; 171
    523a:	e2 2e       	mov	r14, r18
    523c:	22 e0       	ldi	r18, 0x02	; 2
    523e:	f2 2e       	mov	r15, r18
    5240:	90 94       	com	r9
    5242:	81 94       	neg	r8
    5244:	91 08       	sbc	r9, r1
    5246:	93 94       	inc	r9
    5248:	c0 e2       	ldi	r28, 0x20	; 32
    524a:	d0 e0       	ldi	r29, 0x00	; 0
    524c:	00 e0       	ldi	r16, 0x00	; 0
    524e:	10 e0       	ldi	r17, 0x00	; 0
    5250:	12 c0       	rjmp	.+36     	; 0x5276 <strtod+0x250>
    5252:	93 ec       	ldi	r25, 0xC3	; 195
    5254:	e9 2e       	mov	r14, r25
    5256:	92 e0       	ldi	r25, 0x02	; 2
    5258:	f9 2e       	mov	r15, r25
    525a:	f6 cf       	rjmp	.-20     	; 0x5248 <strtod+0x222>
    525c:	f7 01       	movw	r30, r14
    525e:	25 91       	lpm	r18, Z+
    5260:	35 91       	lpm	r19, Z+
    5262:	45 91       	lpm	r20, Z+
    5264:	54 91       	lpm	r21, Z+
    5266:	c6 01       	movw	r24, r12
    5268:	b5 01       	movw	r22, r10
    526a:	0e 94 43 2b 	call	0x5686	; 0x5686 <__mulsf3>
    526e:	5b 01       	movw	r10, r22
    5270:	6c 01       	movw	r12, r24
    5272:	8c 1a       	sub	r8, r28
    5274:	9d 0a       	sbc	r9, r29
    5276:	8c 16       	cp	r8, r28
    5278:	9d 06       	cpc	r9, r29
    527a:	84 f7       	brge	.-32     	; 0x525c <strtod+0x236>
    527c:	d5 95       	asr	r29
    527e:	c7 95       	ror	r28
    5280:	0f 5f       	subi	r16, 0xFF	; 255
    5282:	1f 4f       	sbci	r17, 0xFF	; 255
    5284:	06 30       	cpi	r16, 0x06	; 6
    5286:	11 05       	cpc	r17, r1
    5288:	29 f0       	breq	.+10     	; 0x5294 <strtod+0x26e>
    528a:	8c ef       	ldi	r24, 0xFC	; 252
    528c:	9f ef       	ldi	r25, 0xFF	; 255
    528e:	e8 0e       	add	r14, r24
    5290:	f9 1e       	adc	r15, r25
    5292:	f1 cf       	rjmp	.-30     	; 0x5276 <strtod+0x250>
    5294:	c5 01       	movw	r24, r10
    5296:	d6 01       	movw	r26, r12
    5298:	7c 01       	movw	r14, r24
    529a:	8d 01       	movw	r16, r26
    529c:	8c 2d       	mov	r24, r12
    529e:	88 0f       	add	r24, r24
    52a0:	8d 2d       	mov	r24, r13
    52a2:	88 1f       	adc	r24, r24
    52a4:	8f 3f       	cpi	r24, 0xFF	; 255
    52a6:	51 f0       	breq	.+20     	; 0x52bc <strtod+0x296>
    52a8:	c6 01       	movw	r24, r12
    52aa:	b5 01       	movw	r22, r10
    52ac:	20 e0       	ldi	r18, 0x00	; 0
    52ae:	30 e0       	ldi	r19, 0x00	; 0
    52b0:	40 e0       	ldi	r20, 0x00	; 0
    52b2:	50 e0       	ldi	r21, 0x00	; 0
    52b4:	0e 94 1b 2b 	call	0x5636	; 0x5636 <__cmpsf2>
    52b8:	88 23       	and	r24, r24
    52ba:	31 f4       	brne	.+12     	; 0x52c8 <strtod+0x2a2>
    52bc:	82 e2       	ldi	r24, 0x22	; 34
    52be:	90 e0       	ldi	r25, 0x00	; 0
    52c0:	90 93 de 09 	sts	0x09DE, r25
    52c4:	80 93 dd 09 	sts	0x09DD, r24
    52c8:	7e 2d       	mov	r23, r14
    52ca:	9f 2d       	mov	r25, r15
    52cc:	80 2f       	mov	r24, r16
    52ce:	61 2f       	mov	r22, r17
    52d0:	27 2f       	mov	r18, r23
    52d2:	39 2f       	mov	r19, r25
    52d4:	48 2f       	mov	r20, r24
    52d6:	56 2f       	mov	r21, r22
    52d8:	b9 01       	movw	r22, r18
    52da:	ca 01       	movw	r24, r20
    52dc:	cd b7       	in	r28, 0x3d	; 61
    52de:	de b7       	in	r29, 0x3e	; 62
    52e0:	ec e0       	ldi	r30, 0x0C	; 12
    52e2:	0c 94 8d 22 	jmp	0x451a	; 0x451a <__epilogue_restores__+0xc>

000052e6 <__ftoa_engine>:
    52e6:	28 30       	cpi	r18, 0x08	; 8
    52e8:	08 f0       	brcs	.+2      	; 0x52ec <__ftoa_engine+0x6>
    52ea:	27 e0       	ldi	r18, 0x07	; 7
    52ec:	33 27       	eor	r19, r19
    52ee:	da 01       	movw	r26, r20
    52f0:	99 0f       	add	r25, r25
    52f2:	31 1d       	adc	r19, r1
    52f4:	87 fd       	sbrc	r24, 7
    52f6:	91 60       	ori	r25, 0x01	; 1
    52f8:	00 96       	adiw	r24, 0x00	; 0
    52fa:	61 05       	cpc	r22, r1
    52fc:	71 05       	cpc	r23, r1
    52fe:	39 f4       	brne	.+14     	; 0x530e <__ftoa_engine+0x28>
    5300:	32 60       	ori	r19, 0x02	; 2
    5302:	2e 5f       	subi	r18, 0xFE	; 254
    5304:	3d 93       	st	X+, r19
    5306:	30 e3       	ldi	r19, 0x30	; 48
    5308:	2a 95       	dec	r18
    530a:	e1 f7       	brne	.-8      	; 0x5304 <__ftoa_engine+0x1e>
    530c:	08 95       	ret
    530e:	9f 3f       	cpi	r25, 0xFF	; 255
    5310:	30 f0       	brcs	.+12     	; 0x531e <__ftoa_engine+0x38>
    5312:	80 38       	cpi	r24, 0x80	; 128
    5314:	71 05       	cpc	r23, r1
    5316:	61 05       	cpc	r22, r1
    5318:	09 f0       	breq	.+2      	; 0x531c <__ftoa_engine+0x36>
    531a:	3c 5f       	subi	r19, 0xFC	; 252
    531c:	3c 5f       	subi	r19, 0xFC	; 252
    531e:	3d 93       	st	X+, r19
    5320:	91 30       	cpi	r25, 0x01	; 1
    5322:	08 f0       	brcs	.+2      	; 0x5326 <__ftoa_engine+0x40>
    5324:	80 68       	ori	r24, 0x80	; 128
    5326:	91 1d       	adc	r25, r1
    5328:	df 93       	push	r29
    532a:	cf 93       	push	r28
    532c:	1f 93       	push	r17
    532e:	0f 93       	push	r16
    5330:	ff 92       	push	r15
    5332:	ef 92       	push	r14
    5334:	19 2f       	mov	r17, r25
    5336:	98 7f       	andi	r25, 0xF8	; 248
    5338:	96 95       	lsr	r25
    533a:	e9 2f       	mov	r30, r25
    533c:	96 95       	lsr	r25
    533e:	96 95       	lsr	r25
    5340:	e9 0f       	add	r30, r25
    5342:	ff 27       	eor	r31, r31
    5344:	ef 5d       	subi	r30, 0xDF	; 223
    5346:	fc 4f       	sbci	r31, 0xFC	; 252
    5348:	99 27       	eor	r25, r25
    534a:	33 27       	eor	r19, r19
    534c:	ee 24       	eor	r14, r14
    534e:	ff 24       	eor	r15, r15
    5350:	a7 01       	movw	r20, r14
    5352:	e7 01       	movw	r28, r14
    5354:	05 90       	lpm	r0, Z+
    5356:	08 94       	sec
    5358:	07 94       	ror	r0
    535a:	28 f4       	brcc	.+10     	; 0x5366 <__ftoa_engine+0x80>
    535c:	36 0f       	add	r19, r22
    535e:	e7 1e       	adc	r14, r23
    5360:	f8 1e       	adc	r15, r24
    5362:	49 1f       	adc	r20, r25
    5364:	51 1d       	adc	r21, r1
    5366:	66 0f       	add	r22, r22
    5368:	77 1f       	adc	r23, r23
    536a:	88 1f       	adc	r24, r24
    536c:	99 1f       	adc	r25, r25
    536e:	06 94       	lsr	r0
    5370:	a1 f7       	brne	.-24     	; 0x535a <__ftoa_engine+0x74>
    5372:	05 90       	lpm	r0, Z+
    5374:	07 94       	ror	r0
    5376:	28 f4       	brcc	.+10     	; 0x5382 <__ftoa_engine+0x9c>
    5378:	e7 0e       	add	r14, r23
    537a:	f8 1e       	adc	r15, r24
    537c:	49 1f       	adc	r20, r25
    537e:	56 1f       	adc	r21, r22
    5380:	c1 1d       	adc	r28, r1
    5382:	77 0f       	add	r23, r23
    5384:	88 1f       	adc	r24, r24
    5386:	99 1f       	adc	r25, r25
    5388:	66 1f       	adc	r22, r22
    538a:	06 94       	lsr	r0
    538c:	a1 f7       	brne	.-24     	; 0x5376 <__ftoa_engine+0x90>
    538e:	05 90       	lpm	r0, Z+
    5390:	07 94       	ror	r0
    5392:	28 f4       	brcc	.+10     	; 0x539e <__ftoa_engine+0xb8>
    5394:	f8 0e       	add	r15, r24
    5396:	49 1f       	adc	r20, r25
    5398:	56 1f       	adc	r21, r22
    539a:	c7 1f       	adc	r28, r23
    539c:	d1 1d       	adc	r29, r1
    539e:	88 0f       	add	r24, r24
    53a0:	99 1f       	adc	r25, r25
    53a2:	66 1f       	adc	r22, r22
    53a4:	77 1f       	adc	r23, r23
    53a6:	06 94       	lsr	r0
    53a8:	a1 f7       	brne	.-24     	; 0x5392 <__ftoa_engine+0xac>
    53aa:	05 90       	lpm	r0, Z+
    53ac:	07 94       	ror	r0
    53ae:	20 f4       	brcc	.+8      	; 0x53b8 <__ftoa_engine+0xd2>
    53b0:	49 0f       	add	r20, r25
    53b2:	56 1f       	adc	r21, r22
    53b4:	c7 1f       	adc	r28, r23
    53b6:	d8 1f       	adc	r29, r24
    53b8:	99 0f       	add	r25, r25
    53ba:	66 1f       	adc	r22, r22
    53bc:	77 1f       	adc	r23, r23
    53be:	88 1f       	adc	r24, r24
    53c0:	06 94       	lsr	r0
    53c2:	a9 f7       	brne	.-22     	; 0x53ae <__ftoa_engine+0xc8>
    53c4:	84 91       	lpm	r24, Z+
    53c6:	10 95       	com	r17
    53c8:	17 70       	andi	r17, 0x07	; 7
    53ca:	41 f0       	breq	.+16     	; 0x53dc <__ftoa_engine+0xf6>
    53cc:	d6 95       	lsr	r29
    53ce:	c7 95       	ror	r28
    53d0:	57 95       	ror	r21
    53d2:	47 95       	ror	r20
    53d4:	f7 94       	ror	r15
    53d6:	e7 94       	ror	r14
    53d8:	1a 95       	dec	r17
    53da:	c1 f7       	brne	.-16     	; 0x53cc <__ftoa_engine+0xe6>
    53dc:	e7 ec       	ldi	r30, 0xC7	; 199
    53de:	f2 e0       	ldi	r31, 0x02	; 2
    53e0:	68 94       	set
    53e2:	15 90       	lpm	r1, Z+
    53e4:	15 91       	lpm	r17, Z+
    53e6:	35 91       	lpm	r19, Z+
    53e8:	65 91       	lpm	r22, Z+
    53ea:	95 91       	lpm	r25, Z+
    53ec:	05 90       	lpm	r0, Z+
    53ee:	7f e2       	ldi	r23, 0x2F	; 47
    53f0:	73 95       	inc	r23
    53f2:	e1 18       	sub	r14, r1
    53f4:	f1 0a       	sbc	r15, r17
    53f6:	43 0b       	sbc	r20, r19
    53f8:	56 0b       	sbc	r21, r22
    53fa:	c9 0b       	sbc	r28, r25
    53fc:	d0 09       	sbc	r29, r0
    53fe:	c0 f7       	brcc	.-16     	; 0x53f0 <__ftoa_engine+0x10a>
    5400:	e1 0c       	add	r14, r1
    5402:	f1 1e       	adc	r15, r17
    5404:	43 1f       	adc	r20, r19
    5406:	56 1f       	adc	r21, r22
    5408:	c9 1f       	adc	r28, r25
    540a:	d0 1d       	adc	r29, r0
    540c:	7e f4       	brtc	.+30     	; 0x542c <__ftoa_engine+0x146>
    540e:	70 33       	cpi	r23, 0x30	; 48
    5410:	11 f4       	brne	.+4      	; 0x5416 <__ftoa_engine+0x130>
    5412:	8a 95       	dec	r24
    5414:	e6 cf       	rjmp	.-52     	; 0x53e2 <__ftoa_engine+0xfc>
    5416:	e8 94       	clt
    5418:	01 50       	subi	r16, 0x01	; 1
    541a:	30 f0       	brcs	.+12     	; 0x5428 <__ftoa_engine+0x142>
    541c:	08 0f       	add	r16, r24
    541e:	0a f4       	brpl	.+2      	; 0x5422 <__ftoa_engine+0x13c>
    5420:	00 27       	eor	r16, r16
    5422:	02 17       	cp	r16, r18
    5424:	08 f4       	brcc	.+2      	; 0x5428 <__ftoa_engine+0x142>
    5426:	20 2f       	mov	r18, r16
    5428:	23 95       	inc	r18
    542a:	02 2f       	mov	r16, r18
    542c:	7a 33       	cpi	r23, 0x3A	; 58
    542e:	28 f0       	brcs	.+10     	; 0x543a <__ftoa_engine+0x154>
    5430:	79 e3       	ldi	r23, 0x39	; 57
    5432:	7d 93       	st	X+, r23
    5434:	2a 95       	dec	r18
    5436:	e9 f7       	brne	.-6      	; 0x5432 <__ftoa_engine+0x14c>
    5438:	10 c0       	rjmp	.+32     	; 0x545a <__ftoa_engine+0x174>
    543a:	7d 93       	st	X+, r23
    543c:	2a 95       	dec	r18
    543e:	89 f6       	brne	.-94     	; 0x53e2 <__ftoa_engine+0xfc>
    5440:	06 94       	lsr	r0
    5442:	97 95       	ror	r25
    5444:	67 95       	ror	r22
    5446:	37 95       	ror	r19
    5448:	17 95       	ror	r17
    544a:	17 94       	ror	r1
    544c:	e1 18       	sub	r14, r1
    544e:	f1 0a       	sbc	r15, r17
    5450:	43 0b       	sbc	r20, r19
    5452:	56 0b       	sbc	r21, r22
    5454:	c9 0b       	sbc	r28, r25
    5456:	d0 09       	sbc	r29, r0
    5458:	98 f0       	brcs	.+38     	; 0x5480 <__ftoa_engine+0x19a>
    545a:	23 95       	inc	r18
    545c:	7e 91       	ld	r23, -X
    545e:	73 95       	inc	r23
    5460:	7a 33       	cpi	r23, 0x3A	; 58
    5462:	08 f0       	brcs	.+2      	; 0x5466 <__ftoa_engine+0x180>
    5464:	70 e3       	ldi	r23, 0x30	; 48
    5466:	7c 93       	st	X, r23
    5468:	20 13       	cpse	r18, r16
    546a:	b8 f7       	brcc	.-18     	; 0x545a <__ftoa_engine+0x174>
    546c:	7e 91       	ld	r23, -X
    546e:	70 61       	ori	r23, 0x10	; 16
    5470:	7d 93       	st	X+, r23
    5472:	30 f0       	brcs	.+12     	; 0x5480 <__ftoa_engine+0x19a>
    5474:	83 95       	inc	r24
    5476:	71 e3       	ldi	r23, 0x31	; 49
    5478:	7d 93       	st	X+, r23
    547a:	70 e3       	ldi	r23, 0x30	; 48
    547c:	2a 95       	dec	r18
    547e:	e1 f7       	brne	.-8      	; 0x5478 <__ftoa_engine+0x192>
    5480:	11 24       	eor	r1, r1
    5482:	ef 90       	pop	r14
    5484:	ff 90       	pop	r15
    5486:	0f 91       	pop	r16
    5488:	1f 91       	pop	r17
    548a:	cf 91       	pop	r28
    548c:	df 91       	pop	r29
    548e:	99 27       	eor	r25, r25
    5490:	87 fd       	sbrc	r24, 7
    5492:	90 95       	com	r25
    5494:	08 95       	ret

00005496 <isspace>:
    5496:	91 11       	cpse	r25, r1
    5498:	59 c1       	rjmp	.+690    	; 0x574c <__ctype_isfalse>
    549a:	80 32       	cpi	r24, 0x20	; 32
    549c:	19 f0       	breq	.+6      	; 0x54a4 <isspace+0xe>
    549e:	89 50       	subi	r24, 0x09	; 9
    54a0:	85 50       	subi	r24, 0x05	; 5
    54a2:	d0 f7       	brcc	.-12     	; 0x5498 <isspace+0x2>
    54a4:	08 95       	ret

000054a6 <strncasecmp_P>:
    54a6:	fb 01       	movw	r30, r22
    54a8:	dc 01       	movw	r26, r24
    54aa:	41 50       	subi	r20, 0x01	; 1
    54ac:	50 40       	sbci	r21, 0x00	; 0
    54ae:	88 f0       	brcs	.+34     	; 0x54d2 <strncasecmp_P+0x2c>
    54b0:	8d 91       	ld	r24, X+
    54b2:	81 34       	cpi	r24, 0x41	; 65
    54b4:	1c f0       	brlt	.+6      	; 0x54bc <strncasecmp_P+0x16>
    54b6:	8b 35       	cpi	r24, 0x5B	; 91
    54b8:	0c f4       	brge	.+2      	; 0x54bc <strncasecmp_P+0x16>
    54ba:	80 5e       	subi	r24, 0xE0	; 224
    54bc:	65 91       	lpm	r22, Z+
    54be:	61 34       	cpi	r22, 0x41	; 65
    54c0:	1c f0       	brlt	.+6      	; 0x54c8 <strncasecmp_P+0x22>
    54c2:	6b 35       	cpi	r22, 0x5B	; 91
    54c4:	0c f4       	brge	.+2      	; 0x54c8 <strncasecmp_P+0x22>
    54c6:	60 5e       	subi	r22, 0xE0	; 224
    54c8:	86 1b       	sub	r24, r22
    54ca:	61 11       	cpse	r22, r1
    54cc:	71 f3       	breq	.-36     	; 0x54aa <strncasecmp_P+0x4>
    54ce:	99 0b       	sbc	r25, r25
    54d0:	08 95       	ret
    54d2:	88 1b       	sub	r24, r24
    54d4:	fc cf       	rjmp	.-8      	; 0x54ce <strncasecmp_P+0x28>

000054d6 <strnlen_P>:
    54d6:	fc 01       	movw	r30, r24
    54d8:	05 90       	lpm	r0, Z+
    54da:	61 50       	subi	r22, 0x01	; 1
    54dc:	70 40       	sbci	r23, 0x00	; 0
    54de:	01 10       	cpse	r0, r1
    54e0:	d8 f7       	brcc	.-10     	; 0x54d8 <strnlen_P+0x2>
    54e2:	80 95       	com	r24
    54e4:	90 95       	com	r25
    54e6:	8e 0f       	add	r24, r30
    54e8:	9f 1f       	adc	r25, r31
    54ea:	08 95       	ret

000054ec <strnlen>:
    54ec:	fc 01       	movw	r30, r24
    54ee:	61 50       	subi	r22, 0x01	; 1
    54f0:	70 40       	sbci	r23, 0x00	; 0
    54f2:	01 90       	ld	r0, Z+
    54f4:	01 10       	cpse	r0, r1
    54f6:	d8 f7       	brcc	.-10     	; 0x54ee <strnlen+0x2>
    54f8:	80 95       	com	r24
    54fa:	90 95       	com	r25
    54fc:	8e 0f       	add	r24, r30
    54fe:	9f 1f       	adc	r25, r31
    5500:	08 95       	ret

00005502 <strrev>:
    5502:	dc 01       	movw	r26, r24
    5504:	fc 01       	movw	r30, r24
    5506:	67 2f       	mov	r22, r23
    5508:	71 91       	ld	r23, Z+
    550a:	77 23       	and	r23, r23
    550c:	e1 f7       	brne	.-8      	; 0x5506 <strrev+0x4>
    550e:	32 97       	sbiw	r30, 0x02	; 2
    5510:	04 c0       	rjmp	.+8      	; 0x551a <strrev+0x18>
    5512:	7c 91       	ld	r23, X
    5514:	6d 93       	st	X+, r22
    5516:	70 83       	st	Z, r23
    5518:	62 91       	ld	r22, -Z
    551a:	ae 17       	cp	r26, r30
    551c:	bf 07       	cpc	r27, r31
    551e:	c8 f3       	brcs	.-14     	; 0x5512 <strrev+0x10>
    5520:	08 95       	ret

00005522 <fputc>:
    5522:	0f 93       	push	r16
    5524:	1f 93       	push	r17
    5526:	cf 93       	push	r28
    5528:	df 93       	push	r29
    552a:	8c 01       	movw	r16, r24
    552c:	eb 01       	movw	r28, r22
    552e:	8b 81       	ldd	r24, Y+3	; 0x03
    5530:	81 ff       	sbrs	r24, 1
    5532:	1b c0       	rjmp	.+54     	; 0x556a <fputc+0x48>
    5534:	82 ff       	sbrs	r24, 2
    5536:	0d c0       	rjmp	.+26     	; 0x5552 <fputc+0x30>
    5538:	2e 81       	ldd	r18, Y+6	; 0x06
    553a:	3f 81       	ldd	r19, Y+7	; 0x07
    553c:	8c 81       	ldd	r24, Y+4	; 0x04
    553e:	9d 81       	ldd	r25, Y+5	; 0x05
    5540:	28 17       	cp	r18, r24
    5542:	39 07       	cpc	r19, r25
    5544:	64 f4       	brge	.+24     	; 0x555e <fputc+0x3c>
    5546:	e8 81       	ld	r30, Y
    5548:	f9 81       	ldd	r31, Y+1	; 0x01
    554a:	01 93       	st	Z+, r16
    554c:	f9 83       	std	Y+1, r31	; 0x01
    554e:	e8 83       	st	Y, r30
    5550:	06 c0       	rjmp	.+12     	; 0x555e <fputc+0x3c>
    5552:	e8 85       	ldd	r30, Y+8	; 0x08
    5554:	f9 85       	ldd	r31, Y+9	; 0x09
    5556:	80 2f       	mov	r24, r16
    5558:	09 95       	icall
    555a:	89 2b       	or	r24, r25
    555c:	31 f4       	brne	.+12     	; 0x556a <fputc+0x48>
    555e:	8e 81       	ldd	r24, Y+6	; 0x06
    5560:	9f 81       	ldd	r25, Y+7	; 0x07
    5562:	01 96       	adiw	r24, 0x01	; 1
    5564:	9f 83       	std	Y+7, r25	; 0x07
    5566:	8e 83       	std	Y+6, r24	; 0x06
    5568:	02 c0       	rjmp	.+4      	; 0x556e <fputc+0x4c>
    556a:	0f ef       	ldi	r16, 0xFF	; 255
    556c:	1f ef       	ldi	r17, 0xFF	; 255
    556e:	c8 01       	movw	r24, r16
    5570:	df 91       	pop	r29
    5572:	cf 91       	pop	r28
    5574:	1f 91       	pop	r17
    5576:	0f 91       	pop	r16
    5578:	08 95       	ret

0000557a <__ultoa_invert>:
    557a:	fa 01       	movw	r30, r20
    557c:	aa 27       	eor	r26, r26
    557e:	28 30       	cpi	r18, 0x08	; 8
    5580:	51 f1       	breq	.+84     	; 0x55d6 <__ultoa_invert+0x5c>
    5582:	20 31       	cpi	r18, 0x10	; 16
    5584:	81 f1       	breq	.+96     	; 0x55e6 <__ultoa_invert+0x6c>
    5586:	e8 94       	clt
    5588:	6f 93       	push	r22
    558a:	6e 7f       	andi	r22, 0xFE	; 254
    558c:	6e 5f       	subi	r22, 0xFE	; 254
    558e:	7f 4f       	sbci	r23, 0xFF	; 255
    5590:	8f 4f       	sbci	r24, 0xFF	; 255
    5592:	9f 4f       	sbci	r25, 0xFF	; 255
    5594:	af 4f       	sbci	r26, 0xFF	; 255
    5596:	b1 e0       	ldi	r27, 0x01	; 1
    5598:	3e d0       	rcall	.+124    	; 0x5616 <__ultoa_invert+0x9c>
    559a:	b4 e0       	ldi	r27, 0x04	; 4
    559c:	3c d0       	rcall	.+120    	; 0x5616 <__ultoa_invert+0x9c>
    559e:	67 0f       	add	r22, r23
    55a0:	78 1f       	adc	r23, r24
    55a2:	89 1f       	adc	r24, r25
    55a4:	9a 1f       	adc	r25, r26
    55a6:	a1 1d       	adc	r26, r1
    55a8:	68 0f       	add	r22, r24
    55aa:	79 1f       	adc	r23, r25
    55ac:	8a 1f       	adc	r24, r26
    55ae:	91 1d       	adc	r25, r1
    55b0:	a1 1d       	adc	r26, r1
    55b2:	6a 0f       	add	r22, r26
    55b4:	71 1d       	adc	r23, r1
    55b6:	81 1d       	adc	r24, r1
    55b8:	91 1d       	adc	r25, r1
    55ba:	a1 1d       	adc	r26, r1
    55bc:	20 d0       	rcall	.+64     	; 0x55fe <__ultoa_invert+0x84>
    55be:	09 f4       	brne	.+2      	; 0x55c2 <__ultoa_invert+0x48>
    55c0:	68 94       	set
    55c2:	3f 91       	pop	r19
    55c4:	2a e0       	ldi	r18, 0x0A	; 10
    55c6:	26 9f       	mul	r18, r22
    55c8:	11 24       	eor	r1, r1
    55ca:	30 19       	sub	r19, r0
    55cc:	30 5d       	subi	r19, 0xD0	; 208
    55ce:	31 93       	st	Z+, r19
    55d0:	de f6       	brtc	.-74     	; 0x5588 <__ultoa_invert+0xe>
    55d2:	cf 01       	movw	r24, r30
    55d4:	08 95       	ret
    55d6:	46 2f       	mov	r20, r22
    55d8:	47 70       	andi	r20, 0x07	; 7
    55da:	40 5d       	subi	r20, 0xD0	; 208
    55dc:	41 93       	st	Z+, r20
    55de:	b3 e0       	ldi	r27, 0x03	; 3
    55e0:	0f d0       	rcall	.+30     	; 0x5600 <__ultoa_invert+0x86>
    55e2:	c9 f7       	brne	.-14     	; 0x55d6 <__ultoa_invert+0x5c>
    55e4:	f6 cf       	rjmp	.-20     	; 0x55d2 <__ultoa_invert+0x58>
    55e6:	46 2f       	mov	r20, r22
    55e8:	4f 70       	andi	r20, 0x0F	; 15
    55ea:	40 5d       	subi	r20, 0xD0	; 208
    55ec:	4a 33       	cpi	r20, 0x3A	; 58
    55ee:	18 f0       	brcs	.+6      	; 0x55f6 <__ultoa_invert+0x7c>
    55f0:	49 5d       	subi	r20, 0xD9	; 217
    55f2:	31 fd       	sbrc	r19, 1
    55f4:	40 52       	subi	r20, 0x20	; 32
    55f6:	41 93       	st	Z+, r20
    55f8:	02 d0       	rcall	.+4      	; 0x55fe <__ultoa_invert+0x84>
    55fa:	a9 f7       	brne	.-22     	; 0x55e6 <__ultoa_invert+0x6c>
    55fc:	ea cf       	rjmp	.-44     	; 0x55d2 <__ultoa_invert+0x58>
    55fe:	b4 e0       	ldi	r27, 0x04	; 4
    5600:	a6 95       	lsr	r26
    5602:	97 95       	ror	r25
    5604:	87 95       	ror	r24
    5606:	77 95       	ror	r23
    5608:	67 95       	ror	r22
    560a:	ba 95       	dec	r27
    560c:	c9 f7       	brne	.-14     	; 0x5600 <__ultoa_invert+0x86>
    560e:	00 97       	sbiw	r24, 0x00	; 0
    5610:	61 05       	cpc	r22, r1
    5612:	71 05       	cpc	r23, r1
    5614:	08 95       	ret
    5616:	9b 01       	movw	r18, r22
    5618:	ac 01       	movw	r20, r24
    561a:	0a 2e       	mov	r0, r26
    561c:	06 94       	lsr	r0
    561e:	57 95       	ror	r21
    5620:	47 95       	ror	r20
    5622:	37 95       	ror	r19
    5624:	27 95       	ror	r18
    5626:	ba 95       	dec	r27
    5628:	c9 f7       	brne	.-14     	; 0x561c <__ultoa_invert+0xa2>
    562a:	62 0f       	add	r22, r18
    562c:	73 1f       	adc	r23, r19
    562e:	84 1f       	adc	r24, r20
    5630:	95 1f       	adc	r25, r21
    5632:	a0 1d       	adc	r26, r0
    5634:	08 95       	ret

00005636 <__cmpsf2>:
    5636:	03 d0       	rcall	.+6      	; 0x563e <__fp_cmp>
    5638:	08 f4       	brcc	.+2      	; 0x563c <__cmpsf2+0x6>
    563a:	81 e0       	ldi	r24, 0x01	; 1
    563c:	08 95       	ret

0000563e <__fp_cmp>:
    563e:	99 0f       	add	r25, r25
    5640:	00 08       	sbc	r0, r0
    5642:	55 0f       	add	r21, r21
    5644:	aa 0b       	sbc	r26, r26
    5646:	e0 e8       	ldi	r30, 0x80	; 128
    5648:	fe ef       	ldi	r31, 0xFE	; 254
    564a:	16 16       	cp	r1, r22
    564c:	17 06       	cpc	r1, r23
    564e:	e8 07       	cpc	r30, r24
    5650:	f9 07       	cpc	r31, r25
    5652:	c0 f0       	brcs	.+48     	; 0x5684 <__fp_cmp+0x46>
    5654:	12 16       	cp	r1, r18
    5656:	13 06       	cpc	r1, r19
    5658:	e4 07       	cpc	r30, r20
    565a:	f5 07       	cpc	r31, r21
    565c:	98 f0       	brcs	.+38     	; 0x5684 <__fp_cmp+0x46>
    565e:	62 1b       	sub	r22, r18
    5660:	73 0b       	sbc	r23, r19
    5662:	84 0b       	sbc	r24, r20
    5664:	95 0b       	sbc	r25, r21
    5666:	39 f4       	brne	.+14     	; 0x5676 <__fp_cmp+0x38>
    5668:	0a 26       	eor	r0, r26
    566a:	61 f0       	breq	.+24     	; 0x5684 <__fp_cmp+0x46>
    566c:	23 2b       	or	r18, r19
    566e:	24 2b       	or	r18, r20
    5670:	25 2b       	or	r18, r21
    5672:	21 f4       	brne	.+8      	; 0x567c <__fp_cmp+0x3e>
    5674:	08 95       	ret
    5676:	0a 26       	eor	r0, r26
    5678:	09 f4       	brne	.+2      	; 0x567c <__fp_cmp+0x3e>
    567a:	a1 40       	sbci	r26, 0x01	; 1
    567c:	a6 95       	lsr	r26
    567e:	8f ef       	ldi	r24, 0xFF	; 255
    5680:	81 1d       	adc	r24, r1
    5682:	81 1d       	adc	r24, r1
    5684:	08 95       	ret

00005686 <__mulsf3>:
    5686:	0b d0       	rcall	.+22     	; 0x569e <__mulsf3x>
    5688:	7b c0       	rjmp	.+246    	; 0x5780 <__fp_round>
    568a:	6c d0       	rcall	.+216    	; 0x5764 <__fp_pscA>
    568c:	28 f0       	brcs	.+10     	; 0x5698 <__mulsf3+0x12>
    568e:	71 d0       	rcall	.+226    	; 0x5772 <__fp_pscB>
    5690:	18 f0       	brcs	.+6      	; 0x5698 <__mulsf3+0x12>
    5692:	95 23       	and	r25, r21
    5694:	09 f0       	breq	.+2      	; 0x5698 <__mulsf3+0x12>
    5696:	5d c0       	rjmp	.+186    	; 0x5752 <__fp_inf>
    5698:	62 c0       	rjmp	.+196    	; 0x575e <__fp_nan>
    569a:	11 24       	eor	r1, r1
    569c:	a5 c0       	rjmp	.+330    	; 0x57e8 <__fp_szero>

0000569e <__mulsf3x>:
    569e:	81 d0       	rcall	.+258    	; 0x57a2 <__fp_split3>
    56a0:	a0 f3       	brcs	.-24     	; 0x568a <__mulsf3+0x4>

000056a2 <__mulsf3_pse>:
    56a2:	95 9f       	mul	r25, r21
    56a4:	d1 f3       	breq	.-12     	; 0x569a <__mulsf3+0x14>
    56a6:	95 0f       	add	r25, r21
    56a8:	50 e0       	ldi	r21, 0x00	; 0
    56aa:	55 1f       	adc	r21, r21
    56ac:	62 9f       	mul	r22, r18
    56ae:	f0 01       	movw	r30, r0
    56b0:	72 9f       	mul	r23, r18
    56b2:	bb 27       	eor	r27, r27
    56b4:	f0 0d       	add	r31, r0
    56b6:	b1 1d       	adc	r27, r1
    56b8:	63 9f       	mul	r22, r19
    56ba:	aa 27       	eor	r26, r26
    56bc:	f0 0d       	add	r31, r0
    56be:	b1 1d       	adc	r27, r1
    56c0:	aa 1f       	adc	r26, r26
    56c2:	64 9f       	mul	r22, r20
    56c4:	66 27       	eor	r22, r22
    56c6:	b0 0d       	add	r27, r0
    56c8:	a1 1d       	adc	r26, r1
    56ca:	66 1f       	adc	r22, r22
    56cc:	82 9f       	mul	r24, r18
    56ce:	22 27       	eor	r18, r18
    56d0:	b0 0d       	add	r27, r0
    56d2:	a1 1d       	adc	r26, r1
    56d4:	62 1f       	adc	r22, r18
    56d6:	73 9f       	mul	r23, r19
    56d8:	b0 0d       	add	r27, r0
    56da:	a1 1d       	adc	r26, r1
    56dc:	62 1f       	adc	r22, r18
    56de:	83 9f       	mul	r24, r19
    56e0:	a0 0d       	add	r26, r0
    56e2:	61 1d       	adc	r22, r1
    56e4:	22 1f       	adc	r18, r18
    56e6:	74 9f       	mul	r23, r20
    56e8:	33 27       	eor	r19, r19
    56ea:	a0 0d       	add	r26, r0
    56ec:	61 1d       	adc	r22, r1
    56ee:	23 1f       	adc	r18, r19
    56f0:	84 9f       	mul	r24, r20
    56f2:	60 0d       	add	r22, r0
    56f4:	21 1d       	adc	r18, r1
    56f6:	82 2f       	mov	r24, r18
    56f8:	76 2f       	mov	r23, r22
    56fa:	6a 2f       	mov	r22, r26
    56fc:	11 24       	eor	r1, r1
    56fe:	9f 57       	subi	r25, 0x7F	; 127
    5700:	50 40       	sbci	r21, 0x00	; 0
    5702:	8a f0       	brmi	.+34     	; 0x5726 <__mulsf3_pse+0x84>
    5704:	e1 f0       	breq	.+56     	; 0x573e <__mulsf3_pse+0x9c>
    5706:	88 23       	and	r24, r24
    5708:	4a f0       	brmi	.+18     	; 0x571c <__mulsf3_pse+0x7a>
    570a:	ee 0f       	add	r30, r30
    570c:	ff 1f       	adc	r31, r31
    570e:	bb 1f       	adc	r27, r27
    5710:	66 1f       	adc	r22, r22
    5712:	77 1f       	adc	r23, r23
    5714:	88 1f       	adc	r24, r24
    5716:	91 50       	subi	r25, 0x01	; 1
    5718:	50 40       	sbci	r21, 0x00	; 0
    571a:	a9 f7       	brne	.-22     	; 0x5706 <__mulsf3_pse+0x64>
    571c:	9e 3f       	cpi	r25, 0xFE	; 254
    571e:	51 05       	cpc	r21, r1
    5720:	70 f0       	brcs	.+28     	; 0x573e <__mulsf3_pse+0x9c>
    5722:	17 c0       	rjmp	.+46     	; 0x5752 <__fp_inf>
    5724:	61 c0       	rjmp	.+194    	; 0x57e8 <__fp_szero>
    5726:	5f 3f       	cpi	r21, 0xFF	; 255
    5728:	ec f3       	brlt	.-6      	; 0x5724 <__mulsf3_pse+0x82>
    572a:	98 3e       	cpi	r25, 0xE8	; 232
    572c:	dc f3       	brlt	.-10     	; 0x5724 <__mulsf3_pse+0x82>
    572e:	86 95       	lsr	r24
    5730:	77 95       	ror	r23
    5732:	67 95       	ror	r22
    5734:	b7 95       	ror	r27
    5736:	f7 95       	ror	r31
    5738:	e7 95       	ror	r30
    573a:	9f 5f       	subi	r25, 0xFF	; 255
    573c:	c1 f7       	brne	.-16     	; 0x572e <__mulsf3_pse+0x8c>
    573e:	fe 2b       	or	r31, r30
    5740:	88 0f       	add	r24, r24
    5742:	91 1d       	adc	r25, r1
    5744:	96 95       	lsr	r25
    5746:	87 95       	ror	r24
    5748:	97 f9       	bld	r25, 7
    574a:	08 95       	ret

0000574c <__ctype_isfalse>:
    574c:	99 27       	eor	r25, r25
    574e:	88 27       	eor	r24, r24

00005750 <__ctype_istrue>:
    5750:	08 95       	ret

00005752 <__fp_inf>:
    5752:	97 f9       	bld	r25, 7
    5754:	9f 67       	ori	r25, 0x7F	; 127
    5756:	80 e8       	ldi	r24, 0x80	; 128
    5758:	70 e0       	ldi	r23, 0x00	; 0
    575a:	60 e0       	ldi	r22, 0x00	; 0
    575c:	08 95       	ret

0000575e <__fp_nan>:
    575e:	9f ef       	ldi	r25, 0xFF	; 255
    5760:	80 ec       	ldi	r24, 0xC0	; 192
    5762:	08 95       	ret

00005764 <__fp_pscA>:
    5764:	00 24       	eor	r0, r0
    5766:	0a 94       	dec	r0
    5768:	16 16       	cp	r1, r22
    576a:	17 06       	cpc	r1, r23
    576c:	18 06       	cpc	r1, r24
    576e:	09 06       	cpc	r0, r25
    5770:	08 95       	ret

00005772 <__fp_pscB>:
    5772:	00 24       	eor	r0, r0
    5774:	0a 94       	dec	r0
    5776:	12 16       	cp	r1, r18
    5778:	13 06       	cpc	r1, r19
    577a:	14 06       	cpc	r1, r20
    577c:	05 06       	cpc	r0, r21
    577e:	08 95       	ret

00005780 <__fp_round>:
    5780:	09 2e       	mov	r0, r25
    5782:	03 94       	inc	r0
    5784:	00 0c       	add	r0, r0
    5786:	11 f4       	brne	.+4      	; 0x578c <__fp_round+0xc>
    5788:	88 23       	and	r24, r24
    578a:	52 f0       	brmi	.+20     	; 0x57a0 <__fp_round+0x20>
    578c:	bb 0f       	add	r27, r27
    578e:	40 f4       	brcc	.+16     	; 0x57a0 <__fp_round+0x20>
    5790:	bf 2b       	or	r27, r31
    5792:	11 f4       	brne	.+4      	; 0x5798 <__fp_round+0x18>
    5794:	60 ff       	sbrs	r22, 0
    5796:	04 c0       	rjmp	.+8      	; 0x57a0 <__fp_round+0x20>
    5798:	6f 5f       	subi	r22, 0xFF	; 255
    579a:	7f 4f       	sbci	r23, 0xFF	; 255
    579c:	8f 4f       	sbci	r24, 0xFF	; 255
    579e:	9f 4f       	sbci	r25, 0xFF	; 255
    57a0:	08 95       	ret

000057a2 <__fp_split3>:
    57a2:	57 fd       	sbrc	r21, 7
    57a4:	90 58       	subi	r25, 0x80	; 128
    57a6:	44 0f       	add	r20, r20
    57a8:	55 1f       	adc	r21, r21
    57aa:	59 f0       	breq	.+22     	; 0x57c2 <__fp_splitA+0x10>
    57ac:	5f 3f       	cpi	r21, 0xFF	; 255
    57ae:	71 f0       	breq	.+28     	; 0x57cc <__fp_splitA+0x1a>
    57b0:	47 95       	ror	r20

000057b2 <__fp_splitA>:
    57b2:	88 0f       	add	r24, r24
    57b4:	97 fb       	bst	r25, 7
    57b6:	99 1f       	adc	r25, r25
    57b8:	61 f0       	breq	.+24     	; 0x57d2 <__fp_splitA+0x20>
    57ba:	9f 3f       	cpi	r25, 0xFF	; 255
    57bc:	79 f0       	breq	.+30     	; 0x57dc <__fp_splitA+0x2a>
    57be:	87 95       	ror	r24
    57c0:	08 95       	ret
    57c2:	12 16       	cp	r1, r18
    57c4:	13 06       	cpc	r1, r19
    57c6:	14 06       	cpc	r1, r20
    57c8:	55 1f       	adc	r21, r21
    57ca:	f2 cf       	rjmp	.-28     	; 0x57b0 <__fp_split3+0xe>
    57cc:	46 95       	lsr	r20
    57ce:	f1 df       	rcall	.-30     	; 0x57b2 <__fp_splitA>
    57d0:	08 c0       	rjmp	.+16     	; 0x57e2 <__fp_splitA+0x30>
    57d2:	16 16       	cp	r1, r22
    57d4:	17 06       	cpc	r1, r23
    57d6:	18 06       	cpc	r1, r24
    57d8:	99 1f       	adc	r25, r25
    57da:	f1 cf       	rjmp	.-30     	; 0x57be <__fp_splitA+0xc>
    57dc:	86 95       	lsr	r24
    57de:	71 05       	cpc	r23, r1
    57e0:	61 05       	cpc	r22, r1
    57e2:	08 94       	sec
    57e4:	08 95       	ret

000057e6 <__fp_zero>:
    57e6:	e8 94       	clt

000057e8 <__fp_szero>:
    57e8:	bb 27       	eor	r27, r27
    57ea:	66 27       	eor	r22, r22
    57ec:	77 27       	eor	r23, r23
    57ee:	cb 01       	movw	r24, r22
    57f0:	97 f9       	bld	r25, 7
    57f2:	08 95       	ret

000057f4 <__mulsi3>:
    57f4:	62 9f       	mul	r22, r18
    57f6:	d0 01       	movw	r26, r0
    57f8:	73 9f       	mul	r23, r19
    57fa:	f0 01       	movw	r30, r0
    57fc:	82 9f       	mul	r24, r18
    57fe:	e0 0d       	add	r30, r0
    5800:	f1 1d       	adc	r31, r1
    5802:	64 9f       	mul	r22, r20
    5804:	e0 0d       	add	r30, r0
    5806:	f1 1d       	adc	r31, r1
    5808:	92 9f       	mul	r25, r18
    580a:	f0 0d       	add	r31, r0
    580c:	83 9f       	mul	r24, r19
    580e:	f0 0d       	add	r31, r0
    5810:	74 9f       	mul	r23, r20
    5812:	f0 0d       	add	r31, r0
    5814:	65 9f       	mul	r22, r21
    5816:	f0 0d       	add	r31, r0
    5818:	99 27       	eor	r25, r25
    581a:	72 9f       	mul	r23, r18
    581c:	b0 0d       	add	r27, r0
    581e:	e1 1d       	adc	r30, r1
    5820:	f9 1f       	adc	r31, r25
    5822:	63 9f       	mul	r22, r19
    5824:	b0 0d       	add	r27, r0
    5826:	e1 1d       	adc	r30, r1
    5828:	f9 1f       	adc	r31, r25
    582a:	bd 01       	movw	r22, r26
    582c:	cf 01       	movw	r24, r30
    582e:	11 24       	eor	r1, r1
    5830:	08 95       	ret

00005832 <__divmodsi4>:
    5832:	97 fb       	bst	r25, 7
    5834:	09 2e       	mov	r0, r25
    5836:	05 26       	eor	r0, r21
    5838:	0e d0       	rcall	.+28     	; 0x5856 <__divmodsi4_neg1>
    583a:	57 fd       	sbrc	r21, 7
    583c:	04 d0       	rcall	.+8      	; 0x5846 <__divmodsi4_neg2>
    583e:	14 d0       	rcall	.+40     	; 0x5868 <__udivmodsi4>
    5840:	0a d0       	rcall	.+20     	; 0x5856 <__divmodsi4_neg1>
    5842:	00 1c       	adc	r0, r0
    5844:	38 f4       	brcc	.+14     	; 0x5854 <__divmodsi4_exit>

00005846 <__divmodsi4_neg2>:
    5846:	50 95       	com	r21
    5848:	40 95       	com	r20
    584a:	30 95       	com	r19
    584c:	21 95       	neg	r18
    584e:	3f 4f       	sbci	r19, 0xFF	; 255
    5850:	4f 4f       	sbci	r20, 0xFF	; 255
    5852:	5f 4f       	sbci	r21, 0xFF	; 255

00005854 <__divmodsi4_exit>:
    5854:	08 95       	ret

00005856 <__divmodsi4_neg1>:
    5856:	f6 f7       	brtc	.-4      	; 0x5854 <__divmodsi4_exit>
    5858:	90 95       	com	r25
    585a:	80 95       	com	r24
    585c:	70 95       	com	r23
    585e:	61 95       	neg	r22
    5860:	7f 4f       	sbci	r23, 0xFF	; 255
    5862:	8f 4f       	sbci	r24, 0xFF	; 255
    5864:	9f 4f       	sbci	r25, 0xFF	; 255
    5866:	08 95       	ret

00005868 <__udivmodsi4>:
    5868:	a1 e2       	ldi	r26, 0x21	; 33
    586a:	1a 2e       	mov	r1, r26
    586c:	aa 1b       	sub	r26, r26
    586e:	bb 1b       	sub	r27, r27
    5870:	fd 01       	movw	r30, r26
    5872:	0d c0       	rjmp	.+26     	; 0x588e <__udivmodsi4_ep>

00005874 <__udivmodsi4_loop>:
    5874:	aa 1f       	adc	r26, r26
    5876:	bb 1f       	adc	r27, r27
    5878:	ee 1f       	adc	r30, r30
    587a:	ff 1f       	adc	r31, r31
    587c:	a2 17       	cp	r26, r18
    587e:	b3 07       	cpc	r27, r19
    5880:	e4 07       	cpc	r30, r20
    5882:	f5 07       	cpc	r31, r21
    5884:	20 f0       	brcs	.+8      	; 0x588e <__udivmodsi4_ep>
    5886:	a2 1b       	sub	r26, r18
    5888:	b3 0b       	sbc	r27, r19
    588a:	e4 0b       	sbc	r30, r20
    588c:	f5 0b       	sbc	r31, r21

0000588e <__udivmodsi4_ep>:
    588e:	66 1f       	adc	r22, r22
    5890:	77 1f       	adc	r23, r23
    5892:	88 1f       	adc	r24, r24
    5894:	99 1f       	adc	r25, r25
    5896:	1a 94       	dec	r1
    5898:	69 f7       	brne	.-38     	; 0x5874 <__udivmodsi4_loop>
    589a:	60 95       	com	r22
    589c:	70 95       	com	r23
    589e:	80 95       	com	r24
    58a0:	90 95       	com	r25
    58a2:	9b 01       	movw	r18, r22
    58a4:	ac 01       	movw	r20, r24
    58a6:	bd 01       	movw	r22, r26
    58a8:	cf 01       	movw	r24, r30
    58aa:	08 95       	ret

000058ac <_exit>:
    58ac:	f8 94       	cli

000058ae <__stop_program>:
    58ae:	ff cf       	rjmp	.-2      	; 0x58ae <__stop_program>
